	.file	"memory.c"
	.text
.Ltext0:
	.cfi_sections	.debug_frame
	.file 0 "/usr/local/osdev/versions/v" "kernel/c/memory.c"
	.section	.rodata
.LC0:
	.string	"System"
.LC1:
	.string	"Kernel"
.LC2:
	.string	"Intel8254"
.LC3:
	.string	"Memory"
.LC4:
	.string	"PCI"
.LC5:
	.string	"Interrupt"
.LC6:
	.string	"Paging"
.LC7:
	.string	"ELF"
	.data
	.align 32
	.type	sys_text, @object
	.size	sys_text, 32
sys_text:
	.long	.LC0
	.long	.LC1
	.long	.LC2
	.long	.LC3
	.long	.LC4
	.long	.LC5
	.long	.LC6
	.long	.LC7
	.section	.rodata
.LC8:
	.string	"0000"
.LC9:
	.string	"0001"
.LC10:
	.string	"0010"
.LC11:
	.string	"0011"
.LC12:
	.string	"0100"
.LC13:
	.string	"0101"
.LC14:
	.string	"0110"
.LC15:
	.string	"0111"
.LC16:
	.string	"1000"
.LC17:
	.string	"1001"
.LC18:
	.string	"1010"
.LC19:
	.string	"1011"
.LC20:
	.string	"1100"
.LC21:
	.string	"1101"
.LC22:
	.string	"1110"
.LC23:
	.string	"1111"
	.data
	.align 32
	.type	bit_array, @object
	.size	bit_array, 64
bit_array:
	.long	.LC8
	.long	.LC9
	.long	.LC10
	.long	.LC11
	.long	.LC12
	.long	.LC13
	.long	.LC14
	.long	.LC15
	.long	.LC16
	.long	.LC17
	.long	.LC18
	.long	.LC19
	.long	.LC20
	.long	.LC21
	.long	.LC22
	.long	.LC23
	.section	.rodata
.LC24:
	.string	"VersionV"
	.data
	.align 4
	.type	vv_magic_word, @object
	.size	vv_magic_word, 4
vv_magic_word:
	.long	.LC24
	.globl	physical_memory_base
	.align 4
	.type	physical_memory_base, @object
	.size	physical_memory_base, 4
physical_memory_base:
	.long	-1
	.globl	phsyical_memory_top
	.align 4
	.type	phsyical_memory_top, @object
	.size	phsyical_memory_top, 4
phsyical_memory_top:
	.long	-1
	.globl	kernel_virtual_memory_base
	.align 4
	.type	kernel_virtual_memory_base, @object
	.size	kernel_virtual_memory_base, 4
kernel_virtual_memory_base:
	.long	-805306368
	.globl	kernel_virtual_memory_top
	.align 4
	.type	kernel_virtual_memory_top, @object
	.size	kernel_virtual_memory_top, 4
kernel_virtual_memory_top:
	.long	-805306368
	.globl	second_page_table
	.section	.bss
	.align 4096
	.type	second_page_table, @object
	.size	second_page_table, 4096
second_page_table:
	.zero	4096
	.globl	graphics_page_table
	.align 4096
	.type	graphics_page_table, @object
	.size	graphics_page_table, 4096
graphics_page_table:
	.zero	4096
	.globl	another_page_table
	.align 4096
	.type	another_page_table, @object
	.size	another_page_table, 4096
another_page_table:
	.zero	4096
	.globl	process_pd
	.align 4096
	.type	process_pd, @object
	.size	process_pd, 4096
process_pd:
	.zero	4096
	.globl	process_pt
	.align 4096
	.type	process_pt, @object
	.size	process_pt, 4096
process_pt:
	.zero	4096
	.section	.rodata
.LC25:
	.string	"[\033[0;34;49m%s:%d\033[0;00;00m] "
.LC26:
	.string	"Enter\n"
.LC27:
	.string	"paging_level_active"
.LC28:
	.string	"Paging level: %d\n"
.LC29:
	.string	"Page Size: 0x%08X\n"
	.align 4
.LC30:
	.string	"Start Addr: %x %x | Length: %x %x | Size: %x | Type: %d\n"
.LC31:
	.string	"alloc start: %08X\n"
.LC32:
	.string	"alloc start mod: %08X\n"
.LC33:
	.string	"alloc addition: %08X\n"
	.align 4
.LC34:
	.string	"Usable memory detected:    0x%08X\n"
	.align 4
.LC35:
	.string	"Physical memory base:      0x%08X\n"
	.align 4
.LC36:
	.string	"Virtual memory base:       0x%08X\n"
	.align 4
.LC37:
	.string	"Memory allocatable:        0x%08X\n"
.LC38:
	.string	"%X --> %x\n"
.LC39:
	.string	"00   uint32_t: %08X\n"
.LC40:
	.string	"pmem uint32_t: %08X\n"
.LC41:
	.string	"0x0 and pmem are not equal!\n"
.LC42:
	.string	"Exit\n"
	.text
	.globl	memory_initalize
	.type	memory_initalize, @function
memory_initalize:
.LFB8:
	.file 1 "kernel/c/memory.c"
	.loc 1 35 31
	.cfi_startproc
	pushl	%ebp
	.cfi_def_cfa_offset 8
	.cfi_offset 5, -8
	movl	%esp, %ebp
	.cfi_def_cfa_register 5
	pushl	%edi
	pushl	%esi
	pushl	%ebx
	subl	$76, %esp
	.cfi_offset 7, -12
	.cfi_offset 6, -16
	.cfi_offset 3, -20
	.loc 1 36 2
	subl	$12, %esp
	pushl	$1
	call	set_debug_output
	addl	$16, %esp
	.loc 1 36 4
	subl	$4, %esp
	pushl	$36
	pushl	$__FUNCTION__.2
	pushl	$.LC25
	call	printf_
	addl	$16, %esp
	.loc 1 36 71
	subl	$12, %esp
	pushl	$.LC26
	call	printf_
	addl	$16, %esp
	.loc 1 36 93
	subl	$12, %esp
	pushl	$0
	call	set_debug_output
	addl	$16, %esp
	.loc 1 40 22
	movb	$2, paging_level_active
	.loc 1 42 11
	movl	$0, -36(%ebp)
	.loc 1 43 11
	movl	$0, -28(%ebp)
	.loc 1 44 25
	movl	$_kernel_end, %eax
	.loc 1 44 11
	addl	$1073741824, %eax
	movl	%eax, -40(%ebp)
	.loc 1 46 26
	call	get_multiboot_header
	movl	%eax, -44(%ebp)
	.loc 1 48 2
	subl	$4, %esp
	pushl	$1024
	pushl	$0
	pushl	$another_page_table
	call	memset
	addl	$16, %esp
	.loc 1 49 2
	subl	$4, %esp
	pushl	$1024
	pushl	$0
	pushl	$graphics_page_table
	call	memset
	addl	$16, %esp
	.loc 1 51 2
	subl	$12, %esp
	pushl	$51
	pushl	$__FUNCTION__.2
	pushl	$paging_level_active
	pushl	$.LC27
	pushl	$1
	call	klog_variable_func
	addl	$32, %esp
	.loc 1 52 2
	subl	$12, %esp
	pushl	$1
	call	set_debug_output
	addl	$16, %esp
	.loc 1 52 4
	subl	$4, %esp
	pushl	$52
	pushl	$__FUNCTION__.2
	pushl	$.LC25
	call	printf_
	addl	$16, %esp
	.loc 1 52 71
	movzbl	paging_level_active, %eax
	movzbl	%al, %eax
	subl	$8, %esp
	pushl	%eax
	pushl	$.LC28
	call	printf_
	addl	$16, %esp
	.loc 1 52 125
	subl	$12, %esp
	pushl	$0
	call	set_debug_output
	addl	$16, %esp
	.loc 1 53 2
	subl	$12, %esp
	pushl	$1
	call	set_debug_output
	addl	$16, %esp
	.loc 1 53 4
	subl	$4, %esp
	pushl	$53
	pushl	$__FUNCTION__.2
	pushl	$.LC25
	call	printf_
	addl	$16, %esp
	.loc 1 53 71
	subl	$8, %esp
	pushl	$2097152
	pushl	$.LC29
	call	printf_
	addl	$16, %esp
	.loc 1 53 117
	subl	$12, %esp
	pushl	$0
	call	set_debug_output
	addl	$16, %esp
.LBB2:
	.loc 1 56 11
	movl	$0, -32(%ebp)
	.loc 1 56 2
	jmp	.L2
.L5:
.LBB3:
	.loc 1 57 68
	movl	-44(%ebp), %eax
	movl	48(%eax), %edx
	.loc 1 57 80
	movl	-32(%ebp), %eax
	addl	%edx, %eax
	.loc 1 57 33
	movl	%eax, -72(%ebp)
	.loc 1 59 14
	movl	-72(%ebp), %eax
	movl	20(%eax), %eax
	.loc 1 59 11
	cmpl	$1, %eax
	jne	.L3
	.loc 1 61 10
	movl	-72(%ebp), %eax
	movl	8(%eax), %eax
	.loc 1 61 6
	testl	%eax, %eax
	jne	.L3
	.loc 1 63 22
	movl	-72(%ebp), %eax
	movl	12(%eax), %eax
	.loc 1 63 7
	cmpl	%eax, -28(%ebp)
	jnb	.L4
	.loc 1 64 16
	movl	-72(%ebp), %eax
	movl	4(%eax), %eax
	movl	%eax, -36(%ebp)
	.loc 1 65 15
	movl	-72(%ebp), %eax
	movl	12(%eax), %eax
	movl	%eax, -28(%ebp)
.L4:
	.loc 1 68 5
	subl	$12, %esp
	pushl	$1
	call	set_debug_output
	addl	$16, %esp
	.loc 1 68 7
	subl	$4, %esp
	pushl	$68
	pushl	$__FUNCTION__.2
	pushl	$.LC25
	call	printf_
	addl	$16, %esp
	.loc 1 68 74
	movl	-72(%ebp), %eax
	movl	20(%eax), %ebx
	movl	-72(%ebp), %eax
	movl	(%eax), %eax
	movl	%eax, -84(%ebp)
	movl	-72(%ebp), %eax
	movl	12(%eax), %ecx
	movl	%ecx, -88(%ebp)
	movl	-72(%ebp), %eax
	movl	16(%eax), %ecx
	movl	-72(%ebp), %eax
	movl	4(%eax), %edx
	movl	-72(%ebp), %eax
	movl	8(%eax), %eax
	subl	$4, %esp
	pushl	%ebx
	pushl	-84(%ebp)
	pushl	-88(%ebp)
	pushl	%ecx
	pushl	%edx
	pushl	%eax
	pushl	$.LC30
	call	printf_
	addl	$32, %esp
	.loc 1 68 222
	subl	$12, %esp
	pushl	$0
	call	set_debug_output
	addl	$16, %esp
.L3:
.LBE3:
	.loc 1 56 46 discriminator 2
	movl	-32(%ebp), %eax
	addl	$24, %eax
	.loc 1 56 42 discriminator 2
	movl	%eax, -32(%ebp)
.L2:
	.loc 1 56 25 discriminator 1
	movl	-44(%ebp), %eax
	movl	44(%eax), %edx
	.loc 1 56 20 discriminator 1
	movl	-32(%ebp), %eax
	cmpl	%eax, %edx
	ja	.L5
.LBE2:
	.loc 1 78 3
	subl	$12, %esp
	pushl	$1
	call	set_debug_output
	addl	$16, %esp
	.loc 1 78 5
	subl	$4, %esp
	pushl	$78
	pushl	$__FUNCTION__.2
	pushl	$.LC25
	call	printf_
	addl	$16, %esp
	.loc 1 78 72
	subl	$8, %esp
	pushl	-40(%ebp)
	pushl	$.LC31
	call	printf_
	addl	$16, %esp
	.loc 1 78 119
	subl	$12, %esp
	pushl	$0
	call	set_debug_output
	addl	$16, %esp
	.loc 1 79 3
	subl	$12, %esp
	pushl	$1
	call	set_debug_output
	addl	$16, %esp
	.loc 1 79 5
	subl	$4, %esp
	pushl	$79
	pushl	$__FUNCTION__.2
	pushl	$.LC25
	call	printf_
	addl	$16, %esp
	.loc 1 79 72
	movl	-40(%ebp), %eax
	andl	$2097151, %eax
	subl	$8, %esp
	pushl	%eax
	pushl	$.LC32
	call	printf_
	addl	$16, %esp
	.loc 1 79 134
	subl	$12, %esp
	pushl	$0
	call	set_debug_output
	addl	$16, %esp
	.loc 1 80 3
	subl	$12, %esp
	pushl	$1
	call	set_debug_output
	addl	$16, %esp
	.loc 1 80 5
	subl	$4, %esp
	pushl	$80
	pushl	$__FUNCTION__.2
	pushl	$.LC25
	call	printf_
	addl	$16, %esp
	.loc 1 80 131
	movl	-40(%ebp), %eax
	andl	$2097151, %eax
	movl	%eax, %edx
	.loc 1 80 72
	movl	$2097152, %eax
	subl	%edx, %eax
	subl	$8, %esp
	pushl	%eax
	pushl	$.LC33
	call	printf_
	addl	$16, %esp
	.loc 1 80 146
	subl	$12, %esp
	pushl	$0
	call	set_debug_output
	addl	$16, %esp
	.loc 1 81 40
	movl	-40(%ebp), %eax
	andl	$-2097152, %eax
	.loc 1 81 15
	addl	$2097152, %eax
	movl	%eax, -40(%ebp)
	.loc 1 84 24
	movl	-40(%ebp), %eax
	.loc 1 84 22
	movl	%eax, phsyical_memory_top
	.loc 1 85 25
	movl	-40(%ebp), %eax
	.loc 1 85 23
	movl	%eax, physical_memory_base
	.loc 1 87 2
	subl	$12, %esp
	pushl	$1
	call	set_debug_output
	addl	$16, %esp
	.loc 1 87 4
	subl	$4, %esp
	pushl	$87
	pushl	$__FUNCTION__.2
	pushl	$.LC25
	call	printf_
	addl	$16, %esp
	.loc 1 87 122
	movl	-44(%ebp), %eax
	movl	8(%eax), %eax
	.loc 1 87 71
	sall	$10, %eax
	subl	$8, %esp
	pushl	%eax
	pushl	$.LC34
	call	printf_
	addl	$16, %esp
	.loc 1 87 144
	subl	$12, %esp
	pushl	$0
	call	set_debug_output
	addl	$16, %esp
	.loc 1 88 2
	subl	$12, %esp
	pushl	$1
	call	set_debug_output
	addl	$16, %esp
	.loc 1 88 4
	subl	$4, %esp
	pushl	$88
	pushl	$__FUNCTION__.2
	pushl	$.LC25
	call	printf_
	addl	$16, %esp
	.loc 1 88 71
	movl	physical_memory_base, %eax
	subl	$8, %esp
	pushl	%eax
	pushl	$.LC35
	call	printf_
	addl	$16, %esp
	.loc 1 88 143
	subl	$12, %esp
	pushl	$0
	call	set_debug_output
	addl	$16, %esp
	.loc 1 89 2
	subl	$12, %esp
	pushl	$1
	call	set_debug_output
	addl	$16, %esp
	.loc 1 89 4
	subl	$4, %esp
	pushl	$89
	pushl	$__FUNCTION__.2
	pushl	$.LC25
	call	printf_
	addl	$16, %esp
	.loc 1 89 71
	movl	kernel_virtual_memory_base, %eax
	subl	$8, %esp
	pushl	%eax
	pushl	$.LC36
	call	printf_
	addl	$16, %esp
	.loc 1 89 149
	subl	$12, %esp
	pushl	$0
	call	set_debug_output
	addl	$16, %esp
	.loc 1 90 2
	subl	$12, %esp
	pushl	$1
	call	set_debug_output
	addl	$16, %esp
	.loc 1 90 4
	subl	$4, %esp
	pushl	$90
	pushl	$__FUNCTION__.2
	pushl	$.LC25
	call	printf_
	addl	$16, %esp
	.loc 1 90 71
	subl	$8, %esp
	pushl	-28(%ebp)
	pushl	$.LC37
	call	printf_
	addl	$16, %esp
	.loc 1 90 131
	subl	$12, %esp
	pushl	$0
	call	set_debug_output
	addl	$16, %esp
	.loc 1 92 2
	subl	$12, %esp
	pushl	$5
	call	page_allocate
	addl	$16, %esp
	.loc 1 122 33
	subl	$12, %esp
	pushl	$2097152
	call	kmalloc
	addl	$16, %esp
	movl	%eax, -48(%ebp)
	.loc 1 123 35
	movl	-48(%ebp), %eax
	.loc 1 123 80
	addl	$2097088, %eax
	.loc 1 123 24
	movl	%eax, -48(%ebp)
	.loc 1 125 2
	subl	$4, %esp
	pushl	$1024
	pushl	$0
	pushl	$process_pt
	call	memset
	addl	$16, %esp
	.loc 1 130 14
	movl	$paging_pdpt, -52(%ebp)
	.loc 1 131 14
	movl	$process_pt, -56(%ebp)
	.loc 1 132 12
	movl	-48(%ebp), %eax
	movl	%eax, %ecx
	movl	%eax, %ebx
	sarl	$31, %ebx
	.loc 1 132 46
	movl	physical_memory_base, %eax
	cltd
	.loc 1 132 44
	addl	%ecx, %eax
	adcl	%ebx, %edx
	.loc 1 132 91
	addl	$805306499, %eax
	adcl	$-1, %edx
	.loc 1 132 8
	movl	-56(%ebp), %ecx
	movl	%eax, (%ecx)
	movl	%edx, 4(%ecx)
	.loc 1 140 11
	movl	$process_pt, %eax
	cltd
	.loc 1 140 47
	addl	$1073741825, %eax
	adcl	$-1, %edx
	.loc 1 140 8
	movl	-52(%ebp), %ecx
	movl	%eax, (%ecx)
	movl	%edx, 4(%ecx)
	.loc 1 141 31
	movl	-52(%ebp), %eax
	movl	4(%eax), %edx
	movl	(%eax), %eax
	.loc 1 141 29
	movl	%eax, %ebx
	andb	$-1, %bh
	movl	%ebx, -80(%ebp)
	movl	%edx, %eax
	andl	$0, %eax
	movl	%eax, -76(%ebp)
	.loc 1 141 8
	movl	-52(%ebp), %eax
	movl	-80(%ebp), %ecx
	movl	-76(%ebp), %ebx
	movl	%ecx, (%eax)
	movl	%ebx, 4(%eax)
	.loc 1 142 31
	movl	-56(%ebp), %eax
	movl	4(%eax), %edx
	movl	(%eax), %eax
	.loc 1 142 29
	movl	%eax, %ebx
	andb	$-1, %bh
	movl	%ebx, %esi
	movl	%edx, %eax
	andl	$0, %eax
	movl	%eax, %edi
	.loc 1 142 8
	movl	-56(%ebp), %eax
	movl	%esi, (%eax)
	movl	%edi, 4(%eax)
	.loc 1 148 2
	movl	-56(%ebp), %eax
/APP
/  148 "kernel/c/memory.c" 1
	invlpg (%eax)
/  0 "" 2
	.loc 1 149 2
/NO_APP
	call	asm_refresh_cr3
	.loc 1 151 13
	movl	-48(%ebp), %eax
	movl	%eax, -60(%ebp)
	.loc 1 152 9
	movl	-60(%ebp), %eax
	addl	$4, %eax
	.loc 1 152 14
	movl	$1638, (%eax)
	.loc 1 154 2
	subl	$12, %esp
	pushl	$1
	call	set_debug_output
	addl	$16, %esp
	.loc 1 154 4
	subl	$4, %esp
	pushl	$154
	pushl	$__FUNCTION__.2
	pushl	$.LC25
	call	printf_
	addl	$16, %esp
	.loc 1 154 115
	movl	-60(%ebp), %eax
	addl	$4, %eax
	.loc 1 154 72
	movl	(%eax), %eax
	movl	-60(%ebp), %edx
	addl	$4, %edx
	subl	$4, %esp
	pushl	%eax
	pushl	%edx
	pushl	$.LC38
	call	printf_
	addl	$16, %esp
	.loc 1 154 124
	subl	$12, %esp
	pushl	$0
	call	set_debug_output
	addl	$16, %esp
	.loc 1 156 9
	movl	$0, -64(%ebp)
	.loc 1 157 13
	movl	-64(%ebp), %eax
	movl	%eax, -68(%ebp)
	.loc 1 158 13
	movl	-68(%ebp), %eax
	addl	$8, %eax
	.loc 1 158 18
	movl	$-1162167622, (%eax)
	.loc 1 160 2
	subl	$12, %esp
	pushl	$1
	call	set_debug_output
	addl	$16, %esp
	.loc 1 160 4
	subl	$4, %esp
	pushl	$160
	pushl	$__FUNCTION__.2
	pushl	$.LC25
	call	printf_
	addl	$16, %esp
	.loc 1 160 117
	movl	-68(%ebp), %eax
	addl	$4, %eax
	.loc 1 160 72
	movl	(%eax), %eax
	subl	$8, %esp
	pushl	%eax
	pushl	$.LC39
	call	printf_
	addl	$16, %esp
	.loc 1 160 125
	subl	$12, %esp
	pushl	$0
	call	set_debug_output
	addl	$16, %esp
	.loc 1 161 2
	subl	$12, %esp
	pushl	$1
	call	set_debug_output
	addl	$16, %esp
	.loc 1 161 4
	subl	$4, %esp
	pushl	$161
	pushl	$__FUNCTION__.2
	pushl	$.LC25
	call	printf_
	addl	$16, %esp
	.loc 1 161 113
	movl	-60(%ebp), %eax
	addl	$4, %eax
	.loc 1 161 72
	movl	(%eax), %eax
	subl	$8, %esp
	pushl	%eax
	pushl	$.LC40
	call	printf_
	addl	$16, %esp
	.loc 1 161 121
	subl	$12, %esp
	pushl	$0
	call	set_debug_output
	addl	$16, %esp
	.loc 1 163 17
	movl	-68(%ebp), %eax
	addl	$4, %eax
	.loc 1 163 6
	movl	(%eax), %edx
	.loc 1 163 32
	movl	-60(%ebp), %eax
	addl	$4, %eax
	.loc 1 163 25
	movl	(%eax), %eax
	.loc 1 163 4
	cmpl	%eax, %edx
	je	.L6
	.loc 1 164 3
	subl	$12, %esp
	pushl	$.LC41
	call	kpanic
	addl	$16, %esp
.L6:
	.loc 1 167 2
	subl	$12, %esp
	pushl	$1
	call	set_debug_output
	addl	$16, %esp
	.loc 1 167 4
	subl	$4, %esp
	pushl	$167
	pushl	$__FUNCTION__.2
	pushl	$.LC25
	call	printf_
	addl	$16, %esp
	.loc 1 167 72
	subl	$12, %esp
	pushl	$.LC42
	call	printf_
	addl	$16, %esp
	.loc 1 167 93
	subl	$12, %esp
	pushl	$0
	call	set_debug_output
	addl	$16, %esp
	.loc 1 168 1
	nop
	leal	-12(%ebp), %esp
	popl	%ebx
	.cfi_restore 3
	popl	%esi
	.cfi_restore 6
	popl	%edi
	.cfi_restore 7
	popl	%ebp
	.cfi_restore 5
	.cfi_def_cfa 4, 4
	ret
	.cfi_endproc
.LFE8:
	.size	memory_initalize, .-memory_initalize
	.globl	get_physical_memory_base
	.type	get_physical_memory_base, @function
get_physical_memory_base:
.LFB9:
	.loc 1 175 45
	.cfi_startproc
	pushl	%ebp
	.cfi_def_cfa_offset 8
	.cfi_offset 5, -8
	movl	%esp, %ebp
	.cfi_def_cfa_register 5
	.loc 1 176 9
	movl	physical_memory_base, %eax
	.loc 1 177 1
	popl	%ebp
	.cfi_restore 5
	.cfi_def_cfa 4, 4
	ret
	.cfi_endproc
.LFE9:
	.size	get_physical_memory_base, .-get_physical_memory_base
	.globl	get_physical_addr_from_virt
	.type	get_physical_addr_from_virt, @function
get_physical_addr_from_virt:
.LFB10:
	.loc 1 179 59
	.cfi_startproc
	pushl	%ebp
	.cfi_def_cfa_offset 8
	.cfi_offset 5, -8
	movl	%esp, %ebp
	.cfi_def_cfa_register 5
	.loc 1 180 22
	movl	physical_memory_base, %eax
	movl	%eax, %edx
	.loc 1 180 55
	movl	8(%ebp), %eax
	.loc 1 180 53
	addl	%edx, %eax
	.loc 1 180 70
	addl	$805306368, %eax
	.loc 1 181 1
	popl	%ebp
	.cfi_restore 5
	.cfi_def_cfa 4, 4
	ret
	.cfi_endproc
.LFE10:
	.size	get_physical_addr_from_virt, .-get_physical_addr_from_virt
	.globl	set_task_pde
	.type	set_task_pde, @function
set_task_pde:
.LFB11:
	.loc 1 188 49
	.cfi_startproc
	pushl	%ebp
	.cfi_def_cfa_offset 8
	.cfi_offset 5, -8
	movl	%esp, %ebp
	.cfi_def_cfa_register 5
	subl	$8, %esp
	.loc 1 195 2
	subl	$4, %esp
	pushl	$4096
	pushl	8(%ebp)
	pushl	$process_pt
	call	memcpy
	addl	$16, %esp
	.loc 1 203 2
	call	asm_refresh_cr3
	.loc 1 222 1
	nop
	leave
	.cfi_restore 5
	.cfi_def_cfa 4, 4
	ret
	.cfi_endproc
.LFE11:
	.size	set_task_pde, .-set_task_pde
	.section	.rodata
	.align 4
.LC43:
	.string	"Error: page is null. i = %d, j - %d\n"
	.align 4
.LC44:
	.string	"pd[%d].page[%03d] present, virt 0x%08X --> phys mem: 0x%08X\n"
	.text
	.globl	dump_active_pt
	.type	dump_active_pt, @function
dump_active_pt:
.LFB12:
	.loc 1 224 29
	.cfi_startproc
	pushl	%ebp
	.cfi_def_cfa_offset 8
	.cfi_offset 5, -8
	movl	%esp, %ebp
	.cfi_def_cfa_register 5
	pushl	%edi
	pushl	%esi
	subl	$64, %esp
	.cfi_offset 7, -12
	.cfi_offset 6, -16
	.loc 1 226 13
	movl	$paging_pdpt, -12(%ebp)
.LBB4:
	.loc 1 231 11
	movl	$0, -16(%ebp)
	.loc 1 231 2
	jmp	.L13
.L19:
	.loc 1 234 7
	movl	-12(%ebp), %eax
	movl	4(%eax), %edx
	movl	(%eax), %eax
	.loc 1 234 12
	movl	%eax, %ecx
	andl	$1, %ecx
	movl	%ecx, %esi
	movl	%edx, %eax
	andl	$0, %eax
	movl	%eax, %edi
	.loc 1 234 5
	movl	%esi, %eax
	xorb	$0, %ah
	movl	%eax, -64(%ebp)
	movl	%edi, %eax
	xorb	$0, %ah
	movl	%eax, -60(%ebp)
	movl	-64(%ebp), %edx
	movl	-60(%ebp), %ecx
	movl	%ecx, %eax
	orl	%edx, %eax
	testl	%eax, %eax
	je	.L14
.LBB5:
	.loc 1 238 20
	movl	-12(%ebp), %eax
	movl	4(%eax), %edx
	movl	(%eax), %eax
	.loc 1 238 25
	movl	%eax, %ecx
	andl	$-4096, %ecx
	movl	%ecx, -48(%ebp)
	movl	%edx, %eax
	andl	$1048575, %eax
	movl	%eax, -44(%ebp)
	.loc 1 238 14
	movl	-48(%ebp), %eax
	movl	-44(%ebp), %edx
	addl	$-1073741824, %eax
	adcl	$0, %edx
	movl	%eax, -32(%ebp)
	movl	%edx, -28(%ebp)
	.loc 1 247 22
	movl	-32(%ebp), %eax
	.loc 1 247 15
	movl	%eax, -20(%ebp)
.LBB6:
	.loc 1 253 13
	movl	$0, -24(%ebp)
	.loc 1 253 4
	jmp	.L15
.L18:
.LBB7:
	.loc 1 254 7
	cmpl	$0, -20(%ebp)
	jne	.L16
	.loc 1 255 6
	subl	$12, %esp
	pushl	$1
	call	set_debug_output
	addl	$16, %esp
	.loc 1 255 8
	subl	$4, %esp
	pushl	$255
	pushl	$__FUNCTION__.1
	pushl	$.LC25
	call	printf_
	addl	$16, %esp
	.loc 1 255 76
	subl	$4, %esp
	pushl	-24(%ebp)
	pushl	-16(%ebp)
	pushl	$.LC43
	call	printf_
	addl	$16, %esp
	.loc 1 255 134
	subl	$12, %esp
	pushl	$0
	call	set_debug_output
	addl	$16, %esp
.L16:
	.loc 1 259 25
	movl	-20(%ebp), %eax
	movl	4(%eax), %edx
	movl	(%eax), %eax
	.loc 1 259 14
	movl	%eax, %ecx
	andl	$-1048576, %ecx
	movl	%ecx, -40(%ebp)
	movl	%edx, %eax
	andl	$1048575, %eax
	movl	%eax, -36(%ebp)
	.loc 1 264 9
	movl	-20(%ebp), %eax
	movl	4(%eax), %edx
	movl	(%eax), %eax
	.loc 1 264 15
	movl	%eax, %ecx
	andl	$1, %ecx
	movl	%ecx, -56(%ebp)
	movl	%edx, %eax
	andl	$0, %eax
	movl	%eax, -52(%ebp)
	.loc 1 264 7
	movl	-56(%ebp), %eax
	movl	-52(%ebp), %edx
	movl	%eax, %ecx
	xorb	$0, %ch
	movl	%ecx, -72(%ebp)
	movl	%edx, %eax
	xorb	$0, %ah
	movl	%eax, -68(%ebp)
	movl	-72(%ebp), %edx
	movl	-68(%ebp), %ecx
	movl	%ecx, %eax
	orl	%edx, %eax
	testl	%eax, %eax
	je	.L17
	.loc 1 265 6
	subl	$12, %esp
	pushl	$1
	call	set_debug_output
	addl	$16, %esp
	.loc 1 265 8
	subl	$4, %esp
	pushl	$265
	pushl	$__FUNCTION__.1
	pushl	$.LC25
	call	printf_
	addl	$16, %esp
	.loc 1 265 173
	movl	-16(%ebp), %eax
	sall	$9, %eax
	movl	%eax, %edx
	movl	-24(%ebp), %eax
	addl	%edx, %eax
	.loc 1 265 76
	sall	$21, %eax
	subl	$8, %esp
	pushl	-36(%ebp)
	pushl	-40(%ebp)
	pushl	%eax
	pushl	-24(%ebp)
	pushl	-16(%ebp)
	pushl	$.LC44
	call	printf_
	addl	$32, %esp
	.loc 1 265 204
	subl	$12, %esp
	pushl	$0
	call	set_debug_output
	addl	$16, %esp
.L17:
.LBE7:
	.loc 1 253 30 discriminator 2
	addl	$1, -24(%ebp)
	.loc 1 253 38 discriminator 2
	addl	$8, -20(%ebp)
.L15:
	.loc 1 253 22 discriminator 1
	cmpl	$511, -24(%ebp)
	jle	.L18
.L14:
.LBE6:
.LBE5:
	.loc 1 231 26 discriminator 2
	addl	$1, -16(%ebp)
	.loc 1 231 33 discriminator 2
	addl	$8, -12(%ebp)
.L13:
	.loc 1 231 20 discriminator 1
	cmpl	$3, -16(%ebp)
	jle	.L19
.LBE4:
	.loc 1 272 1
	nop
	nop
	leal	-8(%ebp), %esp
	popl	%esi
	.cfi_restore 6
	popl	%edi
	.cfi_restore 7
	popl	%ebp
	.cfi_restore 5
	.cfi_def_cfa 4, 4
	ret
	.cfi_endproc
.LFE12:
	.size	dump_active_pt, .-dump_active_pt
	.globl	page_map
	.type	page_map, @function
page_map:
.LFB13:
	.loc 1 281 65
	.cfi_startproc
	pushl	%ebp
	.cfi_def_cfa_offset 8
	.cfi_offset 5, -8
	movl	%esp, %ebp
	.cfi_def_cfa_register 5
	pushl	%esi
	pushl	%ebx
	subl	$32, %esp
	.cfi_offset 6, -12
	.cfi_offset 3, -16
	.loc 1 282 11
	movl	$0, -12(%ebp)
	.loc 1 286 24
	movl	8(%ebp), %ecx
	.loc 1 286 11
	shrl	$30, %ecx
	movl	%ecx, -16(%ebp)
	.loc 1 287 23
	movl	8(%ebp), %ecx
	.loc 1 287 57
	movl	-16(%ebp), %ebx
	sall	$30, %ebx
	.loc 1 287 43
	subl	%ebx, %ecx
	.loc 1 287 11
	shrl	$21, %ecx
	movl	%ecx, -20(%ebp)
	.loc 1 288 51
	movl	-16(%ebp), %ecx
	sall	$3, %ecx
	.loc 1 288 12
	addl	$paging_pdpt, %ecx
	movl	%ecx, -24(%ebp)
	.loc 1 289 45
	movl	-20(%ebp), %ecx
	sall	$3, %ecx
	.loc 1 289 12
	addl	$paging_pd, %ecx
	movl	%ecx, -28(%ebp)
	.loc 1 297 14
	movl	12(%ebp), %ecx
	.loc 1 297 34
	orb	$-125, %cl
	movl	$0, %ebx
	.loc 1 297 12
	movl	-28(%ebp), %esi
	movl	%ecx, (%esi)
	movl	%ebx, 4(%esi)
	.loc 1 298 35
	movl	-28(%ebp), %ecx
	movl	4(%ecx), %ebx
	movl	(%ecx), %ecx
	.loc 1 298 33
	movl	%ecx, %esi
	andl	$-1, %esi
	movl	%esi, %eax
	andl	$0, %ebx
	movl	%ebx, %edx
	.loc 1 298 12
	movl	-28(%ebp), %ecx
	movl	%eax, (%ecx)
	movl	%edx, 4(%ecx)
	.loc 1 312 2
	movl	-28(%ebp), %eax
/APP
/  312 "kernel/c/memory.c" 1
	invlpg (%eax)
/  0 "" 2
	.loc 1 313 2
/NO_APP
	call	asm_refresh_cr3
	.loc 1 406 9
	movl	8(%ebp), %eax
	.loc 1 407 1
	addl	$32, %esp
	popl	%ebx
	.cfi_restore 3
	popl	%esi
	.cfi_restore 6
	popl	%ebp
	.cfi_restore 5
	.cfi_def_cfa 4, 4
	ret
	.cfi_endproc
.LFE13:
	.size	page_map, .-page_map
	.globl	page_allocate
	.type	page_allocate, @function
page_allocate:
.LFB14:
	.loc 1 409 42
	.cfi_startproc
	pushl	%ebp
	.cfi_def_cfa_offset 8
	.cfi_offset 5, -8
	movl	%esp, %ebp
	.cfi_def_cfa_register 5
	subl	$24, %esp
	.loc 1 410 13
	movl	kernel_virtual_memory_top, %eax
	movl	%eax, -16(%ebp)
.LBB8:
	.loc 1 412 16
	movl	$0, -12(%ebp)
	.loc 1 412 2
	jmp	.L23
.L24:
	.loc 1 413 3 discriminator 3
	movl	phsyical_memory_top, %edx
	movl	kernel_virtual_memory_top, %eax
	subl	$8, %esp
	pushl	%edx
	pushl	%eax
	call	page_map
	addl	$16, %esp
	.loc 1 414 44 discriminator 3
	movl	kernel_virtual_memory_top, %eax
	.loc 1 414 80 discriminator 3
	addl	$2097152, %eax
	.loc 1 414 29 discriminator 3
	movl	%eax, kernel_virtual_memory_top
	.loc 1 415 38 discriminator 3
	movl	phsyical_memory_top, %eax
	.loc 1 415 68 discriminator 3
	addl	$2097152, %eax
	.loc 1 415 23 discriminator 3
	movl	%eax, phsyical_memory_top
	.loc 1 412 33 discriminator 3
	addl	$1, -12(%ebp)
.L23:
	.loc 1 412 25 discriminator 1
	movl	-12(%ebp), %eax
	cmpl	8(%ebp), %eax
	jb	.L24
.LBE8:
	.loc 1 424 9
	movl	-16(%ebp), %eax
	.loc 1 425 1
	leave
	.cfi_restore 5
	.cfi_def_cfa 4, 4
	ret
	.cfi_endproc
.LFE14:
	.size	page_allocate, .-page_allocate
	.section	.rodata
.LC45:
	.string	"kmalloc(0x256) into p2\n"
.LC46:
	.string	"kmalloc(0x512) into p3\n"
.LC47:
	.string	"kmalloc(0x11000) into p4\n"
.LC48:
	.string	"kmalloc(0x11000) into p5\n"
	.text
	.globl	memory_test
	.type	memory_test, @function
memory_test:
.LFB15:
	.loc 1 429 26
	.cfi_startproc
	pushl	%ebp
	.cfi_def_cfa_offset 8
	.cfi_offset 5, -8
	movl	%esp, %ebp
	.cfi_def_cfa_register 5
	subl	$24, %esp
	.loc 1 430 2
	subl	$12, %esp
	pushl	$1
	call	set_debug_output
	addl	$16, %esp
	.loc 1 430 4
	subl	$4, %esp
	pushl	$430
	pushl	$__FUNCTION__.0
	pushl	$.LC25
	call	printf_
	addl	$16, %esp
	.loc 1 430 72
	subl	$12, %esp
	pushl	$.LC26
	call	printf_
	addl	$16, %esp
	.loc 1 430 94
	subl	$12, %esp
	pushl	$0
	call	set_debug_output
	addl	$16, %esp
	.loc 1 446 7
	subl	$12, %esp
	pushl	$598
	call	kmalloc
	addl	$16, %esp
	movl	%eax, -12(%ebp)
	.loc 1 447 2
	subl	$12, %esp
	pushl	$1
	call	set_debug_output
	addl	$16, %esp
	.loc 1 447 4
	subl	$4, %esp
	pushl	$447
	pushl	$__FUNCTION__.0
	pushl	$.LC25
	call	printf_
	addl	$16, %esp
	.loc 1 447 72
	subl	$12, %esp
	pushl	$.LC45
	call	printf_
	addl	$16, %esp
	.loc 1 447 111
	subl	$12, %esp
	pushl	$0
	call	set_debug_output
	addl	$16, %esp
	.loc 1 450 2
	subl	$12, %esp
	pushl	$1
	call	set_debug_output
	addl	$16, %esp
	.loc 1 450 4
	subl	$4, %esp
	pushl	$450
	pushl	$__FUNCTION__.0
	pushl	$.LC25
	call	printf_
	addl	$16, %esp
	.loc 1 450 72
	subl	$12, %esp
	pushl	$.LC46
	call	printf_
	addl	$16, %esp
	.loc 1 450 111
	subl	$12, %esp
	pushl	$0
	call	set_debug_output
	addl	$16, %esp
	.loc 1 451 7
	subl	$12, %esp
	pushl	$1298
	call	kmalloc
	addl	$16, %esp
	movl	%eax, -16(%ebp)
	.loc 1 454 2
	subl	$12, %esp
	pushl	$1
	call	set_debug_output
	addl	$16, %esp
	.loc 1 454 4
	subl	$4, %esp
	pushl	$454
	pushl	$__FUNCTION__.0
	pushl	$.LC25
	call	printf_
	addl	$16, %esp
	.loc 1 454 72
	subl	$12, %esp
	pushl	$.LC47
	call	printf_
	addl	$16, %esp
	.loc 1 454 113
	subl	$12, %esp
	pushl	$0
	call	set_debug_output
	addl	$16, %esp
	.loc 1 455 7
	subl	$12, %esp
	pushl	$69632
	call	kmalloc
	addl	$16, %esp
	movl	%eax, -20(%ebp)
	.loc 1 458 2
	subl	$12, %esp
	pushl	$1
	call	set_debug_output
	addl	$16, %esp
	.loc 1 458 4
	subl	$4, %esp
	pushl	$458
	pushl	$__FUNCTION__.0
	pushl	$.LC25
	call	printf_
	addl	$16, %esp
	.loc 1 458 72
	subl	$12, %esp
	pushl	$.LC48
	call	printf_
	addl	$16, %esp
	.loc 1 458 113
	subl	$12, %esp
	pushl	$0
	call	set_debug_output
	addl	$16, %esp
	.loc 1 459 7
	subl	$12, %esp
	pushl	$69632
	call	kmalloc
	addl	$16, %esp
	movl	%eax, -24(%ebp)
	.loc 1 464 2
	call	liballoc_dump
	.loc 1 466 2
	subl	$12, %esp
	pushl	$1
	call	set_debug_output
	addl	$16, %esp
	.loc 1 466 4
	subl	$4, %esp
	pushl	$466
	pushl	$__FUNCTION__.0
	pushl	$.LC25
	call	printf_
	addl	$16, %esp
	.loc 1 466 72
	subl	$12, %esp
	pushl	$.LC42
	call	printf_
	addl	$16, %esp
	.loc 1 466 93
	subl	$12, %esp
	pushl	$0
	call	set_debug_output
	addl	$16, %esp
	.loc 1 467 1
	nop
	leave
	.cfi_restore 5
	.cfi_def_cfa 4, 4
	ret
	.cfi_endproc
.LFE15:
	.size	memory_test, .-memory_test
	.section	.rodata
	.align 4
	.type	__FUNCTION__.2, @object
	.size	__FUNCTION__.2, 17
__FUNCTION__.2:
	.string	"memory_initalize"
	.align 4
	.type	__FUNCTION__.1, @object
	.size	__FUNCTION__.1, 15
__FUNCTION__.1:
	.string	"dump_active_pt"
	.align 4
	.type	__FUNCTION__.0, @object
	.size	__FUNCTION__.0, 12
__FUNCTION__.0:
	.string	"memory_test"
	.weak	memset
	.text
.Letext0:
	.file 2 "/usr/local/osdev/versions/v/libcvv/include/_types/_size_t.h"
	.file 3 "/usr/local/osdev/versions/v/libcvv/include/_types/_uint32_t.h"
	.file 4 "/usr/local/osdev/versions/v/libcvv/include/_types/_uint64_t.h"
	.file 5 "/usr/local/osdev/versions/v/libcvv/include/_types/_uint8_t.h"
	.file 6 "/usr/local/osdev/versions/v/kernel/include/memory.h"
	.file 7 "/usr/local/osdev/versions/v/kernel/include/debug.h"
	.file 8 "/usr/local/osdev/versions/v/kernel/include/multiboot.h"
	.file 9 "/usr/local/osdev/versions/v/kernel/include/globals.h"
	.file 10 "/usr/local/osdev/versions/v/kernel/include/kmalloc.h"
	.file 11 "/usr/local/osdev/versions/v/libcvv/include/string.h"
	.file 12 "/usr/local/osdev/versions/v/libcvv/include/printf.h"
	.file 13 "/usr/local/osdev/versions/v/kernel/include/terminal.h"