
build/versionv.bin:     file format elf32-i386
build/versionv.bin
architecture: i386, flags 0x00000112:
EXEC_P, HAS_SYMS, D_PAGED
start address 0xc0101b00

Program Header:
    LOAD off    0x00001000 vaddr 0xc0100000 paddr 0x00100000 align 2**12
         filesz 0x00007c53 memsz 0x00007c53 flags r-x
    LOAD off    0x00009000 vaddr 0xc0108000 paddr 0x00108000 align 2**12
         filesz 0x00002069 memsz 0x00015510 flags rw-

Sections:
Idx Name          Size      VMA       LMA       File off  Algn
  0 .text         00006b06  c0100000  00100000  00001000  2**4
                  CONTENTS, ALLOC, LOAD, READONLY, CODE
  1 .rodata       000004a6  c0107000  00107000  00008000  2**5
                  CONTENTS, ALLOC, LOAD, READONLY, DATA
  2 .rodata.str1.1 00000294  c01074a6  001074a6  000084a6  2**0
                  CONTENTS, ALLOC, LOAD, READONLY, DATA
  3 .rodata.cst8  00000048  c0107740  00107740  00008740  2**3
                  CONTENTS, ALLOC, LOAD, READONLY, DATA
  4 .rodata.cst4  00000028  c0107788  00107788  00008788  2**2
                  CONTENTS, ALLOC, LOAD, READONLY, DATA
  5 .rodata.str1.4 000004a3  c01077b0  001077b0  000087b0  2**2
                  CONTENTS, ALLOC, LOAD, READONLY, DATA
  6 .data         0000205c  c0108000  00108000  00009000  2**5
                  CONTENTS, ALLOC, LOAD, DATA
  7 .versionv_magic 0000000d  c010a05c  0010a05c  0000b05c  2**0
                  CONTENTS, ALLOC, LOAD, DATA
  8 .bss          00012510  c010b000  0010b000  0000b069  2**12
                  ALLOC
  9 .comment      00000012  00000000  00000000  0000b069  2**0
                  CONTENTS, READONLY
 10 .debug_aranges 000002f8  00000000  00000000  0000b080  2**3
                  CONTENTS, READONLY, DEBUGGING, OCTETS
 11 .debug_info   0000b9ec  00000000  00000000  0000b378  2**0
                  CONTENTS, READONLY, DEBUGGING, OCTETS
 12 .debug_abbrev 00002e9b  00000000  00000000  00016d64  2**0
                  CONTENTS, READONLY, DEBUGGING, OCTETS
 13 .debug_line   00006929  00000000  00000000  00019bff  2**0
                  CONTENTS, READONLY, DEBUGGING, OCTETS
 14 .debug_frame  0000151c  00000000  00000000  00020528  2**2
                  CONTENTS, READONLY, DEBUGGING, OCTETS
 15 .debug_str    00001d69  00000000  00000000  00021a44  2**0
                  CONTENTS, READONLY, DEBUGGING, OCTETS
 16 .debug_line_str 000002b8  00000000  00000000  000237ad  2**0
                  CONTENTS, READONLY, DEBUGGING, OCTETS
 17 .debug_loclists 000063d6  00000000  00000000  00023a65  2**0
                  CONTENTS, READONLY, DEBUGGING, OCTETS
 18 .debug_rnglists 00000963  00000000  00000000  00029e3b  2**0
                  CONTENTS, READONLY, DEBUGGING, OCTETS
SYMBOL TABLE:
00000000 l    df *ABS*	00000000 boot.o
1badb002 l       *ABS*	00000000 MAGIC
c0119510 l       .bss	00000000 stack_bottom
c011d510 l       .bss	00000000 stack_top
c0108036 l       .data	00000000 GDT_END
c0108006 l       .data	00000000 NULL_SELECTOR
c010800e l       .data	00000000 CODE_SELECTOR
c0108016 l       .data	00000000 DATA_SELECTOR
c010801e l       .data	00000000 CODE_USER
c0108026 l       .data	00000000 DATA_USER
c010802e l       .data	00000000 TSS
c0101b0f l       .text	00000000 stage1
c0101b13 l       .text	00000000 stage2
c0101b25 l       .text	00000000 stage3
c0101b55 l       .text	00000000 stage4
c0101b71 l       .text	00000000 stage5
00000000 l    df *ABS*	00000000 printf.c
c0100030 l     F .text	00000016 _out_buffer
c0100050 l     F .text	00000001 _out_null
c0100060 l     F .text	000000cf _out_rev
c0100130 l     F .text	00000296 _ntoa_format
c01003d0 l     F .text	000000c4 _ntoa_long
c01004a0 l     F .text	000000ee _ntoa_long_long
c0100590 l     F .text	000003bb _etoa
c0100950 l     F .text	000004c1 _ftoa
c01071a0 l     O .rodata	00000050 pow10.0
c0100e20 l     F .text	0000001c _out_char
c0100e40 l     F .text	00000022 _out_fct
c0100e70 l     F .text	00000929 _vsnprintf
00000000 l    df *ABS*	00000000 asm_tests.o
ada11000 l       *ABS*	00000000 ASM_TEST_MAGIC
00000000 l    df *ABS*	00000000 ata.c
c01071f0 l     O .rodata	0000000e __FUNCTION__.0
00000000 l    df *ABS*	00000000 bootstrap.c
00000000 l    df *ABS*	00000000 debug.c
c01073c0 l     O .rodata	00000020 sys_text
00000000 l    df *ABS*	00000000 elf.c
c01073e0 l     O .rodata	0000000e __FUNCTION__.0
00000000 l    df *ABS*	00000000 intel8254.c
c01073f0 l     O .rodata	00000014 __FUNCTION__.0
00000000 l    df *ABS*	00000000 interrupts.c
c0107404 l     O .rodata	00000015 __FUNCTION__.0
00000000 l    df *ABS*	00000000 kernel.c
00000000 l    df *ABS*	00000000 memory.c
c0104440 l     F .text	000000a6 allocate_new_page
c0116020 l     O .bss	00000008 l_allocated
c0116010 l     O .bss	00000008 l_warningCount
c011602c l     O .bss	00000004 l_memRoot
c0116018 l     O .bss	00000008 l_inuse
c0116008 l     O .bss	00000008 l_errorCount
c0116000 l     O .bss	00000008 l_possibleOverruns
c0116028 l     O .bss	00000004 l_bestBet
c010741c l     O .rodata	00000011 __FUNCTION__.0
00000000 l    df *ABS*	00000000 modules.c
c0107430 l     O .rodata	00000016 __FUNCTION__.0
c0107448 l     O .rodata	00000012 __FUNCTION__.1
00000000 l    df *ABS*	00000000 multiboot.c
00000000 l    df *ABS*	00000000 pci.c
c010745c l     O .rodata	0000000e __FUNCTION__.0
00000000 l    df *ABS*	00000000 process.c
c0107480 l     O .rodata	00000012 __FUNCTION__.1
c010746c l     O .rodata	00000014 __FUNCTION__.0
00000000 l    df *ABS*	00000000 read.c
00000000 l    df *ABS*	00000000 sched_yield.c
00000000 l    df *ABS*	00000000 serial.c
00000000 l    df *ABS*	00000000 string.c
00000000 l    df *ABS*	00000000 syscall.c
00000000 l    df *ABS*	00000000 terminal.c
c010749c l     O .rodata	0000000a CSWTCH.43
c0107494 l     O .rodata	00000008 CSWTCH.44
00000000 l    df *ABS*	00000000 vga.c
00000000 l    df *ABS*	00000000 vv_list.c
c010a05c g       .data	00000000 .vvs_app_gamma_end
c0101e70 g     F .text	00000037 kdebug_add_symbol
c0102350 g     F .text	00000006 get_profile_information
c0101cd0 g     F .text	00000025 strcpy
c0102dbb g       .text	00000000 interrupt_0x23
c0101890 g     F .text	00000010 _putchar
c0104e00 g     F .text	000001aa krealloc
c0106ad0 g     F .text	00000036 vv_list_iterate
c01164c0 g     O .bss	00003000 proc
c0105fb0 g     F .text	0000000d serial_set_default_port
c01032e2 g       .text	00000000 interrupt_7
c0119504 g     O .bss	00000004 term_current_column
c0109628 g       .data	00000000 .vvs_app_beta_end
c0105d60 g     F .text	0000002e process_test_a
c0101e40 g     F .text	0000000e stack_trace_test_func_b
c0102ff5 g       .text	00000000 interrupt_0x2D
c01029d0 g     F .text	000000a2 elf_find_dynstr_tab
c0101820 g     F .text	00000020 vprintf_
c0106610 g     F .text	0000003d term_put_string
c0106170 g     F .text	00000067 syscall
c0106280 g     F .text	00000008 term_set_color
c01055d0 g     F .text	00000001 multiboot_echo_to_serial
c0105060 g     F .text	0000001a liballoc_unlock
c0105eb0 g     F .text	0000009a initalize_serial
c01194fc g     O .bss	00000004 term_buffer
c0101ec0 g     F .text	00000050 kdebug_get_function_at
c0102870 g     F .text	000000a2 elf_find_sym_strtab
c0105c20 g     F .text	00000136 switch_next_process
c0102580 g     F .text	000001d7 elf_initalize
c0103508 g       .text	00000000 interrupt_19
c0102e66 g       .text	00000000 interrupt_0x26
c0103067 g       .text	00000000 interrupt_0x2F
c0105550 g     F .text	0000006f multiboot_initalize
c0104050 g     F .text	00000006 get_timer_counter
c0104140 g     F .text	0000004e interrupt_mask_irq
c01019b0 g     F .text	00000150 ata_initalize
c01118c0 g     O .bss	00000006 sIDTR
c0103472 g       .text	00000000 interrupt_16
c0106650 g     F .text	0000003d term_write_string
c0111060 g     O .bss	0000004c new_post_interrupt_stack
c01194d8 g     O .bss	00000004 capture_i
c0101ca0 g     F .text	0000002b memcpy
c01044f0 g     F .text	000000e9 liballoc_dump
c0104c40 g     F .text	0000018c kfree
c0102d49 g       .text	00000000 interrupt_0x21
c010b020 g     O .bss	00000200 primary_status
c0104190 g     F .text	0000006e interrupt_unmask_irq
c0105d90 g     F .text	0000002e process_test_b
c0102fbc g       .text	00000000 interrupt_0x2C
c01030d9 g       .text	00000000 interrupt_0x31
c01024b0 g     F .text	000000c6 debugf_stack_trace
c01033dc g       .text	00000000 interrupt_12
c0116040 g     O .bss	00000004 mb_magic
c0106690 g     F .text	0000000d set_debug_output
c0103314 g       .text	00000000 interrupt_8
c01031e8 g       .text	00000000 interrupt_2
c01017d0 g     F .text	00000021 sprintf_
c01040f0 g     F .text	0000004e add_interrupt
c01110ac g     O .bss	00000004 timer_counter
c010d000 g       .bss	00000000 boot_page_table
c01055e0 g     F .text	000001cc pci_initalize
c0105f50 g     F .text	00000051 serial_setup_port
c0101bc0 g     F .text	000000d8 __udivmoddi4
c010807a g     O .data	00000001 can_switch
c010808c g       .data	00000000 .vvs_app_alpha_start
c0108bf4 g       .data	00000000 .vvs_app_alpha_end
c01031b6 g       .text	00000000 interrupt_1
c0108084 g     O .data	00000004 VGA_HEIGHT
c0101eb0 g     F .text	00000006 kdebug_get_symbol_array
c0104020 g     F .text	00000021 replace_stack_on_int_exit
c0101f60 g     F .text	00000053 kdebug_get_symbol_addr
c0106830 g     F .text	00000296 main_vv_list
c01194c8 g     O .bss	00000004 proc_current
c0102df4 g       .text	00000000 interrupt_0x24
c0102920 g     F .text	000000a2 elf_find_dynsym_tab
c0106710 g     F .text	00000023 vv_list_initalize
c0101dc0 g     F .text	00000068 hex2int
c01194d4 g     O .bss	00000004 y_start
c0104380 g     F .text	000000c0 page_allocate
c0116034 g     O .bss	00000004 num_modules
c0102820 g     F .text	00000046 elf_find_symtab
c0101840 g     F .text	00000020 vsnprintf_
c0105040 g     F .text	00000018 liballoc_lock
c011d510 g       .bss	00000000 _kernel_end
c01110c0 g     O .bss	00000800 IDT
c0108088 g     O .data	00000004 VGA_WIDTH
c0108bf4 g       .data	00000000 .vvs_app_beta_start
c0104060 g     F .text	0000001e load_idtr
c0116030 g     O .bss	00000004 modules
c0102290 g     F .text	0000004e k_log
c0105800 g     F .text	0000005d pci_read_header
c0105860 g     F .text	0000006e pci_get_header_by_device_id
c0104200 g     F .text	00000097 kernel_main
c0101e30 g     F .text	0000000e stack_trace_test_func_a
c01042b0 g     F .text	00000001 write
c01018a7 g       .text	00000000 process_test_alpha_end
c0101860 g     F .text	0000002d fctprintf
c01065c0 g     F .text	00000041 term_clear_last_char
c0111040 g     O .bss	00000001 use_new_post_interrupt_stack
c0103440 g       .text	00000000 interrupt_14
c0106020 g     F .text	00000044 strcat
c010302e g       .text	00000000 interrupt_0x2E
c01194cc g     O .bss	00000004 default_port
c0102300 g     F .text	00000026 profile_start
c0108060 g     O .data	0000001a kdebug_symbol_cannot_find
c01066d0 g     F .text	00000033 my_list_iterator
c0103540 g     F .text	000007d8 interrupts_initalize
c01194e0 g     O .bss	00000019 ansi_capture
c01055c0 g     F .text	00000006 get_multiboot_header
c01032b0 g       .text	00000000 interrupt_6
c010a05c g       .data	00000000 module_data_end
c0103346 g       .text	00000000 interrupt_9
c0102f11 g       .text	00000000 interrupt_0x29
c0106070 g     F .text	00000066 strstr
c01033aa g       .text	00000000 interrupt_11
c0105390 g     F .text	000001bc modules_initalize
c0116060 g     O .bss	00000078 multiboot_header
c0105dc0 g     F .text	00000051 read
c01110b4 g     O .bss	00000001 gpf_fired
c0102d10 g       .text	00000000 interrupt_0x20
c01110b5 g     O .bss	00000001 debug_interrupts
c0105080 g     F .text	00000005 liballoc_alloc
c0102b60 g     F .text	00000044 elf_get_sym_name_from_index
c01062d0 g     F .text	000002ed term_put_char
c010b220 g     O .bss	00000001 primary_ready
c0102480 g     F .text	0000002a profile_test
c01034d6 g       .text	00000000 interrupt_18
c0102e9f g       .text	00000000 interrupt_0x27
c0102f83 g       .text	00000000 interrupt_0x2B
c0104310 g     F .text	0000006c page_map
c01049b0 g     F .text	00000151 memory_initalize
c01061e0 g     F .text	0000009d term_initalize
c0103d20 g     F .text	000002fa interrupt_default_handler
c0103184 g       .text	00000000 interrupt_0
c0108080 g     O .data	00000004 phsyical_memory_top
c010808c g       .data	00000000 module_data_start
c0105a80 g     F .text	0000017a add_process
c01030a0 g       .text	00000000 interrupt_0x30
c0103112 g       .text	00000000 interrupt_0x32
c0102760 g     F .text	0000006c elf_load_program_headers
c0105ff0 g     F .text	0000002a serial_read_port
c0102bb0 g     F .text	0000015e intel8254_initalize
c0115000 g     O .bss	00001000 second_page_table
c01067c0 g     F .text	0000006f vv_list_remove
c01057b0 g     F .text	00000044 pci_config_read
c0104fb0  w    F .text	00000083 memset
c0102f4a g       .text	00000000 interrupt_0x2A
c01022e0 g     F .text	00000016 peek_char
c0108000 g       .data	00000000 GDTR
c0102d82 g       .text	00000000 interrupt_0x22
c01050a0 g     F .text	000002cd load_module_elf_image
c01018a8 g     F .text	00000000 process_test_beta
c01160e0 g     O .bss	00000004 pci_devices_top
c0106740 g     F .text	00000077 vv_list_append
c0101e50 g     F .text	0000000e stack_trace_test_func_c
c010e000 g     O .bss	0000000c profile_from_latest_run
c01042a0 g     F .text	00000001 register_io_device
c0101b95 g       .text	00000000 asm_refresh_cr3
c0105e50 g     F .text	00000057 syscall_sched_yield
c0105e20 g     F .text	00000003 syscall_read
c0101b00 g     F .text	0000009c _asm_kernel_start
c0104b10 g     F .text	00000123 memory_test
c01018b0 g     F .text	000000f1 ata_identify
c0101d00 g     F .text	0000004c strcmp
c01066a0 g     F .text	0000002b write_to_serial_port
c0119508 g     O .bss	00000004 term_current_row
c010321a g       .text	00000000 interrupt_3
c0101800 g     F .text	0000001f snprintf_
c0108040 g     O .data	00000020 sys_text_arr
c0105090 g     F .text	00000003 liballoc_free
c0104080 g     F .text	00000067 remap_pic
c010c000 g       .bss	00000000 boot_page_directory
c01194c4 g     O .bss	00000004 proc_last
c0105fc0 g     F .text	0000002f serial_write_port
c0116100 g     O .bss	000003c0 pci_devices
c0105c00 g     F .text	00000011 get_current_process
c01194dc g     O .bss	00000001 term_capture_ansi_escape_code
c0111020 g     O .bss	00000004 kernel_symbol_top
c010314b g       .text	00000000 interrupt_0x99
c0102330 g     F .text	0000001d profile_stop
c010807c g     O .data	00000004 kernel_virtual_memory_top
c01034a4 g       .text	00000000 interrupt_17
c010327e g       .text	00000000 interrupt_5
c01018af g       .text	00000000 process_test_beta_end
c01017a0 g     F .text	00000021 printf_
c0101e60 g     F .text	0000000e stack_trace_test_func_d
c0102a80 g     F .text	000000a2 elf_find_got_plt
c010340e g       .text	00000000 interrupt_13
c0102ed8 g       .text	00000000 interrupt_0x28
c0101fc0 g     F .text	000002c2 kdebug_peek_at
c0119500 g     O .bss	00000001 term_current_color
c01045e0 g     F .text	000003c2 kmalloc
c01194c0 g     O .bss	00000004 process_switch_counter
c01060e0 g     F .text	0000008b syscall_handler
c0105a30 g     F .text	00000044 setup_kernel_process
c0103378 g       .text	00000000 interrupt_10
c0101d50 g     F .text	00000061 atoi
c01027d0 g     F .text	00000046 elf_find_rel_plt
c010b000 g     O .bss	00000004 sector_read_buffer
c010e020 g     O .bss	00003000 kernel_symbols
c01110b0 g     O .bss	00000004 timer_var
c010324c g       .text	00000000 interrupt_4
c01018a0 g     F .text	00000000 process_test_alpha
c0108006 g       .data	00000000 GDT
c0105370 g     F .text	00000011 load_module
c01110b7 g     O .bss	00000001 pic1_irq_mask
c0106290 g     F .text	00000032 term_put_char_at
c0102b30 g     F .text	0000002c elf_get_section_name
c0101ba0 g     F .text	0000001b strlen
c0100000 g       .text	00000000 _kernel_start
c0113000 g     O .bss	00001000 process_pt
c01194d0 g     O .bss	00000001 is_debug_output
c0101f10 g     F .text	0000004c kdebug_get_symbol
c01110b6 g     O .bss	00000001 pic2_irq_mask
c0112000 g     O .bss	00000001 liballoc_is_locked
c0104dd0 g     F .text	0000002f kcalloc
c0105e30 g     F .text	00000015 sched_yield
c01042c0 g     F .text	00000041 set_process_pde
c0102360 g     F .text	0000011e profile_test_run
c01058d0 g     F .text	00000157 process_initalize
c0109628 g       .data	00000000 .vvs_app_gamma_start
c0102e2d g       .text	00000000 interrupt_0x25
c0114000 g     O .bss	00001000 process_pd



Disassembly of section .text:

c0100000 <_kernel_start>:
c0100000:	02 b0 ad 1b 07 00    	add    0x71bad(%eax),%dh
c0100006:	00 00                	add    %al,(%eax)
c0100008:	f7 4f 52 e4 00 00 00 	testl  $0xe4,0x52(%edi)
	...
c010001f:	00 01                	add    %al,(%ecx)
c0100021:	00 00                	add    %al,(%eax)
c0100023:	00 50 00             	add    %dl,0x0(%eax)
c0100026:	00 00                	add    %al,(%eax)
c0100028:	19 00                	sbb    %eax,(%eax)
c010002a:	00 00                	add    %al,(%eax)
c010002c:	00 00                	add    %al,(%eax)
	...

c0100030 <_out_buffer>:
c0100030:	55                   	push   %ebp
c0100031:	89 e5                	mov    %esp,%ebp
c0100033:	8b 55 08             	mov    0x8(%ebp),%edx
c0100036:	8b 45 10             	mov    0x10(%ebp),%eax
c0100039:	3b 45 14             	cmp    0x14(%ebp),%eax
c010003c:	73 06                	jae    c0100044 <_out_buffer+0x14>
c010003e:	8b 4d 0c             	mov    0xc(%ebp),%ecx
c0100041:	88 14 01             	mov    %dl,(%ecx,%eax,1)
c0100044:	5d                   	pop    %ebp
c0100045:	c3                   	ret    
c0100046:	8d b4 26 00 00 00 00 	lea    0x0(%esi,%eiz,1),%esi
c010004d:	8d 76 00             	lea    0x0(%esi),%esi

c0100050 <_out_null>:
c0100050:	c3                   	ret    
c0100051:	8d b4 26 00 00 00 00 	lea    0x0(%esi,%eiz,1),%esi
c0100058:	8d b4 26 00 00 00 00 	lea    0x0(%esi,%eiz,1),%esi
c010005f:	90                   	nop

c0100060 <_out_rev>:
c0100060:	55                   	push   %ebp
c0100061:	89 e5                	mov    %esp,%ebp
c0100063:	57                   	push   %edi
c0100064:	56                   	push   %esi
c0100065:	89 d6                	mov    %edx,%esi
c0100067:	53                   	push   %ebx
c0100068:	89 cb                	mov    %ecx,%ebx
c010006a:	83 ec 1c             	sub    $0x1c,%esp
c010006d:	89 45 e4             	mov    %eax,-0x1c(%ebp)
c0100070:	89 4d dc             	mov    %ecx,-0x24(%ebp)
c0100073:	f6 45 18 03          	testb  $0x3,0x18(%ebp)
c0100077:	75 2f                	jne    c01000a8 <_out_rev+0x48>
c0100079:	8b 45 14             	mov    0x14(%ebp),%eax
c010007c:	2b 45 10             	sub    0x10(%ebp),%eax
c010007f:	89 cf                	mov    %ecx,%edi
c0100081:	8d 1c 08             	lea    (%eax,%ecx,1),%ebx
c0100084:	8b 45 14             	mov    0x14(%ebp),%eax
c0100087:	39 45 10             	cmp    %eax,0x10(%ebp)
c010008a:	0f 83 98 00 00 00    	jae    c0100128 <_out_rev+0xc8>
c0100090:	89 fa                	mov    %edi,%edx
c0100092:	ff 75 08             	push   0x8(%ebp)
c0100095:	83 c7 01             	add    $0x1,%edi
c0100098:	8b 45 e4             	mov    -0x1c(%ebp),%eax
c010009b:	52                   	push   %edx
c010009c:	56                   	push   %esi
c010009d:	6a 20                	push   $0x20
c010009f:	ff d0                	call   *%eax
c01000a1:	83 c4 10             	add    $0x10,%esp
c01000a4:	39 fb                	cmp    %edi,%ebx
c01000a6:	75 e8                	jne    c0100090 <_out_rev+0x30>
c01000a8:	8b 7d 10             	mov    0x10(%ebp),%edi
c01000ab:	8d 04 1f             	lea    (%edi,%ebx,1),%eax
c01000ae:	85 ff                	test   %edi,%edi
c01000b0:	74 34                	je     c01000e6 <_out_rev+0x86>
c01000b2:	89 c3                	mov    %eax,%ebx
c01000b4:	8d b4 26 00 00 00 00 	lea    0x0(%esi,%eiz,1),%esi
c01000bb:	8d 74 26 00          	lea    0x0(%esi,%eiz,1),%esi
c01000bf:	90                   	nop
c01000c0:	8b 45 0c             	mov    0xc(%ebp),%eax
c01000c3:	89 da                	mov    %ebx,%edx
c01000c5:	ff 75 08             	push   0x8(%ebp)
c01000c8:	29 fa                	sub    %edi,%edx
c01000ca:	83 ef 01             	sub    $0x1,%edi
c01000cd:	89 5d e0             	mov    %ebx,-0x20(%ebp)
c01000d0:	52                   	push   %edx
c01000d1:	56                   	push   %esi
c01000d2:	0f be 14 38          	movsbl (%eax,%edi,1),%edx
c01000d6:	8b 45 e4             	mov    -0x1c(%ebp),%eax
c01000d9:	52                   	push   %edx
c01000da:	ff d0                	call   *%eax
c01000dc:	83 c4 10             	add    $0x10,%esp
c01000df:	85 ff                	test   %edi,%edi
c01000e1:	75 dd                	jne    c01000c0 <_out_rev+0x60>
c01000e3:	8b 5d e0             	mov    -0x20(%ebp),%ebx
c01000e6:	f6 45 18 02          	testb  $0x2,0x18(%ebp)
c01000ea:	74 32                	je     c010011e <_out_rev+0xbe>
c01000ec:	89 df                	mov    %ebx,%edi
c01000ee:	2b 7d dc             	sub    -0x24(%ebp),%edi
c01000f1:	39 7d 14             	cmp    %edi,0x14(%ebp)
c01000f4:	76 28                	jbe    c010011e <_out_rev+0xbe>
c01000f6:	89 f0                	mov    %esi,%eax
c01000f8:	89 de                	mov    %ebx,%esi
c01000fa:	89 fb                	mov    %edi,%ebx
c01000fc:	89 c7                	mov    %eax,%edi
c01000fe:	66 90                	xchg   %ax,%ax
c0100100:	89 f1                	mov    %esi,%ecx
c0100102:	ff 75 08             	push   0x8(%ebp)
c0100105:	8b 45 e4             	mov    -0x1c(%ebp),%eax
c0100108:	83 c6 01             	add    $0x1,%esi
c010010b:	51                   	push   %ecx
c010010c:	83 c3 01             	add    $0x1,%ebx
c010010f:	57                   	push   %edi
c0100110:	6a 20                	push   $0x20
c0100112:	ff d0                	call   *%eax
c0100114:	83 c4 10             	add    $0x10,%esp
c0100117:	39 5d 14             	cmp    %ebx,0x14(%ebp)
c010011a:	77 e4                	ja     c0100100 <_out_rev+0xa0>
c010011c:	89 f3                	mov    %esi,%ebx
c010011e:	8d 65 f4             	lea    -0xc(%ebp),%esp
c0100121:	89 d8                	mov    %ebx,%eax
c0100123:	5b                   	pop    %ebx
c0100124:	5e                   	pop    %esi
c0100125:	5f                   	pop    %edi
c0100126:	5d                   	pop    %ebp
c0100127:	c3                   	ret    
c0100128:	89 cb                	mov    %ecx,%ebx
c010012a:	e9 79 ff ff ff       	jmp    c01000a8 <_out_rev+0x48>
c010012f:	90                   	nop

c0100130 <_ntoa_format>:
c0100130:	55                   	push   %ebp
c0100131:	89 e5                	mov    %esp,%ebp
c0100133:	57                   	push   %edi
c0100134:	89 c7                	mov    %eax,%edi
c0100136:	56                   	push   %esi
c0100137:	53                   	push   %ebx
c0100138:	83 ec 2c             	sub    $0x2c,%esp
c010013b:	8b 75 14             	mov    0x14(%ebp),%esi
c010013e:	8b 5d 18             	mov    0x18(%ebp),%ebx
c0100141:	89 55 e0             	mov    %edx,-0x20(%ebp)
c0100144:	8b 45 08             	mov    0x8(%ebp),%eax
c0100147:	8b 55 0c             	mov    0xc(%ebp),%edx
c010014a:	89 4d dc             	mov    %ecx,-0x24(%ebp)
c010014d:	89 75 cc             	mov    %esi,-0x34(%ebp)
c0100150:	8b 75 24             	mov    0x24(%ebp),%esi
c0100153:	89 5d d0             	mov    %ebx,-0x30(%ebp)
c0100156:	8b 5d 1c             	mov    0x1c(%ebp),%ebx
c0100159:	89 45 d8             	mov    %eax,-0x28(%ebp)
c010015c:	8b 4d 20             	mov    0x20(%ebp),%ecx
c010015f:	89 5d e4             	mov    %ebx,-0x1c(%ebp)
c0100162:	8b 45 10             	mov    0x10(%ebp),%eax
c0100165:	f7 c6 02 00 00 00    	test   $0x2,%esi
c010016b:	0f 85 93 00 00 00    	jne    c0100204 <_ntoa_format+0xd4>
c0100171:	89 f3                	mov    %esi,%ebx
c0100173:	83 e3 01             	and    $0x1,%ebx
c0100176:	83 f8 1f             	cmp    $0x1f,%eax
c0100179:	0f 96 45 d7          	setbe  -0x29(%ebp)
c010017d:	3b 45 e4             	cmp    -0x1c(%ebp),%eax
c0100180:	0f 92 45 d6          	setb   -0x2a(%ebp)
c0100184:	89 5d c8             	mov    %ebx,-0x38(%ebp)
c0100187:	0f b6 5d d6          	movzbl -0x2a(%ebp),%ebx
c010018b:	22 5d d7             	and    -0x29(%ebp),%bl
c010018e:	88 5d d6             	mov    %bl,-0x2a(%ebp)
c0100191:	85 c9                	test   %ecx,%ecx
c0100193:	0f 85 27 01 00 00    	jne    c01002c0 <_ntoa_format+0x190>
c0100199:	80 7d d6 00          	cmpb   $0x0,-0x2a(%ebp)
c010019d:	74 25                	je     c01001c4 <_ntoa_format+0x94>
c010019f:	8b 5d e4             	mov    -0x1c(%ebp),%ebx
c01001a2:	8d b4 26 00 00 00 00 	lea    0x0(%esi,%eiz,1),%esi
c01001a9:	8d b4 26 00 00 00 00 	lea    0x0(%esi,%eiz,1),%esi
c01001b0:	83 c0 01             	add    $0x1,%eax
c01001b3:	c6 44 02 ff 30       	movb   $0x30,-0x1(%edx,%eax,1)
c01001b8:	39 c3                	cmp    %eax,%ebx
c01001ba:	76 05                	jbe    c01001c1 <_ntoa_format+0x91>
c01001bc:	83 f8 1f             	cmp    $0x1f,%eax
c01001bf:	76 ef                	jbe    c01001b0 <_ntoa_format+0x80>
c01001c1:	89 5d e4             	mov    %ebx,-0x1c(%ebp)
c01001c4:	8b 5d c8             	mov    -0x38(%ebp),%ebx
c01001c7:	85 db                	test   %ebx,%ebx
c01001c9:	74 39                	je     c0100204 <_ntoa_format+0xd4>
c01001cb:	83 f8 1f             	cmp    $0x1f,%eax
c01001ce:	0f 96 45 d7          	setbe  -0x29(%ebp)
c01001d2:	39 c1                	cmp    %eax,%ecx
c01001d4:	76 2e                	jbe    c0100204 <_ntoa_format+0xd4>
c01001d6:	80 7d d7 00          	cmpb   $0x0,-0x29(%ebp)
c01001da:	74 28                	je     c0100204 <_ntoa_format+0xd4>
c01001dc:	8b 5d e4             	mov    -0x1c(%ebp),%ebx
c01001df:	eb 14                	jmp    c01001f5 <_ntoa_format+0xc5>
c01001e1:	8d b4 26 00 00 00 00 	lea    0x0(%esi,%eiz,1),%esi
c01001e8:	8d b4 26 00 00 00 00 	lea    0x0(%esi,%eiz,1),%esi
c01001ef:	90                   	nop
c01001f0:	83 f8 1f             	cmp    $0x1f,%eax
c01001f3:	77 0c                	ja     c0100201 <_ntoa_format+0xd1>
c01001f5:	83 c0 01             	add    $0x1,%eax
c01001f8:	c6 44 02 ff 30       	movb   $0x30,-0x1(%edx,%eax,1)
c01001fd:	39 c8                	cmp    %ecx,%eax
c01001ff:	72 ef                	jb     c01001f0 <_ntoa_format+0xc0>
c0100201:	89 5d e4             	mov    %ebx,-0x1c(%ebp)
c0100204:	f7 c6 10 00 00 00    	test   $0x10,%esi
c010020a:	0f 84 8d 00 00 00    	je     c010029d <_ntoa_format+0x16d>
c0100210:	f7 c6 00 04 00 00    	test   $0x400,%esi
c0100216:	74 58                	je     c0100270 <_ntoa_format+0x140>
c0100218:	83 7d d0 10          	cmpl   $0x10,-0x30(%ebp)
c010021c:	0f 84 2c 01 00 00    	je     c010034e <_ntoa_format+0x21e>
c0100222:	83 7d d0 02          	cmpl   $0x2,-0x30(%ebp)
c0100226:	75 0e                	jne    c0100236 <_ntoa_format+0x106>
c0100228:	83 f8 1f             	cmp    $0x1f,%eax
c010022b:	77 09                	ja     c0100236 <_ntoa_format+0x106>
c010022d:	8d 1c 02             	lea    (%edx,%eax,1),%ebx
c0100230:	83 c0 01             	add    $0x1,%eax
c0100233:	c6 03 62             	movb   $0x62,(%ebx)
c0100236:	83 f8 20             	cmp    $0x20,%eax
c0100239:	75 59                	jne    c0100294 <_ntoa_format+0x164>
c010023b:	89 45 10             	mov    %eax,0x10(%ebp)
c010023e:	8b 45 d8             	mov    -0x28(%ebp),%eax
c0100241:	89 75 18             	mov    %esi,0x18(%ebp)
c0100244:	89 4d 14             	mov    %ecx,0x14(%ebp)
c0100247:	8b 4d dc             	mov    -0x24(%ebp),%ecx
c010024a:	89 55 0c             	mov    %edx,0xc(%ebp)
c010024d:	8b 55 e0             	mov    -0x20(%ebp),%edx
c0100250:	89 45 08             	mov    %eax,0x8(%ebp)
c0100253:	83 c4 2c             	add    $0x2c,%esp
c0100256:	89 f8                	mov    %edi,%eax
c0100258:	5b                   	pop    %ebx
c0100259:	5e                   	pop    %esi
c010025a:	5f                   	pop    %edi
c010025b:	5d                   	pop    %ebp
c010025c:	e9 ff fd ff ff       	jmp    c0100060 <_out_rev>
c0100261:	8d b4 26 00 00 00 00 	lea    0x0(%esi,%eiz,1),%esi
c0100268:	8d b4 26 00 00 00 00 	lea    0x0(%esi,%eiz,1),%esi
c010026f:	90                   	nop
c0100270:	85 c0                	test   %eax,%eax
c0100272:	0f 85 b8 00 00 00    	jne    c0100330 <_ntoa_format+0x200>
c0100278:	83 7d d0 10          	cmpl   $0x10,-0x30(%ebp)
c010027c:	0f 84 07 01 00 00    	je     c0100389 <_ntoa_format+0x259>
c0100282:	83 7d d0 02          	cmpl   $0x2,-0x30(%ebp)
c0100286:	0f 85 12 01 00 00    	jne    c010039e <_ntoa_format+0x26e>
c010028c:	c6 02 62             	movb   $0x62,(%edx)
c010028f:	b8 01 00 00 00       	mov    $0x1,%eax
c0100294:	8d 1c 02             	lea    (%edx,%eax,1),%ebx
c0100297:	83 c0 01             	add    $0x1,%eax
c010029a:	c6 03 30             	movb   $0x30,(%ebx)
c010029d:	83 f8 20             	cmp    $0x20,%eax
c01002a0:	74 99                	je     c010023b <_ntoa_format+0x10b>
c01002a2:	80 7d cc 00          	cmpb   $0x0,-0x34(%ebp)
c01002a6:	74 48                	je     c01002f0 <_ntoa_format+0x1c0>
c01002a8:	c6 04 02 2d          	movb   $0x2d,(%edx,%eax,1)
c01002ac:	83 c0 01             	add    $0x1,%eax
c01002af:	eb 8a                	jmp    c010023b <_ntoa_format+0x10b>
c01002b1:	8d b4 26 00 00 00 00 	lea    0x0(%esi,%eiz,1),%esi
c01002b8:	8d b4 26 00 00 00 00 	lea    0x0(%esi,%eiz,1),%esi
c01002bf:	90                   	nop
c01002c0:	8b 5d c8             	mov    -0x38(%ebp),%ebx
c01002c3:	85 db                	test   %ebx,%ebx
c01002c5:	74 59                	je     c0100320 <_ntoa_format+0x1f0>
c01002c7:	80 7d cc 00          	cmpb   $0x0,-0x34(%ebp)
c01002cb:	75 08                	jne    c01002d5 <_ntoa_format+0x1a5>
c01002cd:	f7 c6 0c 00 00 00    	test   $0xc,%esi
c01002d3:	74 03                	je     c01002d8 <_ntoa_format+0x1a8>
c01002d5:	83 e9 01             	sub    $0x1,%ecx
c01002d8:	80 7d d6 00          	cmpb   $0x0,-0x2a(%ebp)
c01002dc:	0f 85 bd fe ff ff    	jne    c010019f <_ntoa_format+0x6f>
c01002e2:	e9 eb fe ff ff       	jmp    c01001d2 <_ntoa_format+0xa2>
c01002e7:	8d b4 26 00 00 00 00 	lea    0x0(%esi,%eiz,1),%esi
c01002ee:	66 90                	xchg   %ax,%ax
c01002f0:	f7 c6 04 00 00 00    	test   $0x4,%esi
c01002f6:	75 18                	jne    c0100310 <_ntoa_format+0x1e0>
c01002f8:	f7 c6 08 00 00 00    	test   $0x8,%esi
c01002fe:	0f 84 37 ff ff ff    	je     c010023b <_ntoa_format+0x10b>
c0100304:	c6 04 02 20          	movb   $0x20,(%edx,%eax,1)
c0100308:	83 c0 01             	add    $0x1,%eax
c010030b:	e9 2b ff ff ff       	jmp    c010023b <_ntoa_format+0x10b>
c0100310:	c6 04 02 2b          	movb   $0x2b,(%edx,%eax,1)
c0100314:	83 c0 01             	add    $0x1,%eax
c0100317:	e9 1f ff ff ff       	jmp    c010023b <_ntoa_format+0x10b>
c010031c:	8d 74 26 00          	lea    0x0(%esi,%eiz,1),%esi
c0100320:	80 7d d6 00          	cmpb   $0x0,-0x2a(%ebp)
c0100324:	0f 85 75 fe ff ff    	jne    c010019f <_ntoa_format+0x6f>
c010032a:	e9 d5 fe ff ff       	jmp    c0100204 <_ntoa_format+0xd4>
c010032f:	90                   	nop
c0100330:	3b 45 e4             	cmp    -0x1c(%ebp),%eax
c0100333:	74 08                	je     c010033d <_ntoa_format+0x20d>
c0100335:	39 c8                	cmp    %ecx,%eax
c0100337:	0f 85 db fe ff ff    	jne    c0100218 <_ntoa_format+0xe8>
c010033d:	8d 58 ff             	lea    -0x1(%eax),%ebx
c0100340:	83 f8 01             	cmp    $0x1,%eax
c0100343:	74 3d                	je     c0100382 <_ntoa_format+0x252>
c0100345:	83 e8 02             	sub    $0x2,%eax
c0100348:	83 7d d0 10          	cmpl   $0x10,-0x30(%ebp)
c010034c:	75 34                	jne    c0100382 <_ntoa_format+0x252>
c010034e:	83 f8 1f             	cmp    $0x1f,%eax
c0100351:	89 f3                	mov    %esi,%ebx
c0100353:	0f 96 45 e4          	setbe  -0x1c(%ebp)
c0100357:	83 e3 20             	and    $0x20,%ebx
c010035a:	75 0e                	jne    c010036a <_ntoa_format+0x23a>
c010035c:	80 7d e4 00          	cmpb   $0x0,-0x1c(%ebp)
c0100360:	75 49                	jne    c01003ab <_ntoa_format+0x27b>
c0100362:	85 db                	test   %ebx,%ebx
c0100364:	0f 84 cc fe ff ff    	je     c0100236 <_ntoa_format+0x106>
c010036a:	80 7d e4 00          	cmpb   $0x0,-0x1c(%ebp)
c010036e:	0f 84 c2 fe ff ff    	je     c0100236 <_ntoa_format+0x106>
c0100374:	8d 1c 02             	lea    (%edx,%eax,1),%ebx
c0100377:	83 c0 01             	add    $0x1,%eax
c010037a:	c6 03 58             	movb   $0x58,(%ebx)
c010037d:	e9 b4 fe ff ff       	jmp    c0100236 <_ntoa_format+0x106>
c0100382:	89 d8                	mov    %ebx,%eax
c0100384:	e9 8f fe ff ff       	jmp    c0100218 <_ntoa_format+0xe8>
c0100389:	f7 c6 20 00 00 00    	test   $0x20,%esi
c010038f:	75 28                	jne    c01003b9 <_ntoa_format+0x289>
c0100391:	c6 02 78             	movb   $0x78,(%edx)
c0100394:	b8 01 00 00 00       	mov    $0x1,%eax
c0100399:	e9 f6 fe ff ff       	jmp    c0100294 <_ntoa_format+0x164>
c010039e:	c6 02 30             	movb   $0x30,(%edx)
c01003a1:	b8 01 00 00 00       	mov    $0x1,%eax
c01003a6:	e9 f7 fe ff ff       	jmp    c01002a2 <_ntoa_format+0x172>
c01003ab:	8d 1c 02             	lea    (%edx,%eax,1),%ebx
c01003ae:	83 c0 01             	add    $0x1,%eax
c01003b1:	c6 03 78             	movb   $0x78,(%ebx)
c01003b4:	e9 7d fe ff ff       	jmp    c0100236 <_ntoa_format+0x106>
c01003b9:	c6 02 58             	movb   $0x58,(%edx)
c01003bc:	b8 01 00 00 00       	mov    $0x1,%eax
c01003c1:	e9 ce fe ff ff       	jmp    c0100294 <_ntoa_format+0x164>
c01003c6:	8d b4 26 00 00 00 00 	lea    0x0(%esi,%eiz,1),%esi
c01003cd:	8d 76 00             	lea    0x0(%esi),%esi

c01003d0 <_ntoa_long>:
c01003d0:	55                   	push   %ebp
c01003d1:	89 e5                	mov    %esp,%ebp
c01003d3:	57                   	push   %edi
c01003d4:	56                   	push   %esi
c01003d5:	53                   	push   %ebx
c01003d6:	83 ec 4c             	sub    $0x4c,%esp
c01003d9:	89 45 c0             	mov    %eax,-0x40(%ebp)
c01003dc:	8b 5d 0c             	mov    0xc(%ebp),%ebx
c01003df:	8b 45 10             	mov    0x10(%ebp),%eax
c01003e2:	89 55 bc             	mov    %edx,-0x44(%ebp)
c01003e5:	89 4d b8             	mov    %ecx,-0x48(%ebp)
c01003e8:	89 45 b4             	mov    %eax,-0x4c(%ebp)
c01003eb:	85 db                	test   %ebx,%ebx
c01003ed:	75 51                	jne    c0100440 <_ntoa_long+0x70>
c01003ef:	8b 45 20             	mov    0x20(%ebp),%eax
c01003f2:	83 e0 ef             	and    $0xffffffef,%eax
c01003f5:	f7 45 20 00 04 00 00 	testl  $0x400,0x20(%ebp)
c01003fc:	89 45 20             	mov    %eax,0x20(%ebp)
c01003ff:	74 3f                	je     c0100440 <_ntoa_long+0x70>
c0100401:	31 c9                	xor    %ecx,%ecx
c0100403:	0f b6 45 b4          	movzbl -0x4c(%ebp),%eax
c0100407:	8b 55 bc             	mov    -0x44(%ebp),%edx
c010040a:	ff 75 20             	push   0x20(%ebp)
c010040d:	ff 75 1c             	push   0x1c(%ebp)
c0100410:	ff 75 18             	push   0x18(%ebp)
c0100413:	ff 75 14             	push   0x14(%ebp)
c0100416:	50                   	push   %eax
c0100417:	8d 45 c8             	lea    -0x38(%ebp),%eax
c010041a:	51                   	push   %ecx
c010041b:	8b 4d b8             	mov    -0x48(%ebp),%ecx
c010041e:	50                   	push   %eax
c010041f:	8b 45 c0             	mov    -0x40(%ebp),%eax
c0100422:	ff 75 08             	push   0x8(%ebp)
c0100425:	e8 06 fd ff ff       	call   c0100130 <_ntoa_format>
c010042a:	8d 65 f4             	lea    -0xc(%ebp),%esp
c010042d:	5b                   	pop    %ebx
c010042e:	5e                   	pop    %esi
c010042f:	5f                   	pop    %edi
c0100430:	5d                   	pop    %ebp
c0100431:	c3                   	ret    
c0100432:	8d b4 26 00 00 00 00 	lea    0x0(%esi,%eiz,1),%esi
c0100439:	8d b4 26 00 00 00 00 	lea    0x0(%esi,%eiz,1),%esi
c0100440:	8b 45 20             	mov    0x20(%ebp),%eax
c0100443:	83 e0 20             	and    $0x20,%eax
c0100446:	83 f8 01             	cmp    $0x1,%eax
c0100449:	19 c0                	sbb    %eax,%eax
c010044b:	31 c9                	xor    %ecx,%ecx
c010044d:	83 e0 20             	and    $0x20,%eax
c0100450:	83 c0 37             	add    $0x37,%eax
c0100453:	88 45 c7             	mov    %al,-0x39(%ebp)
c0100456:	eb 0a                	jmp    c0100462 <_ntoa_long+0x92>
c0100458:	8d b4 26 00 00 00 00 	lea    0x0(%esi,%eiz,1),%esi
c010045f:	90                   	nop
c0100460:	89 c3                	mov    %eax,%ebx
c0100462:	31 d2                	xor    %edx,%edx
c0100464:	89 d8                	mov    %ebx,%eax
c0100466:	0f b6 75 c7          	movzbl -0x39(%ebp),%esi
c010046a:	f7 75 14             	divl   0x14(%ebp)
c010046d:	01 d6                	add    %edx,%esi
c010046f:	8d 7a 30             	lea    0x30(%edx),%edi
c0100472:	83 fa 09             	cmp    $0x9,%edx
c0100475:	0f 47 fe             	cmova  %esi,%edi
c0100478:	83 c1 01             	add    $0x1,%ecx
c010047b:	89 fa                	mov    %edi,%edx
c010047d:	88 54 0d c7          	mov    %dl,-0x39(%ebp,%ecx,1)
c0100481:	3b 5d 14             	cmp    0x14(%ebp),%ebx
c0100484:	0f 82 79 ff ff ff    	jb     c0100403 <_ntoa_long+0x33>
c010048a:	83 f9 1f             	cmp    $0x1f,%ecx
c010048d:	76 d1                	jbe    c0100460 <_ntoa_long+0x90>
c010048f:	e9 6f ff ff ff       	jmp    c0100403 <_ntoa_long+0x33>
c0100494:	8d b4 26 00 00 00 00 	lea    0x0(%esi,%eiz,1),%esi
c010049b:	8d 74 26 00          	lea    0x0(%esi,%eiz,1),%esi
c010049f:	90                   	nop

c01004a0 <_ntoa_long_long>:
c01004a0:	55                   	push   %ebp
c01004a1:	89 e5                	mov    %esp,%ebp
c01004a3:	57                   	push   %edi
c01004a4:	56                   	push   %esi
c01004a5:	53                   	push   %ebx
c01004a6:	83 ec 5c             	sub    $0x5c,%esp
c01004a9:	8b 7d 10             	mov    0x10(%ebp),%edi
c01004ac:	8b 75 0c             	mov    0xc(%ebp),%esi
c01004af:	89 45 a8             	mov    %eax,-0x58(%ebp)
c01004b2:	8b 45 14             	mov    0x14(%ebp),%eax
c01004b5:	89 55 a4             	mov    %edx,-0x5c(%ebp)
c01004b8:	8b 55 1c             	mov    0x1c(%ebp),%edx
c01004bb:	89 4d a0             	mov    %ecx,-0x60(%ebp)
c01004be:	89 45 9c             	mov    %eax,-0x64(%ebp)
c01004c1:	8b 45 18             	mov    0x18(%ebp),%eax
c01004c4:	89 55 bc             	mov    %edx,-0x44(%ebp)
c01004c7:	89 45 b8             	mov    %eax,-0x48(%ebp)
c01004ca:	89 f8                	mov    %edi,%eax
c01004cc:	09 f0                	or     %esi,%eax
c01004ce:	75 20                	jne    c01004f0 <_ntoa_long_long+0x50>
c01004d0:	8b 45 28             	mov    0x28(%ebp),%eax
c01004d3:	83 e0 ef             	and    $0xffffffef,%eax
c01004d6:	f7 45 28 00 04 00 00 	testl  $0x400,0x28(%ebp)
c01004dd:	89 45 28             	mov    %eax,0x28(%ebp)
c01004e0:	74 0e                	je     c01004f0 <_ntoa_long_long+0x50>
c01004e2:	31 ff                	xor    %edi,%edi
c01004e4:	eb 79                	jmp    c010055f <_ntoa_long_long+0xbf>
c01004e6:	8d b4 26 00 00 00 00 	lea    0x0(%esi,%eiz,1),%esi
c01004ed:	8d 76 00             	lea    0x0(%esi),%esi
c01004f0:	8b 45 28             	mov    0x28(%ebp),%eax
c01004f3:	83 e0 20             	and    $0x20,%eax
c01004f6:	83 f8 01             	cmp    $0x1,%eax
c01004f9:	19 c0                	sbb    %eax,%eax
c01004fb:	31 db                	xor    %ebx,%ebx
c01004fd:	83 e0 20             	and    $0x20,%eax
c0100500:	83 c0 37             	add    $0x37,%eax
c0100503:	88 45 af             	mov    %al,-0x51(%ebp)
c0100506:	eb 13                	jmp    c010051b <_ntoa_long_long+0x7b>
c0100508:	8d b4 26 00 00 00 00 	lea    0x0(%esi,%eiz,1),%esi
c010050f:	90                   	nop
c0100510:	83 fb 1f             	cmp    $0x1f,%ebx
c0100513:	77 48                	ja     c010055d <_ntoa_long_long+0xbd>
c0100515:	8b 75 b0             	mov    -0x50(%ebp),%esi
c0100518:	8b 7d b4             	mov    -0x4c(%ebp),%edi
c010051b:	83 ec 0c             	sub    $0xc,%esp
c010051e:	8d 45 c0             	lea    -0x40(%ebp),%eax
c0100521:	50                   	push   %eax
c0100522:	ff 75 bc             	push   -0x44(%ebp)
c0100525:	ff 75 b8             	push   -0x48(%ebp)
c0100528:	57                   	push   %edi
c0100529:	56                   	push   %esi
c010052a:	e8 91 16 00 00       	call   c0101bc0 <__udivmoddi4>
c010052f:	83 c4 20             	add    $0x20,%esp
c0100532:	89 45 b0             	mov    %eax,-0x50(%ebp)
c0100535:	0f b6 45 af          	movzbl -0x51(%ebp),%eax
c0100539:	89 55 b4             	mov    %edx,-0x4c(%ebp)
c010053c:	8b 55 c0             	mov    -0x40(%ebp),%edx
c010053f:	01 d0                	add    %edx,%eax
c0100541:	8d 4a 30             	lea    0x30(%edx),%ecx
c0100544:	80 fa 09             	cmp    $0x9,%dl
c0100547:	8b 55 bc             	mov    -0x44(%ebp),%edx
c010054a:	0f 4e c1             	cmovle %ecx,%eax
c010054d:	83 c3 01             	add    $0x1,%ebx
c0100550:	88 44 1d c7          	mov    %al,-0x39(%ebp,%ebx,1)
c0100554:	8b 45 b8             	mov    -0x48(%ebp),%eax
c0100557:	39 c6                	cmp    %eax,%esi
c0100559:	19 d7                	sbb    %edx,%edi
c010055b:	73 b3                	jae    c0100510 <_ntoa_long_long+0x70>
c010055d:	89 df                	mov    %ebx,%edi
c010055f:	0f b6 45 9c          	movzbl -0x64(%ebp),%eax
c0100563:	8b 4d a0             	mov    -0x60(%ebp),%ecx
c0100566:	ff 75 28             	push   0x28(%ebp)
c0100569:	8b 55 a4             	mov    -0x5c(%ebp),%edx
c010056c:	ff 75 24             	push   0x24(%ebp)
c010056f:	ff 75 20             	push   0x20(%ebp)
c0100572:	ff 75 b8             	push   -0x48(%ebp)
c0100575:	50                   	push   %eax
c0100576:	8d 45 c8             	lea    -0x38(%ebp),%eax
c0100579:	57                   	push   %edi
c010057a:	50                   	push   %eax
c010057b:	8b 45 a8             	mov    -0x58(%ebp),%eax
c010057e:	ff 75 08             	push   0x8(%ebp)
c0100581:	e8 aa fb ff ff       	call   c0100130 <_ntoa_format>
c0100586:	8d 65 f4             	lea    -0xc(%ebp),%esp
c0100589:	5b                   	pop    %ebx
c010058a:	5e                   	pop    %esi
c010058b:	5f                   	pop    %edi
c010058c:	5d                   	pop    %ebp
c010058d:	c3                   	ret    
c010058e:	66 90                	xchg   %ax,%ax

c0100590 <_etoa>:
c0100590:	55                   	push   %ebp
c0100591:	89 e5                	mov    %esp,%ebp
c0100593:	57                   	push   %edi
c0100594:	56                   	push   %esi
c0100595:	53                   	push   %ebx
c0100596:	83 ec 4c             	sub    $0x4c,%esp
c0100599:	dd 45 0c             	fldl   0xc(%ebp)
c010059c:	8b 5d 1c             	mov    0x1c(%ebp),%ebx
c010059f:	89 45 cc             	mov    %eax,-0x34(%ebp)
c01005a2:	8b 45 08             	mov    0x8(%ebp),%eax
c01005a5:	89 55 d0             	mov    %edx,-0x30(%ebp)
c01005a8:	89 4d c8             	mov    %ecx,-0x38(%ebp)
c01005ab:	8b 55 14             	mov    0x14(%ebp),%edx
c01005ae:	89 45 e0             	mov    %eax,-0x20(%ebp)
c01005b1:	8b 45 18             	mov    0x18(%ebp),%eax
c01005b4:	db e8                	fucomi %st(0),%st
c01005b6:	89 45 d4             	mov    %eax,-0x2c(%ebp)
c01005b9:	0f 8a b1 02 00 00    	jp     c0100870 <_etoa+0x2e0>
c01005bf:	dd 05 40 77 10 c0    	fldl   0xc0107740
c01005c5:	d9 c9                	fxch   %st(1)
c01005c7:	db f1                	fcomi  %st(1),%st
c01005c9:	dd d9                	fstp   %st(1)
c01005cb:	0f 87 9f 02 00 00    	ja     c0100870 <_etoa+0x2e0>
c01005d1:	dd 05 48 77 10 c0    	fldl   0xc0107748
c01005d7:	df f1                	fcomip %st(1),%st
c01005d9:	0f 87 91 02 00 00    	ja     c0100870 <_etoa+0x2e0>
c01005df:	d9 7d e6             	fnstcw -0x1a(%ebp)
c01005e2:	d9 c0                	fld    %st(0)
c01005e4:	89 d8                	mov    %ebx,%eax
c01005e6:	d9 e0                	fchs   
c01005e8:	d9 ee                	fldz   
c01005ea:	df f2                	fcomip %st(2),%st
c01005ec:	da d1                	fcmovbe %st(1),%st
c01005ee:	25 00 04 00 00       	and    $0x400,%eax
c01005f3:	89 45 ac             	mov    %eax,-0x54(%ebp)
c01005f6:	b8 06 00 00 00       	mov    $0x6,%eax
c01005fb:	0f 44 d0             	cmove  %eax,%edx
c01005fe:	dd 55 d8             	fstl   -0x28(%ebp)
c0100601:	8b 45 dc             	mov    -0x24(%ebp),%eax
c0100604:	8b 75 d8             	mov    -0x28(%ebp),%esi
c0100607:	89 c1                	mov    %eax,%ecx
c0100609:	25 ff ff 0f 00       	and    $0xfffff,%eax
c010060e:	c1 e9 14             	shr    $0x14,%ecx
c0100611:	0d 00 00 f0 3f       	or     $0x3ff00000,%eax
c0100616:	81 e1 ff 07 00 00    	and    $0x7ff,%ecx
c010061c:	89 45 c4             	mov    %eax,-0x3c(%ebp)
c010061f:	0f b7 45 e6          	movzwl -0x1a(%ebp),%eax
c0100623:	81 e9 ff 03 00 00    	sub    $0x3ff,%ecx
c0100629:	89 4d c0             	mov    %ecx,-0x40(%ebp)
c010062c:	db 45 c0             	fildl  -0x40(%ebp)
c010062f:	80 cc 0c             	or     $0xc,%ah
c0100632:	dc 0d 50 77 10 c0    	fmull  0xc0107750
c0100638:	dc 05 58 77 10 c0    	faddl  0xc0107758
c010063e:	89 75 c0             	mov    %esi,-0x40(%ebp)
c0100641:	dd 45 c0             	fldl   -0x40(%ebp)
c0100644:	66 89 45 e4          	mov    %ax,-0x1c(%ebp)
c0100648:	d8 25 88 77 10 c0    	fsubs  0xc0107788
c010064e:	dc 0d 60 77 10 c0    	fmull  0xc0107760
c0100654:	de c1                	faddp  %st,%st(1)
c0100656:	d9 6d e4             	fldcw  -0x1c(%ebp)
c0100659:	db 5d c0             	fistpl -0x40(%ebp)
c010065c:	d9 6d e6             	fldcw  -0x1a(%ebp)
c010065f:	db 45 c0             	fildl  -0x40(%ebp)
c0100662:	dd 05 68 77 10 c0    	fldl   0xc0107768
c0100668:	d8 c9                	fmul   %st(1),%st
c010066a:	d8 05 8c 77 10 c0    	fadds  0xc010778c
c0100670:	d9 6d e4             	fldcw  -0x1c(%ebp)
c0100673:	db 5d b8             	fistpl -0x48(%ebp)
c0100676:	d9 6d e6             	fldcw  -0x1a(%ebp)
c0100679:	dc 0d 70 77 10 c0    	fmull  0xc0107770
c010067f:	db 45 b8             	fildl  -0x48(%ebp)
c0100682:	dc 0d 78 77 10 c0    	fmull  0xc0107778
c0100688:	de e9                	fsubrp %st,%st(1)
c010068a:	d9 c0                	fld    %st(0)
c010068c:	d8 c9                	fmul   %st(1),%st
c010068e:	d9 c1                	fld    %st(1)
c0100690:	d8 c2                	fadd   %st(2),%st
c0100692:	d9 c1                	fld    %st(1)
c0100694:	d8 35 90 77 10 c0    	fdivs  0xc0107790
c010069a:	d9 05 94 77 10 c0    	flds   0xc0107794
c01006a0:	dc c1                	fadd   %st,%st(1)
c01006a2:	d9 c9                	fxch   %st(1)
c01006a4:	d8 fb                	fdivr  %st(3),%st
c01006a6:	d8 05 98 77 10 c0    	fadds  0xc0107798
c01006ac:	de fb                	fdivrp %st,%st(3)
c01006ae:	d9 cb                	fxch   %st(3)
c01006b0:	d8 2d 9c 77 10 c0    	fsubrs 0xc010779c
c01006b6:	de c2                	faddp  %st,%st(2)
c01006b8:	de f1                	fdivp  %st,%st(1)
c01006ba:	d8 05 a0 77 10 c0    	fadds  0xc01077a0
c01006c0:	8b 75 b8             	mov    -0x48(%ebp),%esi
c01006c3:	81 c6 ff 03 00 00    	add    $0x3ff,%esi
c01006c9:	89 f7                	mov    %esi,%edi
c01006cb:	be 00 00 00 00       	mov    $0x0,%esi
c01006d0:	c1 e7 14             	shl    $0x14,%edi
c01006d3:	89 75 b8             	mov    %esi,-0x48(%ebp)
c01006d6:	89 7d bc             	mov    %edi,-0x44(%ebp)
c01006d9:	dc 4d b8             	fmull  -0x48(%ebp)
c01006dc:	dd 55 b8             	fstl   -0x48(%ebp)
c01006df:	df f2                	fcomip %st(2),%st
c01006e1:	dd d9                	fstp   %st(1)
c01006e3:	0f 87 b7 01 00 00    	ja     c01008a0 <_etoa+0x310>
c01006e9:	dd d8                	fstp   %st(0)
c01006eb:	8b 75 b8             	mov    -0x48(%ebp),%esi
c01006ee:	8b 7d bc             	mov    -0x44(%ebp),%edi
c01006f1:	89 75 b0             	mov    %esi,-0x50(%ebp)
c01006f4:	89 7d b4             	mov    %edi,-0x4c(%ebp)
c01006f7:	8b 7d c0             	mov    -0x40(%ebp),%edi
c01006fa:	8d 47 63             	lea    0x63(%edi),%eax
c01006fd:	3d c6 00 00 00       	cmp    $0xc6,%eax
c0100702:	0f 97 c0             	seta   %al
c0100705:	0f b6 c0             	movzbl %al,%eax
c0100708:	89 c6                	mov    %eax,%esi
c010070a:	83 c6 04             	add    $0x4,%esi
c010070d:	f6 c7 08             	test   $0x8,%bh
c0100710:	74 40                	je     c0100752 <_etoa+0x1c2>
c0100712:	dd 05 80 77 10 c0    	fldl   0xc0107780
c0100718:	dd 45 d8             	fldl   -0x28(%ebp)
c010071b:	89 d0                	mov    %edx,%eax
c010071d:	db f1                	fcomi  %st(1),%st
c010071f:	dd d9                	fstp   %st(1)
c0100721:	72 1d                	jb     c0100740 <_etoa+0x1b0>
c0100723:	d9 05 a4 77 10 c0    	flds   0xc01077a4
c0100729:	df f1                	fcomip %st(1),%st
c010072b:	dd d8                	fstp   %st(0)
c010072d:	0f 87 ad 01 00 00    	ja     c01008e0 <_etoa+0x350>
c0100733:	eb 0d                	jmp    c0100742 <_etoa+0x1b2>
c0100735:	8d b4 26 00 00 00 00 	lea    0x0(%esi,%eiz,1),%esi
c010073c:	8d 74 26 00          	lea    0x0(%esi,%eiz,1),%esi
c0100740:	dd d8                	fstp   %st(0)
c0100742:	83 7d ac 01          	cmpl   $0x1,-0x54(%ebp)
c0100746:	89 d1                	mov    %edx,%ecx
c0100748:	83 d1 ff             	adc    $0xffffffff,%ecx
c010074b:	85 d2                	test   %edx,%edx
c010074d:	0f 45 c1             	cmovne %ecx,%eax
c0100750:	89 c2                	mov    %eax,%edx
c0100752:	8b 4d d4             	mov    -0x2c(%ebp),%ecx
c0100755:	89 df                	mov    %ebx,%edi
c0100757:	c6 45 b8 01          	movb   $0x1,-0x48(%ebp)
c010075b:	83 e7 02             	and    $0x2,%edi
c010075e:	89 c8                	mov    %ecx,%eax
c0100760:	29 f0                	sub    %esi,%eax
c0100762:	39 ce                	cmp    %ecx,%esi
c0100764:	b9 00 00 00 00       	mov    $0x0,%ecx
c0100769:	0f 43 c1             	cmovae %ecx,%eax
c010076c:	83 ff 01             	cmp    $0x1,%edi
c010076f:	19 c9                	sbb    %ecx,%ecx
c0100771:	83 c1 01             	add    $0x1,%ecx
c0100774:	85 ff                	test   %edi,%edi
c0100776:	bf 00 00 00 00       	mov    $0x0,%edi
c010077b:	88 4d ac             	mov    %cl,-0x54(%ebp)
c010077e:	8b 4d c0             	mov    -0x40(%ebp),%ecx
c0100781:	0f 45 c7             	cmovne %edi,%eax
c0100784:	85 c9                	test   %ecx,%ecx
c0100786:	74 09                	je     c0100791 <_etoa+0x201>
c0100788:	dd 45 d8             	fldl   -0x28(%ebp)
c010078b:	dc 75 b0             	fdivl  -0x50(%ebp)
c010078e:	dd 5d d8             	fstpl  -0x28(%ebp)
c0100791:	89 d9                	mov    %ebx,%ecx
c0100793:	d9 ee                	fldz   
c0100795:	80 e5 f7             	and    $0xf7,%ch
c0100798:	df f1                	fcomip %st(1),%st
c010079a:	dd d8                	fstp   %st(0)
c010079c:	0f 87 2e 01 00 00    	ja     c01008d0 <_etoa+0x340>
c01007a2:	83 ec 08             	sub    $0x8,%esp
c01007a5:	8b 7d d0             	mov    -0x30(%ebp),%edi
c01007a8:	51                   	push   %ecx
c01007a9:	8b 4d c8             	mov    -0x38(%ebp),%ecx
c01007ac:	50                   	push   %eax
c01007ad:	8b 45 cc             	mov    -0x34(%ebp),%eax
c01007b0:	52                   	push   %edx
c01007b1:	89 fa                	mov    %edi,%edx
c01007b3:	ff 75 dc             	push   -0x24(%ebp)
c01007b6:	ff 75 d8             	push   -0x28(%ebp)
c01007b9:	ff 75 e0             	push   -0x20(%ebp)
c01007bc:	e8 8f 01 00 00       	call   c0100950 <_ftoa>
c01007c1:	83 c4 20             	add    $0x20,%esp
c01007c4:	80 7d b8 00          	cmpb   $0x0,-0x48(%ebp)
c01007c8:	0f 84 8f 00 00 00    	je     c010085d <_etoa+0x2cd>
c01007ce:	83 e3 20             	and    $0x20,%ebx
c01007d1:	8d 50 01             	lea    0x1(%eax),%edx
c01007d4:	ff 75 e0             	push   -0x20(%ebp)
c01007d7:	83 fb 01             	cmp    $0x1,%ebx
c01007da:	50                   	push   %eax
c01007db:	19 c9                	sbb    %ecx,%ecx
c01007dd:	57                   	push   %edi
c01007de:	8b 45 cc             	mov    -0x34(%ebp),%eax
c01007e1:	83 ee 01             	sub    $0x1,%esi
c01007e4:	83 e1 20             	and    $0x20,%ecx
c01007e7:	89 55 d8             	mov    %edx,-0x28(%ebp)
c01007ea:	83 c1 45             	add    $0x45,%ecx
c01007ed:	51                   	push   %ecx
c01007ee:	ff d0                	call   *%eax
c01007f0:	8b 5d c0             	mov    -0x40(%ebp),%ebx
c01007f3:	89 fa                	mov    %edi,%edx
c01007f5:	8b 7d cc             	mov    -0x34(%ebp),%edi
c01007f8:	8b 4d d8             	mov    -0x28(%ebp),%ecx
c01007fb:	89 d8                	mov    %ebx,%eax
c01007fd:	83 c4 0c             	add    $0xc,%esp
c0100800:	c1 e8 1f             	shr    $0x1f,%eax
c0100803:	6a 05                	push   $0x5
c0100805:	56                   	push   %esi
c0100806:	6a 00                	push   $0x0
c0100808:	6a 0a                	push   $0xa
c010080a:	50                   	push   %eax
c010080b:	89 d8                	mov    %ebx,%eax
c010080d:	f7 d8                	neg    %eax
c010080f:	0f 48 c3             	cmovs  %ebx,%eax
c0100812:	50                   	push   %eax
c0100813:	89 f8                	mov    %edi,%eax
c0100815:	ff 75 e0             	push   -0x20(%ebp)
c0100818:	e8 b3 fb ff ff       	call   c01003d0 <_ntoa_long>
c010081d:	83 c4 20             	add    $0x20,%esp
c0100820:	80 7d ac 00          	cmpb   $0x0,-0x54(%ebp)
c0100824:	74 37                	je     c010085d <_etoa+0x2cd>
c0100826:	89 c3                	mov    %eax,%ebx
c0100828:	2b 5d c8             	sub    -0x38(%ebp),%ebx
c010082b:	39 5d d4             	cmp    %ebx,-0x2c(%ebp)
c010082e:	76 2d                	jbe    c010085d <_etoa+0x2cd>
c0100830:	89 c6                	mov    %eax,%esi
c0100832:	8d b4 26 00 00 00 00 	lea    0x0(%esi,%eiz,1),%esi
c0100839:	8d b4 26 00 00 00 00 	lea    0x0(%esi,%eiz,1),%esi
c0100840:	89 f1                	mov    %esi,%ecx
c0100842:	ff 75 e0             	push   -0x20(%ebp)
c0100845:	83 c6 01             	add    $0x1,%esi
c0100848:	83 c3 01             	add    $0x1,%ebx
c010084b:	51                   	push   %ecx
c010084c:	ff 75 d0             	push   -0x30(%ebp)
c010084f:	6a 20                	push   $0x20
c0100851:	ff d7                	call   *%edi
c0100853:	83 c4 10             	add    $0x10,%esp
c0100856:	39 5d d4             	cmp    %ebx,-0x2c(%ebp)
c0100859:	77 e5                	ja     c0100840 <_etoa+0x2b0>
c010085b:	89 f0                	mov    %esi,%eax
c010085d:	8d 65 f4             	lea    -0xc(%ebp),%esp
c0100860:	5b                   	pop    %ebx
c0100861:	5e                   	pop    %esi
c0100862:	5f                   	pop    %edi
c0100863:	5d                   	pop    %ebp
c0100864:	c3                   	ret    
c0100865:	8d b4 26 00 00 00 00 	lea    0x0(%esi,%eiz,1),%esi
c010086c:	8d 74 26 00          	lea    0x0(%esi,%eiz,1),%esi
c0100870:	8b 45 d4             	mov    -0x2c(%ebp),%eax
c0100873:	89 5d 1c             	mov    %ebx,0x1c(%ebp)
c0100876:	89 55 14             	mov    %edx,0x14(%ebp)
c0100879:	89 45 18             	mov    %eax,0x18(%ebp)
c010087c:	dd 5d 0c             	fstpl  0xc(%ebp)
c010087f:	8b 45 e0             	mov    -0x20(%ebp),%eax
c0100882:	8b 4d c8             	mov    -0x38(%ebp),%ecx
c0100885:	8b 55 d0             	mov    -0x30(%ebp),%edx
c0100888:	89 45 08             	mov    %eax,0x8(%ebp)
c010088b:	8b 45 cc             	mov    -0x34(%ebp),%eax
c010088e:	8d 65 f4             	lea    -0xc(%ebp),%esp
c0100891:	5b                   	pop    %ebx
c0100892:	5e                   	pop    %esi
c0100893:	5f                   	pop    %edi
c0100894:	5d                   	pop    %ebp
c0100895:	e9 b6 00 00 00       	jmp    c0100950 <_ftoa>
c010089a:	8d b6 00 00 00 00    	lea    0x0(%esi),%esi
c01008a0:	dc 7d b8             	fdivrl -0x48(%ebp)
c01008a3:	83 6d c0 01          	subl   $0x1,-0x40(%ebp)
c01008a7:	dd 5d b0             	fstpl  -0x50(%ebp)
c01008aa:	e9 48 fe ff ff       	jmp    c01006f7 <_etoa+0x167>
c01008af:	c6 45 ac 00          	movb   $0x0,-0x54(%ebp)
c01008b3:	89 f3                	mov    %esi,%ebx
c01008b5:	31 c0                	xor    %eax,%eax
c01008b7:	31 f6                	xor    %esi,%esi
c01008b9:	c6 45 b8 00          	movb   $0x0,-0x48(%ebp)
c01008bd:	c7 45 c0 00 00 00 00 	movl   $0x0,-0x40(%ebp)
c01008c4:	8d b4 26 00 00 00 00 	lea    0x0(%esi,%eiz,1),%esi
c01008cb:	8d 74 26 00          	lea    0x0(%esi,%eiz,1),%esi
c01008cf:	90                   	nop
c01008d0:	dd 45 d8             	fldl   -0x28(%ebp)
c01008d3:	d9 e0                	fchs   
c01008d5:	dd 5d d8             	fstpl  -0x28(%ebp)
c01008d8:	e9 c5 fe ff ff       	jmp    c01007a2 <_etoa+0x212>
c01008dd:	8d 76 00             	lea    0x0(%esi),%esi
c01008e0:	29 f8                	sub    %edi,%eax
c01008e2:	31 c9                	xor    %ecx,%ecx
c01008e4:	89 de                	mov    %ebx,%esi
c01008e6:	83 e8 01             	sub    $0x1,%eax
c01008e9:	39 fa                	cmp    %edi,%edx
c01008eb:	8b 7d d4             	mov    -0x2c(%ebp),%edi
c01008ee:	89 ca                	mov    %ecx,%edx
c01008f0:	0f 4f d0             	cmovg  %eax,%edx
c01008f3:	81 ce 00 04 00 00    	or     $0x400,%esi
c01008f9:	85 ff                	test   %edi,%edi
c01008fb:	75 33                	jne    c0100930 <_etoa+0x3a0>
c01008fd:	80 e7 f7             	and    $0xf7,%bh
c0100900:	d9 ee                	fldz   
c0100902:	89 d9                	mov    %ebx,%ecx
c0100904:	80 cd 04             	or     $0x4,%ch
c0100907:	df f1                	fcomip %st(1),%st
c0100909:	dd d8                	fstp   %st(0)
c010090b:	77 a2                	ja     c01008af <_etoa+0x31f>
c010090d:	dd 45 d8             	fldl   -0x28(%ebp)
c0100910:	89 4d 1c             	mov    %ecx,0x1c(%ebp)
c0100913:	c7 45 18 00 00 00 00 	movl   $0x0,0x18(%ebp)
c010091a:	89 55 14             	mov    %edx,0x14(%ebp)
c010091d:	dd 5d 0c             	fstpl  0xc(%ebp)
c0100920:	e9 5a ff ff ff       	jmp    c010087f <_etoa+0x2ef>
c0100925:	8d b4 26 00 00 00 00 	lea    0x0(%esi,%eiz,1),%esi
c010092c:	8d 74 26 00          	lea    0x0(%esi,%eiz,1),%esi
c0100930:	89 f3                	mov    %esi,%ebx
c0100932:	c7 45 c0 00 00 00 00 	movl   $0x0,-0x40(%ebp)
c0100939:	8b 45 d4             	mov    -0x2c(%ebp),%eax
c010093c:	31 f6                	xor    %esi,%esi
c010093e:	c6 45 b8 00          	movb   $0x0,-0x48(%ebp)
c0100942:	c6 45 ac 00          	movb   $0x0,-0x54(%ebp)
c0100946:	e9 46 fe ff ff       	jmp    c0100791 <_etoa+0x201>
c010094b:	8d 74 26 00          	lea    0x0(%esi,%eiz,1),%esi
c010094f:	90                   	nop

c0100950 <_ftoa>:
c0100950:	55                   	push   %ebp
c0100951:	89 e5                	mov    %esp,%ebp
c0100953:	57                   	push   %edi
c0100954:	56                   	push   %esi
c0100955:	53                   	push   %ebx
c0100956:	83 ec 5c             	sub    $0x5c,%esp
c0100959:	dd 45 0c             	fldl   0xc(%ebp)
c010095c:	8b 7d 14             	mov    0x14(%ebp),%edi
c010095f:	89 45 b8             	mov    %eax,-0x48(%ebp)
c0100962:	8b 45 08             	mov    0x8(%ebp),%eax
c0100965:	89 55 b4             	mov    %edx,-0x4c(%ebp)
c0100968:	89 4d b0             	mov    %ecx,-0x50(%ebp)
c010096b:	89 45 ac             	mov    %eax,-0x54(%ebp)
c010096e:	8b 45 18             	mov    0x18(%ebp),%eax
c0100971:	db e8                	fucomi %st(0),%st
c0100973:	89 45 bc             	mov    %eax,-0x44(%ebp)
c0100976:	8b 45 1c             	mov    0x1c(%ebp),%eax
c0100979:	89 45 c0             	mov    %eax,-0x40(%ebp)
c010097c:	0f 8a de 01 00 00    	jp     c0100b60 <_ftoa+0x210>
c0100982:	dd 05 48 77 10 c0    	fldl   0xc0107748
c0100988:	df f1                	fcomip %st(1),%st
c010098a:	0f 87 40 02 00 00    	ja     c0100bd0 <_ftoa+0x280>
c0100990:	dd 05 40 77 10 c0    	fldl   0xc0107740
c0100996:	d9 c9                	fxch   %st(1)
c0100998:	db f1                	fcomi  %st(1),%st
c010099a:	dd d9                	fstp   %st(1)
c010099c:	0f 87 6e 01 00 00    	ja     c0100b10 <_ftoa+0x1c0>
c01009a2:	d9 05 a8 77 10 c0    	flds   0xc01077a8
c01009a8:	d9 c9                	fxch   %st(1)
c01009aa:	db f1                	fcomi  %st(1),%st
c01009ac:	dd d9                	fstp   %st(1)
c01009ae:	0f 87 ec 01 00 00    	ja     c0100ba0 <_ftoa+0x250>
c01009b4:	d9 05 ac 77 10 c0    	flds   0xc01077ac
c01009ba:	df f1                	fcomip %st(1),%st
c01009bc:	0f 87 de 01 00 00    	ja     c0100ba0 <_ftoa+0x250>
c01009c2:	d9 ee                	fldz   
c01009c4:	db f1                	fcomi  %st(1),%st
c01009c6:	0f 87 c4 01 00 00    	ja     c0100b90 <_ftoa+0x240>
c01009cc:	dd d8                	fstp   %st(0)
c01009ce:	c6 45 ab 00          	movb   $0x0,-0x55(%ebp)
c01009d2:	8b 4d c0             	mov    -0x40(%ebp),%ecx
c01009d5:	81 e1 00 04 00 00    	and    $0x400,%ecx
c01009db:	0f 84 ff 02 00 00    	je     c0100ce0 <_ftoa+0x390>
c01009e1:	31 c9                	xor    %ecx,%ecx
c01009e3:	8d 45 c7             	lea    -0x39(%ebp),%eax
c01009e6:	83 ff 09             	cmp    $0x9,%edi
c01009e9:	0f 86 14 04 00 00    	jbe    c0100e03 <_ftoa+0x4b3>
c01009ef:	90                   	nop
c01009f0:	83 c1 01             	add    $0x1,%ecx
c01009f3:	83 ef 01             	sub    $0x1,%edi
c01009f6:	c6 04 08 30          	movb   $0x30,(%eax,%ecx,1)
c01009fa:	83 f9 1f             	cmp    $0x1f,%ecx
c01009fd:	77 05                	ja     c0100a04 <_ftoa+0xb4>
c01009ff:	83 ff 09             	cmp    $0x9,%edi
c0100a02:	77 ec                	ja     c01009f0 <_ftoa+0xa0>
c0100a04:	d9 05 a8 77 10 c0    	flds   0xc01077a8
c0100a0a:	d9 c9                	fxch   %st(1)
c0100a0c:	d9 7d c6             	fnstcw -0x3a(%ebp)
c0100a0f:	0f b7 45 c6          	movzwl -0x3a(%ebp),%eax
c0100a13:	80 cc 0c             	or     $0xc,%ah
c0100a16:	66 89 45 c4          	mov    %ax,-0x3c(%ebp)
c0100a1a:	d9 6d c4             	fldcw  -0x3c(%ebp)
c0100a1d:	db 55 a0             	fistl  -0x60(%ebp)
c0100a20:	d9 6d c6             	fldcw  -0x3a(%ebp)
c0100a23:	db 45 a0             	fildl  -0x60(%ebp)
c0100a26:	8b 75 a0             	mov    -0x60(%ebp),%esi
c0100a29:	d8 e9                	fsubr  %st(1),%st
c0100a2b:	d8 ca                	fmul   %st(2),%st
c0100a2d:	d9 c0                	fld    %st(0)
c0100a2f:	d9 6d c4             	fldcw  -0x3c(%ebp)
c0100a32:	df 7d a0             	fistpll -0x60(%ebp)
c0100a35:	d9 6d c6             	fldcw  -0x3a(%ebp)
c0100a38:	c7 45 a4 00 00 00 00 	movl   $0x0,-0x5c(%ebp)
c0100a3f:	df 6d a0             	fildll -0x60(%ebp)
c0100a42:	8b 5d a0             	mov    -0x60(%ebp),%ebx
c0100a45:	de e9                	fsubrp %st,%st(1)
c0100a47:	d9 05 8c 77 10 c0    	flds   0xc010778c
c0100a4d:	d9 c9                	fxch   %st(1)
c0100a4f:	db f1                	fcomi  %st(1),%st
c0100a51:	0f 86 59 02 00 00    	jbe    c0100cb0 <_ftoa+0x360>
c0100a57:	dd d8                	fstp   %st(0)
c0100a59:	dd d8                	fstp   %st(0)
c0100a5b:	83 c3 01             	add    $0x1,%ebx
c0100a5e:	c7 45 a4 00 00 00 00 	movl   $0x0,-0x5c(%ebp)
c0100a65:	89 5d a0             	mov    %ebx,-0x60(%ebp)
c0100a68:	df 6d a0             	fildll -0x60(%ebp)
c0100a6b:	df f2                	fcomip %st(2),%st
c0100a6d:	dd d9                	fstp   %st(1)
c0100a6f:	72 05                	jb     c0100a76 <_ftoa+0x126>
c0100a71:	83 c6 01             	add    $0x1,%esi
c0100a74:	31 db                	xor    %ebx,%ebx
c0100a76:	85 ff                	test   %edi,%edi
c0100a78:	0f 84 82 01 00 00    	je     c0100c00 <_ftoa+0x2b0>
c0100a7e:	dd d8                	fstp   %st(0)
c0100a80:	89 75 9c             	mov    %esi,-0x64(%ebp)
c0100a83:	eb 3c                	jmp    c0100ac1 <_ftoa+0x171>
c0100a85:	8d b4 26 00 00 00 00 	lea    0x0(%esi,%eiz,1),%esi
c0100a8c:	8d 74 26 00          	lea    0x0(%esi,%eiz,1),%esi
c0100a90:	8d 47 ff             	lea    -0x1(%edi),%eax
c0100a93:	83 c1 01             	add    $0x1,%ecx
c0100a96:	89 45 a0             	mov    %eax,-0x60(%ebp)
c0100a99:	b8 cd cc cc cc       	mov    $0xcccccccd,%eax
c0100a9e:	f7 e3                	mul    %ebx
c0100aa0:	89 d8                	mov    %ebx,%eax
c0100aa2:	c1 ea 03             	shr    $0x3,%edx
c0100aa5:	8d 34 92             	lea    (%edx,%edx,4),%esi
c0100aa8:	01 f6                	add    %esi,%esi
c0100aaa:	29 f0                	sub    %esi,%eax
c0100aac:	83 c0 30             	add    $0x30,%eax
c0100aaf:	88 44 0d c7          	mov    %al,-0x39(%ebp,%ecx,1)
c0100ab3:	83 fb 09             	cmp    $0x9,%ebx
c0100ab6:	0f 86 64 02 00 00    	jbe    c0100d20 <_ftoa+0x3d0>
c0100abc:	8b 7d a0             	mov    -0x60(%ebp),%edi
c0100abf:	89 d3                	mov    %edx,%ebx
c0100ac1:	83 f9 20             	cmp    $0x20,%ecx
c0100ac4:	75 ca                	jne    c0100a90 <_ftoa+0x140>
c0100ac6:	8b 45 c0             	mov    -0x40(%ebp),%eax
c0100ac9:	83 e0 03             	and    $0x3,%eax
c0100acc:	83 f8 01             	cmp    $0x1,%eax
c0100acf:	0f 84 bb 02 00 00    	je     c0100d90 <_ftoa+0x440>
c0100ad5:	b8 20 00 00 00       	mov    $0x20,%eax
c0100ada:	83 ec 0c             	sub    $0xc,%esp
c0100add:	8b 4d b0             	mov    -0x50(%ebp),%ecx
c0100ae0:	8b 55 b4             	mov    -0x4c(%ebp),%edx
c0100ae3:	ff 75 c0             	push   -0x40(%ebp)
c0100ae6:	ff 75 bc             	push   -0x44(%ebp)
c0100ae9:	50                   	push   %eax
c0100aea:	8d 45 c8             	lea    -0x38(%ebp),%eax
c0100aed:	50                   	push   %eax
c0100aee:	8b 45 b8             	mov    -0x48(%ebp),%eax
c0100af1:	ff 75 ac             	push   -0x54(%ebp)
c0100af4:	e8 67 f5 ff ff       	call   c0100060 <_out_rev>
c0100af9:	83 c4 20             	add    $0x20,%esp
c0100afc:	8d 65 f4             	lea    -0xc(%ebp),%esp
c0100aff:	5b                   	pop    %ebx
c0100b00:	5e                   	pop    %esi
c0100b01:	5f                   	pop    %edi
c0100b02:	5d                   	pop    %ebp
c0100b03:	c3                   	ret    
c0100b04:	8d b4 26 00 00 00 00 	lea    0x0(%esi,%eiz,1),%esi
c0100b0b:	8d 74 26 00          	lea    0x0(%esi,%eiz,1),%esi
c0100b0f:	90                   	nop
c0100b10:	dd d8                	fstp   %st(0)
c0100b12:	8b 5d c0             	mov    -0x40(%ebp),%ebx
c0100b15:	b9 ab 74 10 c0       	mov    $0xc01074ab,%ecx
c0100b1a:	89 d8                	mov    %ebx,%eax
c0100b1c:	89 5d 18             	mov    %ebx,0x18(%ebp)
c0100b1f:	8b 5d bc             	mov    -0x44(%ebp),%ebx
c0100b22:	83 e0 04             	and    $0x4,%eax
c0100b25:	83 f8 01             	cmp    $0x1,%eax
c0100b28:	89 5d 14             	mov    %ebx,0x14(%ebp)
c0100b2b:	19 d2                	sbb    %edx,%edx
c0100b2d:	83 c2 04             	add    $0x4,%edx
c0100b30:	85 c0                	test   %eax,%eax
c0100b32:	b8 a6 74 10 c0       	mov    $0xc01074a6,%eax
c0100b37:	0f 44 c1             	cmove  %ecx,%eax
c0100b3a:	89 55 10             	mov    %edx,0x10(%ebp)
c0100b3d:	89 45 0c             	mov    %eax,0xc(%ebp)
c0100b40:	8b 45 ac             	mov    -0x54(%ebp),%eax
c0100b43:	8b 4d b0             	mov    -0x50(%ebp),%ecx
c0100b46:	8b 55 b4             	mov    -0x4c(%ebp),%edx
c0100b49:	89 45 08             	mov    %eax,0x8(%ebp)
c0100b4c:	8b 45 b8             	mov    -0x48(%ebp),%eax
c0100b4f:	8d 65 f4             	lea    -0xc(%ebp),%esp
c0100b52:	5b                   	pop    %ebx
c0100b53:	5e                   	pop    %esi
c0100b54:	5f                   	pop    %edi
c0100b55:	5d                   	pop    %ebp
c0100b56:	e9 05 f5 ff ff       	jmp    c0100060 <_out_rev>
c0100b5b:	8d 74 26 00          	lea    0x0(%esi,%eiz,1),%esi
c0100b5f:	90                   	nop
c0100b60:	dd d8                	fstp   %st(0)
c0100b62:	89 45 18             	mov    %eax,0x18(%ebp)
c0100b65:	8b 45 bc             	mov    -0x44(%ebp),%eax
c0100b68:	c7 45 10 03 00 00 00 	movl   $0x3,0x10(%ebp)
c0100b6f:	89 45 14             	mov    %eax,0x14(%ebp)
c0100b72:	8b 45 b8             	mov    -0x48(%ebp),%eax
c0100b75:	c7 45 0c af 74 10 c0 	movl   $0xc01074af,0xc(%ebp)
c0100b7c:	8d 65 f4             	lea    -0xc(%ebp),%esp
c0100b7f:	5b                   	pop    %ebx
c0100b80:	5e                   	pop    %esi
c0100b81:	5f                   	pop    %edi
c0100b82:	5d                   	pop    %ebp
c0100b83:	e9 d8 f4 ff ff       	jmp    c0100060 <_out_rev>
c0100b88:	8d b4 26 00 00 00 00 	lea    0x0(%esi,%eiz,1),%esi
c0100b8f:	90                   	nop
c0100b90:	de e1                	fsubp  %st,%st(1)
c0100b92:	c6 45 ab 01          	movb   $0x1,-0x55(%ebp)
c0100b96:	e9 37 fe ff ff       	jmp    c01009d2 <_ftoa+0x82>
c0100b9b:	8d 74 26 00          	lea    0x0(%esi,%eiz,1),%esi
c0100b9f:	90                   	nop
c0100ba0:	8b 45 c0             	mov    -0x40(%ebp),%eax
c0100ba3:	8b 4d b0             	mov    -0x50(%ebp),%ecx
c0100ba6:	89 7d 14             	mov    %edi,0x14(%ebp)
c0100ba9:	8b 55 b4             	mov    -0x4c(%ebp),%edx
c0100bac:	dd 5d 0c             	fstpl  0xc(%ebp)
c0100baf:	89 45 1c             	mov    %eax,0x1c(%ebp)
c0100bb2:	8b 45 bc             	mov    -0x44(%ebp),%eax
c0100bb5:	89 45 18             	mov    %eax,0x18(%ebp)
c0100bb8:	8b 45 ac             	mov    -0x54(%ebp),%eax
c0100bbb:	89 45 08             	mov    %eax,0x8(%ebp)
c0100bbe:	8b 45 b8             	mov    -0x48(%ebp),%eax
c0100bc1:	8d 65 f4             	lea    -0xc(%ebp),%esp
c0100bc4:	5b                   	pop    %ebx
c0100bc5:	5e                   	pop    %esi
c0100bc6:	5f                   	pop    %edi
c0100bc7:	5d                   	pop    %ebp
c0100bc8:	e9 c3 f9 ff ff       	jmp    c0100590 <_etoa>
c0100bcd:	8d 76 00             	lea    0x0(%esi),%esi
c0100bd0:	dd d8                	fstp   %st(0)
c0100bd2:	8b 45 c0             	mov    -0x40(%ebp),%eax
c0100bd5:	c7 45 10 04 00 00 00 	movl   $0x4,0x10(%ebp)
c0100bdc:	c7 45 0c b3 74 10 c0 	movl   $0xc01074b3,0xc(%ebp)
c0100be3:	89 45 18             	mov    %eax,0x18(%ebp)
c0100be6:	8b 45 bc             	mov    -0x44(%ebp),%eax
c0100be9:	89 45 14             	mov    %eax,0x14(%ebp)
c0100bec:	e9 4f ff ff ff       	jmp    c0100b40 <_ftoa+0x1f0>
c0100bf1:	8d b4 26 00 00 00 00 	lea    0x0(%esi,%eiz,1),%esi
c0100bf8:	8d b4 26 00 00 00 00 	lea    0x0(%esi,%eiz,1),%esi
c0100bff:	90                   	nop
c0100c00:	89 75 a0             	mov    %esi,-0x60(%ebp)
c0100c03:	db 45 a0             	fildl  -0x60(%ebp)
c0100c06:	de e9                	fsubrp %st,%st(1)
c0100c08:	d9 05 8c 77 10 c0    	flds   0xc010778c
c0100c0e:	db f1                	fcomi  %st(1),%st
c0100c10:	76 7e                	jbe    c0100c90 <_ftoa+0x340>
c0100c12:	d9 c9                	fxch   %st(1)
c0100c14:	df f1                	fcomip %st(1),%st
c0100c16:	dd d8                	fstp   %st(0)
c0100c18:	77 7a                	ja     c0100c94 <_ftoa+0x344>
c0100c1a:	8d b6 00 00 00 00    	lea    0x0(%esi),%esi
c0100c20:	bb 67 66 66 66       	mov    $0x66666667,%ebx
c0100c25:	8d b4 26 00 00 00 00 	lea    0x0(%esi,%eiz,1),%esi
c0100c2c:	8d 74 26 00          	lea    0x0(%esi,%eiz,1),%esi
c0100c30:	83 f9 20             	cmp    $0x20,%ecx
c0100c33:	0f 84 8d fe ff ff    	je     c0100ac6 <_ftoa+0x176>
c0100c39:	89 f0                	mov    %esi,%eax
c0100c3b:	83 c1 01             	add    $0x1,%ecx
c0100c3e:	f7 eb                	imul   %ebx
c0100c40:	89 f0                	mov    %esi,%eax
c0100c42:	c1 f8 1f             	sar    $0x1f,%eax
c0100c45:	c1 fa 02             	sar    $0x2,%edx
c0100c48:	29 c2                	sub    %eax,%edx
c0100c4a:	8d 04 92             	lea    (%edx,%edx,4),%eax
c0100c4d:	01 c0                	add    %eax,%eax
c0100c4f:	29 c6                	sub    %eax,%esi
c0100c51:	8d 46 30             	lea    0x30(%esi),%eax
c0100c54:	89 d6                	mov    %edx,%esi
c0100c56:	88 44 0d c7          	mov    %al,-0x39(%ebp,%ecx,1)
c0100c5a:	85 d2                	test   %edx,%edx
c0100c5c:	75 d2                	jne    c0100c30 <_ftoa+0x2e0>
c0100c5e:	8b 45 c0             	mov    -0x40(%ebp),%eax
c0100c61:	83 e0 03             	and    $0x3,%eax
c0100c64:	83 f8 01             	cmp    $0x1,%eax
c0100c67:	0f 84 83 01 00 00    	je     c0100df0 <_ftoa+0x4a0>
c0100c6d:	83 f9 20             	cmp    $0x20,%ecx
c0100c70:	0f 84 5f fe ff ff    	je     c0100ad5 <_ftoa+0x185>
c0100c76:	80 7d ab 00          	cmpb   $0x0,-0x55(%ebp)
c0100c7a:	0f 84 80 00 00 00    	je     c0100d00 <_ftoa+0x3b0>
c0100c80:	c6 44 0d c8 2d       	movb   $0x2d,-0x38(%ebp,%ecx,1)
c0100c85:	8d 41 01             	lea    0x1(%ecx),%eax
c0100c88:	e9 4d fe ff ff       	jmp    c0100ada <_ftoa+0x18a>
c0100c8d:	8d 76 00             	lea    0x0(%esi),%esi
c0100c90:	dd d8                	fstp   %st(0)
c0100c92:	dd d8                	fstp   %st(0)
c0100c94:	89 f0                	mov    %esi,%eax
c0100c96:	83 e0 01             	and    $0x1,%eax
c0100c99:	83 f8 01             	cmp    $0x1,%eax
c0100c9c:	83 de ff             	sbb    $0xffffffff,%esi
c0100c9f:	e9 7c ff ff ff       	jmp    c0100c20 <_ftoa+0x2d0>
c0100ca4:	8d b4 26 00 00 00 00 	lea    0x0(%esi,%eiz,1),%esi
c0100cab:	8d 74 26 00          	lea    0x0(%esi,%eiz,1),%esi
c0100caf:	90                   	nop
c0100cb0:	dd db                	fstp   %st(3)
c0100cb2:	d9 c9                	fxch   %st(1)
c0100cb4:	d9 ca                	fxch   %st(2)
c0100cb6:	d9 c9                	fxch   %st(1)
c0100cb8:	df f1                	fcomip %st(1),%st
c0100cba:	dd d8                	fstp   %st(0)
c0100cbc:	0f 87 b4 fd ff ff    	ja     c0100a76 <_ftoa+0x126>
c0100cc2:	85 db                	test   %ebx,%ebx
c0100cc4:	0f 85 b6 00 00 00    	jne    c0100d80 <_ftoa+0x430>
c0100cca:	83 c3 01             	add    $0x1,%ebx
c0100ccd:	e9 a4 fd ff ff       	jmp    c0100a76 <_ftoa+0x126>
c0100cd2:	8d b4 26 00 00 00 00 	lea    0x0(%esi,%eiz,1),%esi
c0100cd9:	8d b4 26 00 00 00 00 	lea    0x0(%esi,%eiz,1),%esi
c0100ce0:	d9 05 a4 77 10 c0    	flds   0xc01077a4
c0100ce6:	d9 c9                	fxch   %st(1)
c0100ce8:	bf 06 00 00 00       	mov    $0x6,%edi
c0100ced:	e9 1a fd ff ff       	jmp    c0100a0c <_ftoa+0xbc>
c0100cf2:	8d b4 26 00 00 00 00 	lea    0x0(%esi,%eiz,1),%esi
c0100cf9:	8d b4 26 00 00 00 00 	lea    0x0(%esi,%eiz,1),%esi
c0100d00:	f6 45 c0 04          	testb  $0x4,-0x40(%ebp)
c0100d04:	75 6a                	jne    c0100d70 <_ftoa+0x420>
c0100d06:	89 c8                	mov    %ecx,%eax
c0100d08:	f6 45 c0 08          	testb  $0x8,-0x40(%ebp)
c0100d0c:	0f 84 c8 fd ff ff    	je     c0100ada <_ftoa+0x18a>
c0100d12:	c6 44 0d c8 20       	movb   $0x20,-0x38(%ebp,%ecx,1)
c0100d17:	83 c0 01             	add    $0x1,%eax
c0100d1a:	e9 bb fd ff ff       	jmp    c0100ada <_ftoa+0x18a>
c0100d1f:	90                   	nop
c0100d20:	8b 75 9c             	mov    -0x64(%ebp),%esi
c0100d23:	83 f9 20             	cmp    $0x20,%ecx
c0100d26:	0f 84 9a fd ff ff    	je     c0100ac6 <_ftoa+0x176>
c0100d2c:	8b 5d a0             	mov    -0x60(%ebp),%ebx
c0100d2f:	89 c8                	mov    %ecx,%eax
c0100d31:	85 db                	test   %ebx,%ebx
c0100d33:	74 28                	je     c0100d5d <_ftoa+0x40d>
c0100d35:	8d b4 26 00 00 00 00 	lea    0x0(%esi,%eiz,1),%esi
c0100d3c:	8d 74 26 00          	lea    0x0(%esi,%eiz,1),%esi
c0100d40:	83 c0 01             	add    $0x1,%eax
c0100d43:	c6 44 05 c7 30       	movb   $0x30,-0x39(%ebp,%eax,1)
c0100d48:	83 f8 20             	cmp    $0x20,%eax
c0100d4b:	0f 84 75 fd ff ff    	je     c0100ac6 <_ftoa+0x176>
c0100d51:	89 fa                	mov    %edi,%edx
c0100d53:	29 c2                	sub    %eax,%edx
c0100d55:	8d 54 11 ff          	lea    -0x1(%ecx,%edx,1),%edx
c0100d59:	85 d2                	test   %edx,%edx
c0100d5b:	75 e3                	jne    c0100d40 <_ftoa+0x3f0>
c0100d5d:	c6 44 05 c8 2e       	movb   $0x2e,-0x38(%ebp,%eax,1)
c0100d62:	8d 48 01             	lea    0x1(%eax),%ecx
c0100d65:	e9 b6 fe ff ff       	jmp    c0100c20 <_ftoa+0x2d0>
c0100d6a:	8d b6 00 00 00 00    	lea    0x0(%esi),%esi
c0100d70:	c6 44 0d c8 2b       	movb   $0x2b,-0x38(%ebp,%ecx,1)
c0100d75:	8d 41 01             	lea    0x1(%ecx),%eax
c0100d78:	e9 5d fd ff ff       	jmp    c0100ada <_ftoa+0x18a>
c0100d7d:	8d 76 00             	lea    0x0(%esi),%esi
c0100d80:	f6 c3 01             	test   $0x1,%bl
c0100d83:	0f 84 ed fc ff ff    	je     c0100a76 <_ftoa+0x126>
c0100d89:	e9 3c ff ff ff       	jmp    c0100cca <_ftoa+0x37a>
c0100d8e:	66 90                	xchg   %ax,%ax
c0100d90:	8b 45 bc             	mov    -0x44(%ebp),%eax
c0100d93:	85 c0                	test   %eax,%eax
c0100d95:	0f 84 3a fd ff ff    	je     c0100ad5 <_ftoa+0x185>
c0100d9b:	31 d2                	xor    %edx,%edx
c0100d9d:	b9 20 00 00 00       	mov    $0x20,%ecx
c0100da2:	80 7d ab 00          	cmpb   $0x0,-0x55(%ebp)
c0100da6:	75 06                	jne    c0100dae <_ftoa+0x45e>
c0100da8:	f6 45 c0 0c          	testb  $0xc,-0x40(%ebp)
c0100dac:	74 04                	je     c0100db2 <_ftoa+0x462>
c0100dae:	83 6d bc 01          	subl   $0x1,-0x44(%ebp)
c0100db2:	3b 4d bc             	cmp    -0x44(%ebp),%ecx
c0100db5:	0f 83 b2 fe ff ff    	jae    c0100c6d <_ftoa+0x31d>
c0100dbb:	8d 45 c7             	lea    -0x39(%ebp),%eax
c0100dbe:	84 d2                	test   %dl,%dl
c0100dc0:	0f 84 a7 fe ff ff    	je     c0100c6d <_ftoa+0x31d>
c0100dc6:	8b 55 bc             	mov    -0x44(%ebp),%edx
c0100dc9:	8d b4 26 00 00 00 00 	lea    0x0(%esi,%eiz,1),%esi
c0100dd0:	83 c1 01             	add    $0x1,%ecx
c0100dd3:	c6 04 08 30          	movb   $0x30,(%eax,%ecx,1)
c0100dd7:	39 d1                	cmp    %edx,%ecx
c0100dd9:	0f 83 8e fe ff ff    	jae    c0100c6d <_ftoa+0x31d>
c0100ddf:	83 f9 1f             	cmp    $0x1f,%ecx
c0100de2:	76 ec                	jbe    c0100dd0 <_ftoa+0x480>
c0100de4:	e9 84 fe ff ff       	jmp    c0100c6d <_ftoa+0x31d>
c0100de9:	8d b4 26 00 00 00 00 	lea    0x0(%esi,%eiz,1),%esi
c0100df0:	8b 55 bc             	mov    -0x44(%ebp),%edx
c0100df3:	85 d2                	test   %edx,%edx
c0100df5:	0f 84 72 fe ff ff    	je     c0100c6d <_ftoa+0x31d>
c0100dfb:	83 f9 1f             	cmp    $0x1f,%ecx
c0100dfe:	0f 96 c2             	setbe  %dl
c0100e01:	eb 9f                	jmp    c0100da2 <_ftoa+0x452>
c0100e03:	dd 04 fd a0 71 10 c0 	fldl   -0x3fef8e60(,%edi,8)
c0100e0a:	d9 c9                	fxch   %st(1)
c0100e0c:	e9 fb fb ff ff       	jmp    c0100a0c <_ftoa+0xbc>
c0100e11:	8d b4 26 00 00 00 00 	lea    0x0(%esi,%eiz,1),%esi
c0100e18:	8d b4 26 00 00 00 00 	lea    0x0(%esi,%eiz,1),%esi
c0100e1f:	90                   	nop

c0100e20 <_out_char>:
c0100e20:	55                   	push   %ebp
c0100e21:	89 e5                	mov    %esp,%ebp
c0100e23:	8b 45 08             	mov    0x8(%ebp),%eax
c0100e26:	84 c0                	test   %al,%al
c0100e28:	75 06                	jne    c0100e30 <_out_char+0x10>
c0100e2a:	5d                   	pop    %ebp
c0100e2b:	c3                   	ret    
c0100e2c:	8d 74 26 00          	lea    0x0(%esi,%eiz,1),%esi
c0100e30:	0f be c0             	movsbl %al,%eax
c0100e33:	89 45 08             	mov    %eax,0x8(%ebp)
c0100e36:	5d                   	pop    %ebp
c0100e37:	e9 94 54 00 00       	jmp    c01062d0 <term_put_char>
c0100e3c:	8d 74 26 00          	lea    0x0(%esi,%eiz,1),%esi

c0100e40 <_out_fct>:
c0100e40:	55                   	push   %ebp
c0100e41:	89 e5                	mov    %esp,%ebp
c0100e43:	8b 45 08             	mov    0x8(%ebp),%eax
c0100e46:	8b 55 0c             	mov    0xc(%ebp),%edx
c0100e49:	84 c0                	test   %al,%al
c0100e4b:	74 13                	je     c0100e60 <_out_fct+0x20>
c0100e4d:	8b 4a 04             	mov    0x4(%edx),%ecx
c0100e50:	0f be c0             	movsbl %al,%eax
c0100e53:	89 45 08             	mov    %eax,0x8(%ebp)
c0100e56:	89 4d 0c             	mov    %ecx,0xc(%ebp)
c0100e59:	5d                   	pop    %ebp
c0100e5a:	8b 02                	mov    (%edx),%eax
c0100e5c:	ff e0                	jmp    *%eax
c0100e5e:	66 90                	xchg   %ax,%ax
c0100e60:	5d                   	pop    %ebp
c0100e61:	c3                   	ret    
c0100e62:	8d b4 26 00 00 00 00 	lea    0x0(%esi,%eiz,1),%esi
c0100e69:	8d b4 26 00 00 00 00 	lea    0x0(%esi,%eiz,1),%esi

c0100e70 <_vsnprintf>:
c0100e70:	55                   	push   %ebp
c0100e71:	89 e5                	mov    %esp,%ebp
c0100e73:	57                   	push   %edi
c0100e74:	56                   	push   %esi
c0100e75:	53                   	push   %ebx
c0100e76:	83 ec 4c             	sub    $0x4c,%esp
c0100e79:	8b 5d 08             	mov    0x8(%ebp),%ebx
c0100e7c:	85 d2                	test   %edx,%edx
c0100e7e:	89 55 e0             	mov    %edx,-0x20(%ebp)
c0100e81:	ba 50 00 10 c0       	mov    $0xc0100050,%edx
c0100e86:	89 4d dc             	mov    %ecx,-0x24(%ebp)
c0100e89:	0f 45 d0             	cmovne %eax,%edx
c0100e8c:	0f be 03             	movsbl (%ebx),%eax
c0100e8f:	31 ff                	xor    %edi,%edi
c0100e91:	89 55 e4             	mov    %edx,-0x1c(%ebp)
c0100e94:	84 c0                	test   %al,%al
c0100e96:	75 28                	jne    c0100ec0 <_vsnprintf+0x50>
c0100e98:	e9 f3 06 00 00       	jmp    c0101590 <_vsnprintf+0x720>
c0100e9d:	8d 76 00             	lea    0x0(%esi),%esi
c0100ea0:	ff 75 dc             	push   -0x24(%ebp)
c0100ea3:	8d 77 01             	lea    0x1(%edi),%esi
c0100ea6:	57                   	push   %edi
c0100ea7:	89 f7                	mov    %esi,%edi
c0100ea9:	ff 75 e0             	push   -0x20(%ebp)
c0100eac:	50                   	push   %eax
c0100ead:	8b 45 e4             	mov    -0x1c(%ebp),%eax
c0100eb0:	ff d0                	call   *%eax
c0100eb2:	83 c4 10             	add    $0x10,%esp
c0100eb5:	0f be 03             	movsbl (%ebx),%eax
c0100eb8:	84 c0                	test   %al,%al
c0100eba:	0f 84 80 01 00 00    	je     c0101040 <_vsnprintf+0x1d0>
c0100ec0:	83 c3 01             	add    $0x1,%ebx
c0100ec3:	3c 25                	cmp    $0x25,%al
c0100ec5:	75 d9                	jne    c0100ea0 <_vsnprintf+0x30>
c0100ec7:	31 f6                	xor    %esi,%esi
c0100ec9:	8d b4 26 00 00 00 00 	lea    0x0(%esi,%eiz,1),%esi
c0100ed0:	0f be 03             	movsbl (%ebx),%eax
c0100ed3:	8d 53 01             	lea    0x1(%ebx),%edx
c0100ed6:	8d 48 e0             	lea    -0x20(%eax),%ecx
c0100ed9:	80 f9 10             	cmp    $0x10,%cl
c0100edc:	77 12                	ja     c0100ef0 <_vsnprintf+0x80>
c0100ede:	0f b6 c9             	movzbl %cl,%ecx
c0100ee1:	ff 24 8d 00 70 10 c0 	jmp    *-0x3fef9000(,%ecx,4)
c0100ee8:	8d b4 26 00 00 00 00 	lea    0x0(%esi,%eiz,1),%esi
c0100eef:	90                   	nop
c0100ef0:	8d 48 d0             	lea    -0x30(%eax),%ecx
c0100ef3:	80 f9 09             	cmp    $0x9,%cl
c0100ef6:	0f 86 a4 01 00 00    	jbe    c01010a0 <_vsnprintf+0x230>
c0100efc:	c7 45 d4 00 00 00 00 	movl   $0x0,-0x2c(%ebp)
c0100f03:	3c 2a                	cmp    $0x2a,%al
c0100f05:	0f 84 d5 01 00 00    	je     c01010e0 <_vsnprintf+0x270>
c0100f0b:	c7 45 d8 00 00 00 00 	movl   $0x0,-0x28(%ebp)
c0100f12:	3c 2e                	cmp    $0x2e,%al
c0100f14:	0f 84 56 01 00 00    	je     c0101070 <_vsnprintf+0x200>
c0100f1a:	8d 48 98             	lea    -0x68(%eax),%ecx
c0100f1d:	80 f9 12             	cmp    $0x12,%cl
c0100f20:	77 1b                	ja     c0100f3d <_vsnprintf+0xcd>
c0100f22:	0f b6 c9             	movzbl %cl,%ecx
c0100f25:	ff 24 8d 44 70 10 c0 	jmp    *-0x3fef8fbc(,%ecx,4)
c0100f2c:	8d 74 26 00          	lea    0x0(%esi,%eiz,1),%esi
c0100f30:	0f be 43 01          	movsbl 0x1(%ebx),%eax
c0100f34:	81 ce 00 01 00 00    	or     $0x100,%esi
c0100f3a:	83 c2 01             	add    $0x1,%edx
c0100f3d:	89 d3                	mov    %edx,%ebx
c0100f3f:	3c 67                	cmp    $0x67,%al
c0100f41:	7f 7d                	jg     c0100fc0 <_vsnprintf+0x150>
c0100f43:	3c 24                	cmp    $0x24,%al
c0100f45:	0f 8e 55 ff ff ff    	jle    c0100ea0 <_vsnprintf+0x30>
c0100f4b:	8d 50 db             	lea    -0x25(%eax),%edx
c0100f4e:	80 fa 42             	cmp    $0x42,%dl
c0100f51:	0f 87 49 ff ff ff    	ja     c0100ea0 <_vsnprintf+0x30>
c0100f57:	0f b6 d2             	movzbl %dl,%edx
c0100f5a:	ff 24 95 90 70 10 c0 	jmp    *-0x3fef8f70(,%edx,4)
c0100f61:	8d b4 26 00 00 00 00 	lea    0x0(%esi,%eiz,1),%esi
c0100f68:	8d b4 26 00 00 00 00 	lea    0x0(%esi,%eiz,1),%esi
c0100f6f:	90                   	nop
c0100f70:	83 ce 01             	or     $0x1,%esi
c0100f73:	89 d3                	mov    %edx,%ebx
c0100f75:	e9 56 ff ff ff       	jmp    c0100ed0 <_vsnprintf+0x60>
c0100f7a:	8d b6 00 00 00 00    	lea    0x0(%esi),%esi
c0100f80:	83 ce 02             	or     $0x2,%esi
c0100f83:	89 d3                	mov    %edx,%ebx
c0100f85:	e9 46 ff ff ff       	jmp    c0100ed0 <_vsnprintf+0x60>
c0100f8a:	8d b6 00 00 00 00    	lea    0x0(%esi),%esi
c0100f90:	83 ce 04             	or     $0x4,%esi
c0100f93:	89 d3                	mov    %edx,%ebx
c0100f95:	e9 36 ff ff ff       	jmp    c0100ed0 <_vsnprintf+0x60>
c0100f9a:	8d b6 00 00 00 00    	lea    0x0(%esi),%esi
c0100fa0:	83 ce 10             	or     $0x10,%esi
c0100fa3:	89 d3                	mov    %edx,%ebx
c0100fa5:	e9 26 ff ff ff       	jmp    c0100ed0 <_vsnprintf+0x60>
c0100faa:	8d b6 00 00 00 00    	lea    0x0(%esi),%esi
c0100fb0:	83 ce 08             	or     $0x8,%esi
c0100fb3:	89 d3                	mov    %edx,%ebx
c0100fb5:	e9 16 ff ff ff       	jmp    c0100ed0 <_vsnprintf+0x60>
c0100fba:	8d b6 00 00 00 00    	lea    0x0(%esi),%esi
c0100fc0:	8d 48 97             	lea    -0x69(%eax),%ecx
c0100fc3:	80 f9 0f             	cmp    $0xf,%cl
c0100fc6:	0f 87 d4 fe ff ff    	ja     c0100ea0 <_vsnprintf+0x30>
c0100fcc:	ba 01 00 00 00       	mov    $0x1,%edx
c0100fd1:	d3 e2                	shl    %cl,%edx
c0100fd3:	81 e2 41 90 00 00    	and    $0x9041,%edx
c0100fd9:	89 55 c8             	mov    %edx,-0x38(%ebp)
c0100fdc:	0f 85 9e 03 00 00    	jne    c0101380 <_vsnprintf+0x510>
c0100fe2:	80 f9 0a             	cmp    $0xa,%cl
c0100fe5:	0f 84 a5 02 00 00    	je     c0101290 <_vsnprintf+0x420>
c0100feb:	80 f9 07             	cmp    $0x7,%cl
c0100fee:	0f 85 ac fe ff ff    	jne    c0100ea0 <_vsnprintf+0x30>
c0100ff4:	83 ec 04             	sub    $0x4,%esp
c0100ff7:	83 ce 21             	or     $0x21,%esi
c0100ffa:	8b 45 0c             	mov    0xc(%ebp),%eax
c0100ffd:	8b 55 e0             	mov    -0x20(%ebp),%edx
c0101000:	56                   	push   %esi
c0101001:	8b 75 0c             	mov    0xc(%ebp),%esi
c0101004:	89 f9                	mov    %edi,%ecx
c0101006:	6a 08                	push   $0x8
c0101008:	83 c0 04             	add    $0x4,%eax
c010100b:	ff 75 d8             	push   -0x28(%ebp)
c010100e:	6a 10                	push   $0x10
c0101010:	6a 00                	push   $0x0
c0101012:	ff 36                	push   (%esi)
c0101014:	ff 75 dc             	push   -0x24(%ebp)
c0101017:	89 45 d4             	mov    %eax,-0x2c(%ebp)
c010101a:	8b 45 e4             	mov    -0x1c(%ebp),%eax
c010101d:	e8 ae f3 ff ff       	call   c01003d0 <_ntoa_long>
c0101022:	83 c4 20             	add    $0x20,%esp
c0101025:	89 c7                	mov    %eax,%edi
c0101027:	8b 45 d4             	mov    -0x2c(%ebp),%eax
c010102a:	89 45 0c             	mov    %eax,0xc(%ebp)
c010102d:	0f be 03             	movsbl (%ebx),%eax
c0101030:	84 c0                	test   %al,%al
c0101032:	0f 85 88 fe ff ff    	jne    c0100ec0 <_vsnprintf+0x50>
c0101038:	8d b4 26 00 00 00 00 	lea    0x0(%esi,%eiz,1),%esi
c010103f:	90                   	nop
c0101040:	89 f9                	mov    %edi,%ecx
c0101042:	89 fb                	mov    %edi,%ebx
c0101044:	8b 7d dc             	mov    -0x24(%ebp),%edi
c0101047:	39 f9                	cmp    %edi,%ecx
c0101049:	8d 47 ff             	lea    -0x1(%edi),%eax
c010104c:	57                   	push   %edi
c010104d:	0f 42 c1             	cmovb  %ecx,%eax
c0101050:	50                   	push   %eax
c0101051:	8b 45 e4             	mov    -0x1c(%ebp),%eax
c0101054:	ff 75 e0             	push   -0x20(%ebp)
c0101057:	6a 00                	push   $0x0
c0101059:	ff d0                	call   *%eax
c010105b:	8d 65 f4             	lea    -0xc(%ebp),%esp
c010105e:	89 d8                	mov    %ebx,%eax
c0101060:	5b                   	pop    %ebx
c0101061:	5e                   	pop    %esi
c0101062:	5f                   	pop    %edi
c0101063:	5d                   	pop    %ebp
c0101064:	c3                   	ret    
c0101065:	8d b4 26 00 00 00 00 	lea    0x0(%esi,%eiz,1),%esi
c010106c:	8d 74 26 00          	lea    0x0(%esi,%eiz,1),%esi
c0101070:	0f be 43 01          	movsbl 0x1(%ebx),%eax
c0101074:	89 55 d0             	mov    %edx,-0x30(%ebp)
c0101077:	81 ce 00 04 00 00    	or     $0x400,%esi
c010107d:	8d 48 d0             	lea    -0x30(%eax),%ecx
c0101080:	80 f9 09             	cmp    $0x9,%cl
c0101083:	0f 86 c7 03 00 00    	jbe    c0101450 <_vsnprintf+0x5e0>
c0101089:	3c 2a                	cmp    $0x2a,%al
c010108b:	0f 84 ff 03 00 00    	je     c0101490 <_vsnprintf+0x620>
c0101091:	89 d3                	mov    %edx,%ebx
c0101093:	83 c2 01             	add    $0x1,%edx
c0101096:	e9 7f fe ff ff       	jmp    c0100f1a <_vsnprintf+0xaa>
c010109b:	8d 74 26 00          	lea    0x0(%esi,%eiz,1),%esi
c010109f:	90                   	nop
c01010a0:	89 7d d8             	mov    %edi,-0x28(%ebp)
c01010a3:	31 c9                	xor    %ecx,%ecx
c01010a5:	eb 0c                	jmp    c01010b3 <_vsnprintf+0x243>
c01010a7:	8d b4 26 00 00 00 00 	lea    0x0(%esi,%eiz,1),%esi
c01010ae:	66 90                	xchg   %ax,%ax
c01010b0:	83 c2 01             	add    $0x1,%edx
c01010b3:	8d 0c 89             	lea    (%ecx,%ecx,4),%ecx
c01010b6:	8d 4c 48 d0          	lea    -0x30(%eax,%ecx,2),%ecx
c01010ba:	0f be 02             	movsbl (%edx),%eax
c01010bd:	8d 58 d0             	lea    -0x30(%eax),%ebx
c01010c0:	80 fb 09             	cmp    $0x9,%bl
c01010c3:	76 eb                	jbe    c01010b0 <_vsnprintf+0x240>
c01010c5:	89 d3                	mov    %edx,%ebx
c01010c7:	89 4d d4             	mov    %ecx,-0x2c(%ebp)
c01010ca:	8b 7d d8             	mov    -0x28(%ebp),%edi
c01010cd:	83 c2 01             	add    $0x1,%edx
c01010d0:	e9 36 fe ff ff       	jmp    c0100f0b <_vsnprintf+0x9b>
c01010d5:	8d b4 26 00 00 00 00 	lea    0x0(%esi,%eiz,1),%esi
c01010dc:	8d 74 26 00          	lea    0x0(%esi,%eiz,1),%esi
c01010e0:	8b 45 0c             	mov    0xc(%ebp),%eax
c01010e3:	8d 48 04             	lea    0x4(%eax),%ecx
c01010e6:	8b 00                	mov    (%eax),%eax
c01010e8:	89 45 d4             	mov    %eax,-0x2c(%ebp)
c01010eb:	85 c0                	test   %eax,%eax
c01010ed:	78 11                	js     c0101100 <_vsnprintf+0x290>
c01010ef:	0f be 43 01          	movsbl 0x1(%ebx),%eax
c01010f3:	89 4d 0c             	mov    %ecx,0xc(%ebp)
c01010f6:	89 d3                	mov    %edx,%ebx
c01010f8:	83 c2 01             	add    $0x1,%edx
c01010fb:	e9 0b fe ff ff       	jmp    c0100f0b <_vsnprintf+0x9b>
c0101100:	f7 d8                	neg    %eax
c0101102:	89 4d 0c             	mov    %ecx,0xc(%ebp)
c0101105:	83 ce 02             	or     $0x2,%esi
c0101108:	89 45 d4             	mov    %eax,-0x2c(%ebp)
c010110b:	0f be 43 01          	movsbl 0x1(%ebx),%eax
c010110f:	89 d3                	mov    %edx,%ebx
c0101111:	83 c2 01             	add    $0x1,%edx
c0101114:	e9 f2 fd ff ff       	jmp    c0100f0b <_vsnprintf+0x9b>
c0101119:	89 c1                	mov    %eax,%ecx
c010111b:	89 f2                	mov    %esi,%edx
c010111d:	83 e1 df             	and    $0xffffffdf,%ecx
c0101120:	80 ce 08             	or     $0x8,%dh
c0101123:	80 f9 47             	cmp    $0x47,%cl
c0101126:	89 f9                	mov    %edi,%ecx
c0101128:	0f 44 f2             	cmove  %edx,%esi
c010112b:	83 e0 fd             	and    $0xfffffffd,%eax
c010112e:	89 f2                	mov    %esi,%edx
c0101130:	83 ca 20             	or     $0x20,%edx
c0101133:	3c 45                	cmp    $0x45,%al
c0101135:	8b 45 0c             	mov    0xc(%ebp),%eax
c0101138:	0f 44 f2             	cmove  %edx,%esi
c010113b:	83 ec 08             	sub    $0x8,%esp
c010113e:	8b 55 e0             	mov    -0x20(%ebp),%edx
c0101141:	83 c0 08             	add    $0x8,%eax
c0101144:	56                   	push   %esi
c0101145:	8b 75 0c             	mov    0xc(%ebp),%esi
c0101148:	ff 75 d4             	push   -0x2c(%ebp)
c010114b:	ff 75 d8             	push   -0x28(%ebp)
c010114e:	ff 76 04             	push   0x4(%esi)
c0101151:	ff 36                	push   (%esi)
c0101153:	ff 75 dc             	push   -0x24(%ebp)
c0101156:	89 45 d0             	mov    %eax,-0x30(%ebp)
c0101159:	8b 45 e4             	mov    -0x1c(%ebp),%eax
c010115c:	e8 2f f4 ff ff       	call   c0100590 <_etoa>
c0101161:	83 c4 20             	add    $0x20,%esp
c0101164:	89 c7                	mov    %eax,%edi
c0101166:	8b 45 d0             	mov    -0x30(%ebp),%eax
c0101169:	89 45 0c             	mov    %eax,0xc(%ebp)
c010116c:	e9 44 fd ff ff       	jmp    c0100eb5 <_vsnprintf+0x45>
c0101171:	0f be 43 01          	movsbl 0x1(%ebx),%eax
c0101175:	3c 6c                	cmp    $0x6c,%al
c0101177:	0f 84 f3 03 00 00    	je     c0101570 <_vsnprintf+0x700>
c010117d:	81 ce 00 01 00 00    	or     $0x100,%esi
c0101183:	83 c2 01             	add    $0x1,%edx
c0101186:	e9 b2 fd ff ff       	jmp    c0100f3d <_vsnprintf+0xcd>
c010118b:	0f be 43 01          	movsbl 0x1(%ebx),%eax
c010118f:	81 ce 00 02 00 00    	or     $0x200,%esi
c0101195:	83 c2 01             	add    $0x1,%edx
c0101198:	e9 a0 fd ff ff       	jmp    c0100f3d <_vsnprintf+0xcd>
c010119d:	0f be 43 01          	movsbl 0x1(%ebx),%eax
c01011a1:	3c 68                	cmp    $0x68,%al
c01011a3:	0f 84 b5 03 00 00    	je     c010155e <_vsnprintf+0x6ee>
c01011a9:	81 ce 80 00 00 00    	or     $0x80,%esi
c01011af:	83 c2 01             	add    $0x1,%edx
c01011b2:	e9 86 fd ff ff       	jmp    c0100f3d <_vsnprintf+0xcd>
c01011b7:	89 f2                	mov    %esi,%edx
c01011b9:	89 f9                	mov    %edi,%ecx
c01011bb:	83 ca 20             	or     $0x20,%edx
c01011be:	3c 46                	cmp    $0x46,%al
c01011c0:	8b 45 0c             	mov    0xc(%ebp),%eax
c01011c3:	0f 44 f2             	cmove  %edx,%esi
c01011c6:	83 ec 08             	sub    $0x8,%esp
c01011c9:	8b 55 e0             	mov    -0x20(%ebp),%edx
c01011cc:	83 c0 08             	add    $0x8,%eax
c01011cf:	56                   	push   %esi
c01011d0:	8b 75 0c             	mov    0xc(%ebp),%esi
c01011d3:	ff 75 d4             	push   -0x2c(%ebp)
c01011d6:	ff 75 d8             	push   -0x28(%ebp)
c01011d9:	ff 76 04             	push   0x4(%esi)
c01011dc:	ff 36                	push   (%esi)
c01011de:	ff 75 dc             	push   -0x24(%ebp)
c01011e1:	89 45 d0             	mov    %eax,-0x30(%ebp)
c01011e4:	8b 45 e4             	mov    -0x1c(%ebp),%eax
c01011e7:	e8 64 f7 ff ff       	call   c0100950 <_ftoa>
c01011ec:	83 c4 20             	add    $0x20,%esp
c01011ef:	89 c7                	mov    %eax,%edi
c01011f1:	8b 45 d0             	mov    -0x30(%ebp),%eax
c01011f4:	89 45 0c             	mov    %eax,0xc(%ebp)
c01011f7:	e9 b9 fc ff ff       	jmp    c0100eb5 <_vsnprintf+0x45>
c01011fc:	8b 45 0c             	mov    0xc(%ebp),%eax
c01011ff:	83 c0 04             	add    $0x4,%eax
c0101202:	83 e6 02             	and    $0x2,%esi
c0101205:	89 45 d8             	mov    %eax,-0x28(%ebp)
c0101208:	0f 84 95 03 00 00    	je     c01015a3 <_vsnprintf+0x733>
c010120e:	8b 45 0c             	mov    0xc(%ebp),%eax
c0101211:	ff 75 dc             	push   -0x24(%ebp)
c0101214:	8d 77 01             	lea    0x1(%edi),%esi
c0101217:	57                   	push   %edi
c0101218:	0f be 00             	movsbl (%eax),%eax
c010121b:	ff 75 e0             	push   -0x20(%ebp)
c010121e:	50                   	push   %eax
c010121f:	8b 45 e4             	mov    -0x1c(%ebp),%eax
c0101222:	ff d0                	call   *%eax
c0101224:	8b 45 d4             	mov    -0x2c(%ebp),%eax
c0101227:	83 c4 10             	add    $0x10,%esp
c010122a:	01 c7                	add    %eax,%edi
c010122c:	83 f8 01             	cmp    $0x1,%eax
c010122f:	0f 86 8a 04 00 00    	jbe    c01016bf <_vsnprintf+0x84f>
c0101235:	89 5d 08             	mov    %ebx,0x8(%ebp)
c0101238:	89 fb                	mov    %edi,%ebx
c010123a:	8b 7d e0             	mov    -0x20(%ebp),%edi
c010123d:	8d 76 00             	lea    0x0(%esi),%esi
c0101240:	89 f2                	mov    %esi,%edx
c0101242:	ff 75 dc             	push   -0x24(%ebp)
c0101245:	83 c6 01             	add    $0x1,%esi
c0101248:	8b 45 e4             	mov    -0x1c(%ebp),%eax
c010124b:	52                   	push   %edx
c010124c:	57                   	push   %edi
c010124d:	6a 20                	push   $0x20
c010124f:	ff d0                	call   *%eax
c0101251:	83 c4 10             	add    $0x10,%esp
c0101254:	39 de                	cmp    %ebx,%esi
c0101256:	75 e8                	jne    c0101240 <_vsnprintf+0x3d0>
c0101258:	89 df                	mov    %ebx,%edi
c010125a:	8b 5d 08             	mov    0x8(%ebp),%ebx
c010125d:	8b 45 d8             	mov    -0x28(%ebp),%eax
c0101260:	89 45 0c             	mov    %eax,0xc(%ebp)
c0101263:	e9 4d fc ff ff       	jmp    c0100eb5 <_vsnprintf+0x45>
c0101268:	ff 75 dc             	push   -0x24(%ebp)
c010126b:	8d 77 01             	lea    0x1(%edi),%esi
c010126e:	8b 45 e4             	mov    -0x1c(%ebp),%eax
c0101271:	57                   	push   %edi
c0101272:	89 f7                	mov    %esi,%edi
c0101274:	ff 75 e0             	push   -0x20(%ebp)
c0101277:	6a 25                	push   $0x25
c0101279:	ff d0                	call   *%eax
c010127b:	83 c4 10             	add    $0x10,%esp
c010127e:	e9 32 fc ff ff       	jmp    c0100eb5 <_vsnprintf+0x45>
c0101283:	8d b4 26 00 00 00 00 	lea    0x0(%esi,%eiz,1),%esi
c010128a:	8d b6 00 00 00 00    	lea    0x0(%esi),%esi
c0101290:	8b 45 0c             	mov    0xc(%ebp),%eax
c0101293:	8b 4d d8             	mov    -0x28(%ebp),%ecx
c0101296:	83 c0 04             	add    $0x4,%eax
c0101299:	89 45 c0             	mov    %eax,-0x40(%ebp)
c010129c:	8b 45 0c             	mov    0xc(%ebp),%eax
c010129f:	8b 00                	mov    (%eax),%eax
c01012a1:	89 45 cc             	mov    %eax,-0x34(%ebp)
c01012a4:	0f b6 00             	movzbl (%eax),%eax
c01012a7:	88 45 c6             	mov    %al,-0x3a(%ebp)
c01012aa:	88 45 c7             	mov    %al,-0x39(%ebp)
c01012ad:	85 c9                	test   %ecx,%ecx
c01012af:	0f 85 0b 02 00 00    	jne    c01014c0 <_vsnprintf+0x650>
c01012b5:	ba fe ff ff ff       	mov    $0xfffffffe,%edx
c01012ba:	84 c0                	test   %al,%al
c01012bc:	74 2b                	je     c01012e9 <_vsnprintf+0x479>
c01012be:	8b 45 cc             	mov    -0x34(%ebp),%eax
c01012c1:	8d 4c 10 01          	lea    0x1(%eax,%edx,1),%ecx
c01012c5:	89 c2                	mov    %eax,%edx
c01012c7:	0f b6 45 c7          	movzbl -0x39(%ebp),%eax
c01012cb:	eb 0b                	jmp    c01012d8 <_vsnprintf+0x468>
c01012cd:	8d 76 00             	lea    0x0(%esi),%esi
c01012d0:	39 d1                	cmp    %edx,%ecx
c01012d2:	0f 84 aa 02 00 00    	je     c0101582 <_vsnprintf+0x712>
c01012d8:	83 c2 01             	add    $0x1,%edx
c01012db:	80 3a 00             	cmpb   $0x0,(%edx)
c01012de:	75 f0                	jne    c01012d0 <_vsnprintf+0x460>
c01012e0:	2b 55 cc             	sub    -0x34(%ebp),%edx
c01012e3:	88 45 c7             	mov    %al,-0x39(%ebp)
c01012e6:	89 55 c8             	mov    %edx,-0x38(%ebp)
c01012e9:	8b 4d c8             	mov    -0x38(%ebp),%ecx
c01012ec:	8b 55 d8             	mov    -0x28(%ebp),%edx
c01012ef:	89 f0                	mov    %esi,%eax
c01012f1:	39 d1                	cmp    %edx,%ecx
c01012f3:	0f 46 d1             	cmovbe %ecx,%edx
c01012f6:	25 00 04 00 00       	and    $0x400,%eax
c01012fb:	89 45 d0             	mov    %eax,-0x30(%ebp)
c01012fe:	0f 44 d1             	cmove  %ecx,%edx
c0101301:	83 e6 02             	and    $0x2,%esi
c0101304:	89 75 bc             	mov    %esi,-0x44(%ebp)
c0101307:	89 55 c8             	mov    %edx,-0x38(%ebp)
c010130a:	0f 84 30 03 00 00    	je     c0101640 <_vsnprintf+0x7d0>
c0101310:	80 7d c6 00          	cmpb   $0x0,-0x3a(%ebp)
c0101314:	0f 84 e1 02 00 00    	je     c01015fb <_vsnprintf+0x78b>
c010131a:	8b 45 cc             	mov    -0x34(%ebp),%eax
c010131d:	89 5d 08             	mov    %ebx,0x8(%ebp)
c0101320:	8b 5d d8             	mov    -0x28(%ebp),%ebx
c0101323:	29 f8                	sub    %edi,%eax
c0101325:	89 45 cc             	mov    %eax,-0x34(%ebp)
c0101328:	0f be 45 c7          	movsbl -0x39(%ebp),%eax
c010132c:	eb 04                	jmp    c0101332 <_vsnprintf+0x4c2>
c010132e:	66 90                	xchg   %ax,%ax
c0101330:	89 f7                	mov    %esi,%edi
c0101332:	8b 55 d0             	mov    -0x30(%ebp),%edx
c0101335:	85 d2                	test   %edx,%edx
c0101337:	74 0d                	je     c0101346 <_vsnprintf+0x4d6>
c0101339:	8d 4b ff             	lea    -0x1(%ebx),%ecx
c010133c:	85 db                	test   %ebx,%ebx
c010133e:	0f 84 55 02 00 00    	je     c0101599 <_vsnprintf+0x729>
c0101344:	89 cb                	mov    %ecx,%ebx
c0101346:	ff 75 dc             	push   -0x24(%ebp)
c0101349:	8d 77 01             	lea    0x1(%edi),%esi
c010134c:	57                   	push   %edi
c010134d:	ff 75 e0             	push   -0x20(%ebp)
c0101350:	50                   	push   %eax
c0101351:	8b 45 e4             	mov    -0x1c(%ebp),%eax
c0101354:	ff d0                	call   *%eax
c0101356:	8b 45 cc             	mov    -0x34(%ebp),%eax
c0101359:	83 c4 10             	add    $0x10,%esp
c010135c:	0f be 44 07 01       	movsbl 0x1(%edi,%eax,1),%eax
c0101361:	84 c0                	test   %al,%al
c0101363:	75 cb                	jne    c0101330 <_vsnprintf+0x4c0>
c0101365:	8b 5d 08             	mov    0x8(%ebp),%ebx
c0101368:	8b 45 bc             	mov    -0x44(%ebp),%eax
c010136b:	85 c0                	test   %eax,%eax
c010136d:	0f 85 86 02 00 00    	jne    c01015f9 <_vsnprintf+0x789>
c0101373:	8b 45 c0             	mov    -0x40(%ebp),%eax
c0101376:	89 f7                	mov    %esi,%edi
c0101378:	89 45 0c             	mov    %eax,0xc(%ebp)
c010137b:	e9 35 fb ff ff       	jmp    c0100eb5 <_vsnprintf+0x45>
c0101380:	89 c2                	mov    %eax,%edx
c0101382:	83 e2 df             	and    $0xffffffdf,%edx
c0101385:	80 fa 58             	cmp    $0x58,%dl
c0101388:	0f 84 ca 03 00 00    	je     c0101758 <_vsnprintf+0x8e8>
c010138e:	3c 6f                	cmp    $0x6f,%al
c0101390:	0f 84 0f 03 00 00    	je     c01016a5 <_vsnprintf+0x835>
c0101396:	3c 62                	cmp    $0x62,%al
c0101398:	0f 84 c4 03 00 00    	je     c0101762 <_vsnprintf+0x8f2>
c010139e:	83 e6 ef             	and    $0xffffffef,%esi
c01013a1:	b9 0a 00 00 00       	mov    $0xa,%ecx
c01013a6:	3c 69                	cmp    $0x69,%al
c01013a8:	74 08                	je     c01013b2 <_vsnprintf+0x542>
c01013aa:	3c 64                	cmp    $0x64,%al
c01013ac:	0f 85 a4 01 00 00    	jne    c0101556 <_vsnprintf+0x6e6>
c01013b2:	89 f2                	mov    %esi,%edx
c01013b4:	83 e2 fe             	and    $0xfffffffe,%edx
c01013b7:	f7 c6 00 04 00 00    	test   $0x400,%esi
c01013bd:	0f 45 f2             	cmovne %edx,%esi
c01013c0:	89 f2                	mov    %esi,%edx
c01013c2:	81 e2 00 02 00 00    	and    $0x200,%edx
c01013c8:	3c 69                	cmp    $0x69,%al
c01013ca:	0f 84 10 01 00 00    	je     c01014e0 <_vsnprintf+0x670>
c01013d0:	3c 64                	cmp    $0x64,%al
c01013d2:	0f 84 08 01 00 00    	je     c01014e0 <_vsnprintf+0x670>
c01013d8:	8b 45 0c             	mov    0xc(%ebp),%eax
c01013db:	85 d2                	test   %edx,%edx
c01013dd:	0f 85 55 03 00 00    	jne    c0101738 <_vsnprintf+0x8c8>
c01013e3:	83 c0 04             	add    $0x4,%eax
c01013e6:	89 45 d0             	mov    %eax,-0x30(%ebp)
c01013e9:	f7 c6 00 01 00 00    	test   $0x100,%esi
c01013ef:	0f 85 77 03 00 00    	jne    c010176c <_vsnprintf+0x8fc>
c01013f5:	8b 45 0c             	mov    0xc(%ebp),%eax
c01013f8:	f7 c6 40 00 00 00    	test   $0x40,%esi
c01013fe:	0f 85 b3 02 00 00    	jne    c01016b7 <_vsnprintf+0x847>
c0101404:	f7 c6 80 00 00 00    	test   $0x80,%esi
c010140a:	0f 84 73 03 00 00    	je     c0101783 <_vsnprintf+0x913>
c0101410:	0f b7 00             	movzwl (%eax),%eax
c0101413:	83 ec 04             	sub    $0x4,%esp
c0101416:	56                   	push   %esi
c0101417:	ff 75 d4             	push   -0x2c(%ebp)
c010141a:	ff 75 d8             	push   -0x28(%ebp)
c010141d:	51                   	push   %ecx
c010141e:	6a 00                	push   $0x0
c0101420:	50                   	push   %eax
c0101421:	8b 55 e0             	mov    -0x20(%ebp),%edx
c0101424:	8b 45 e4             	mov    -0x1c(%ebp),%eax
c0101427:	ff 75 dc             	push   -0x24(%ebp)
c010142a:	89 f9                	mov    %edi,%ecx
c010142c:	e8 9f ef ff ff       	call   c01003d0 <_ntoa_long>
c0101431:	83 c4 20             	add    $0x20,%esp
c0101434:	89 c7                	mov    %eax,%edi
c0101436:	8b 45 d0             	mov    -0x30(%ebp),%eax
c0101439:	89 45 0c             	mov    %eax,0xc(%ebp)
c010143c:	e9 74 fa ff ff       	jmp    c0100eb5 <_vsnprintf+0x45>
c0101441:	8d b4 26 00 00 00 00 	lea    0x0(%esi,%eiz,1),%esi
c0101448:	8d b4 26 00 00 00 00 	lea    0x0(%esi,%eiz,1),%esi
c010144f:	90                   	nop
c0101450:	89 d1                	mov    %edx,%ecx
c0101452:	31 d2                	xor    %edx,%edx
c0101454:	8d b4 26 00 00 00 00 	lea    0x0(%esi,%eiz,1),%esi
c010145b:	8d 74 26 00          	lea    0x0(%esi,%eiz,1),%esi
c010145f:	90                   	nop
c0101460:	83 c1 01             	add    $0x1,%ecx
c0101463:	8d 14 92             	lea    (%edx,%edx,4),%edx
c0101466:	8d 54 50 d0          	lea    -0x30(%eax,%edx,2),%edx
c010146a:	0f be 01             	movsbl (%ecx),%eax
c010146d:	8d 58 d0             	lea    -0x30(%eax),%ebx
c0101470:	80 fb 09             	cmp    $0x9,%bl
c0101473:	76 eb                	jbe    c0101460 <_vsnprintf+0x5f0>
c0101475:	89 55 d8             	mov    %edx,-0x28(%ebp)
c0101478:	89 cb                	mov    %ecx,%ebx
c010147a:	8d 51 01             	lea    0x1(%ecx),%edx
c010147d:	e9 98 fa ff ff       	jmp    c0100f1a <_vsnprintf+0xaa>
c0101482:	8d b4 26 00 00 00 00 	lea    0x0(%esi,%eiz,1),%esi
c0101489:	8d b4 26 00 00 00 00 	lea    0x0(%esi,%eiz,1),%esi
c0101490:	8b 45 0c             	mov    0xc(%ebp),%eax
c0101493:	31 d2                	xor    %edx,%edx
c0101495:	8b 4d 0c             	mov    0xc(%ebp),%ecx
c0101498:	8b 00                	mov    (%eax),%eax
c010149a:	85 c0                	test   %eax,%eax
c010149c:	0f 49 d0             	cmovns %eax,%edx
c010149f:	0f be 43 02          	movsbl 0x2(%ebx),%eax
c01014a3:	83 c3 02             	add    $0x2,%ebx
c01014a6:	89 55 d8             	mov    %edx,-0x28(%ebp)
c01014a9:	8d 51 04             	lea    0x4(%ecx),%edx
c01014ac:	89 55 0c             	mov    %edx,0xc(%ebp)
c01014af:	8d 53 01             	lea    0x1(%ebx),%edx
c01014b2:	e9 63 fa ff ff       	jmp    c0100f1a <_vsnprintf+0xaa>
c01014b7:	8d b4 26 00 00 00 00 	lea    0x0(%esi,%eiz,1),%esi
c01014be:	66 90                	xchg   %ax,%ax
c01014c0:	80 7d c6 00          	cmpb   $0x0,-0x3a(%ebp)
c01014c4:	0f 84 1f fe ff ff    	je     c01012e9 <_vsnprintf+0x479>
c01014ca:	8b 45 d8             	mov    -0x28(%ebp),%eax
c01014cd:	8d 50 ff             	lea    -0x1(%eax),%edx
c01014d0:	e9 e9 fd ff ff       	jmp    c01012be <_vsnprintf+0x44e>
c01014d5:	8d b4 26 00 00 00 00 	lea    0x0(%esi,%eiz,1),%esi
c01014dc:	8d 74 26 00          	lea    0x0(%esi,%eiz,1),%esi
c01014e0:	8b 45 0c             	mov    0xc(%ebp),%eax
c01014e3:	85 d2                	test   %edx,%edx
c01014e5:	0f 85 e2 01 00 00    	jne    c01016cd <_vsnprintf+0x85d>
c01014eb:	83 c0 04             	add    $0x4,%eax
c01014ee:	89 45 d0             	mov    %eax,-0x30(%ebp)
c01014f1:	8b 45 0c             	mov    0xc(%ebp),%eax
c01014f4:	f7 c6 00 01 00 00    	test   $0x100,%esi
c01014fa:	0f 85 c6 01 00 00    	jne    c01016c6 <_vsnprintf+0x856>
c0101500:	f7 c6 40 00 00 00    	test   $0x40,%esi
c0101506:	0f 85 a3 01 00 00    	jne    c01016af <_vsnprintf+0x83f>
c010150c:	f7 c6 80 00 00 00    	test   $0x80,%esi
c0101512:	0f 84 ae 01 00 00    	je     c01016c6 <_vsnprintf+0x856>
c0101518:	0f bf 00             	movswl (%eax),%eax
c010151b:	89 c2                	mov    %eax,%edx
c010151d:	83 ec 04             	sub    $0x4,%esp
c0101520:	c1 ea 1f             	shr    $0x1f,%edx
c0101523:	56                   	push   %esi
c0101524:	ff 75 d4             	push   -0x2c(%ebp)
c0101527:	ff 75 d8             	push   -0x28(%ebp)
c010152a:	51                   	push   %ecx
c010152b:	52                   	push   %edx
c010152c:	89 c2                	mov    %eax,%edx
c010152e:	f7 da                	neg    %edx
c0101530:	0f 49 c2             	cmovns %edx,%eax
c0101533:	e9 e8 fe ff ff       	jmp    c0101420 <_vsnprintf+0x5b0>
c0101538:	89 c2                	mov    %eax,%edx
c010153a:	83 e2 df             	and    $0xffffffdf,%edx
c010153d:	80 fa 58             	cmp    $0x58,%dl
c0101540:	0f 85 50 fe ff ff    	jne    c0101396 <_vsnprintf+0x526>
c0101546:	3c 58                	cmp    $0x58,%al
c0101548:	0f 85 0a 02 00 00    	jne    c0101758 <_vsnprintf+0x8e8>
c010154e:	83 ce 20             	or     $0x20,%esi
c0101551:	b9 10 00 00 00       	mov    $0x10,%ecx
c0101556:	83 e6 f3             	and    $0xfffffff3,%esi
c0101559:	e9 54 fe ff ff       	jmp    c01013b2 <_vsnprintf+0x542>
c010155e:	0f be 43 02          	movsbl 0x2(%ebx),%eax
c0101562:	81 ce c0 00 00 00    	or     $0xc0,%esi
c0101568:	8d 53 03             	lea    0x3(%ebx),%edx
c010156b:	e9 cd f9 ff ff       	jmp    c0100f3d <_vsnprintf+0xcd>
c0101570:	0f be 43 02          	movsbl 0x2(%ebx),%eax
c0101574:	81 ce 00 03 00 00    	or     $0x300,%esi
c010157a:	8d 53 03             	lea    0x3(%ebx),%edx
c010157d:	e9 bb f9 ff ff       	jmp    c0100f3d <_vsnprintf+0xcd>
c0101582:	2b 4d cc             	sub    -0x34(%ebp),%ecx
c0101585:	88 45 c7             	mov    %al,-0x39(%ebp)
c0101588:	89 4d c8             	mov    %ecx,-0x38(%ebp)
c010158b:	e9 59 fd ff ff       	jmp    c01012e9 <_vsnprintf+0x479>
c0101590:	89 f9                	mov    %edi,%ecx
c0101592:	31 db                	xor    %ebx,%ebx
c0101594:	e9 ab fa ff ff       	jmp    c0101044 <_vsnprintf+0x1d4>
c0101599:	8b 5d 08             	mov    0x8(%ebp),%ebx
c010159c:	89 fe                	mov    %edi,%esi
c010159e:	e9 c5 fd ff ff       	jmp    c0101368 <_vsnprintf+0x4f8>
c01015a3:	8b 45 d4             	mov    -0x2c(%ebp),%eax
c01015a6:	83 f8 01             	cmp    $0x1,%eax
c01015a9:	0f 86 e3 01 00 00    	jbe    c0101792 <_vsnprintf+0x922>
c01015af:	89 5d 08             	mov    %ebx,0x8(%ebp)
c01015b2:	8d 74 07 ff          	lea    -0x1(%edi,%eax,1),%esi
c01015b6:	89 fb                	mov    %edi,%ebx
c01015b8:	8b 7d dc             	mov    -0x24(%ebp),%edi
c01015bb:	8d 74 26 00          	lea    0x0(%esi,%eiz,1),%esi
c01015bf:	90                   	nop
c01015c0:	89 da                	mov    %ebx,%edx
c01015c2:	57                   	push   %edi
c01015c3:	83 c3 01             	add    $0x1,%ebx
c01015c6:	8b 45 e4             	mov    -0x1c(%ebp),%eax
c01015c9:	52                   	push   %edx
c01015ca:	ff 75 e0             	push   -0x20(%ebp)
c01015cd:	6a 20                	push   $0x20
c01015cf:	ff d0                	call   *%eax
c01015d1:	83 c4 10             	add    $0x10,%esp
c01015d4:	39 f3                	cmp    %esi,%ebx
c01015d6:	75 e8                	jne    c01015c0 <_vsnprintf+0x750>
c01015d8:	8b 5d 08             	mov    0x8(%ebp),%ebx
c01015db:	8b 45 0c             	mov    0xc(%ebp),%eax
c01015de:	ff 75 dc             	push   -0x24(%ebp)
c01015e1:	8d 7e 01             	lea    0x1(%esi),%edi
c01015e4:	56                   	push   %esi
c01015e5:	0f be 00             	movsbl (%eax),%eax
c01015e8:	ff 75 e0             	push   -0x20(%ebp)
c01015eb:	50                   	push   %eax
c01015ec:	8b 45 e4             	mov    -0x1c(%ebp),%eax
c01015ef:	ff d0                	call   *%eax
c01015f1:	83 c4 10             	add    $0x10,%esp
c01015f4:	e9 64 fc ff ff       	jmp    c010125d <_vsnprintf+0x3ed>
c01015f9:	89 f7                	mov    %esi,%edi
c01015fb:	8b 45 d4             	mov    -0x2c(%ebp),%eax
c01015fe:	8b 55 c8             	mov    -0x38(%ebp),%edx
c0101601:	39 d0                	cmp    %edx,%eax
c0101603:	0f 86 95 00 00 00    	jbe    c010169e <_vsnprintf+0x82e>
c0101609:	01 f8                	add    %edi,%eax
c010160b:	89 5d 08             	mov    %ebx,0x8(%ebp)
c010160e:	89 fb                	mov    %edi,%ebx
c0101610:	8b 7d dc             	mov    -0x24(%ebp),%edi
c0101613:	89 c6                	mov    %eax,%esi
c0101615:	29 d6                	sub    %edx,%esi
c0101617:	8d b4 26 00 00 00 00 	lea    0x0(%esi,%eiz,1),%esi
c010161e:	66 90                	xchg   %ax,%ax
c0101620:	89 da                	mov    %ebx,%edx
c0101622:	57                   	push   %edi
c0101623:	83 c3 01             	add    $0x1,%ebx
c0101626:	8b 45 e4             	mov    -0x1c(%ebp),%eax
c0101629:	52                   	push   %edx
c010162a:	ff 75 e0             	push   -0x20(%ebp)
c010162d:	6a 20                	push   $0x20
c010162f:	ff d0                	call   *%eax
c0101631:	83 c4 10             	add    $0x10,%esp
c0101634:	39 f3                	cmp    %esi,%ebx
c0101636:	75 e8                	jne    c0101620 <_vsnprintf+0x7b0>
c0101638:	8b 5d 08             	mov    0x8(%ebp),%ebx
c010163b:	e9 33 fd ff ff       	jmp    c0101373 <_vsnprintf+0x503>
c0101640:	8b 75 d4             	mov    -0x2c(%ebp),%esi
c0101643:	8d 42 01             	lea    0x1(%edx),%eax
c0101646:	39 d6                	cmp    %edx,%esi
c0101648:	0f 86 3c 01 00 00    	jbe    c010178a <_vsnprintf+0x91a>
c010164e:	8d 04 3e             	lea    (%esi,%edi,1),%eax
c0101651:	89 5d 08             	mov    %ebx,0x8(%ebp)
c0101654:	89 fb                	mov    %edi,%ebx
c0101656:	8b 7d dc             	mov    -0x24(%ebp),%edi
c0101659:	29 d0                	sub    %edx,%eax
c010165b:	89 c6                	mov    %eax,%esi
c010165d:	8d 76 00             	lea    0x0(%esi),%esi
c0101660:	89 da                	mov    %ebx,%edx
c0101662:	57                   	push   %edi
c0101663:	83 c3 01             	add    $0x1,%ebx
c0101666:	8b 45 e4             	mov    -0x1c(%ebp),%eax
c0101669:	52                   	push   %edx
c010166a:	ff 75 e0             	push   -0x20(%ebp)
c010166d:	6a 20                	push   $0x20
c010166f:	ff d0                	call   *%eax
c0101671:	83 c4 10             	add    $0x10,%esp
c0101674:	39 f3                	cmp    %esi,%ebx
c0101676:	75 e8                	jne    c0101660 <_vsnprintf+0x7f0>
c0101678:	8b 45 d4             	mov    -0x2c(%ebp),%eax
c010167b:	89 df                	mov    %ebx,%edi
c010167d:	8b 5d 08             	mov    0x8(%ebp),%ebx
c0101680:	83 c0 01             	add    $0x1,%eax
c0101683:	89 45 c8             	mov    %eax,-0x38(%ebp)
c0101686:	8b 45 cc             	mov    -0x34(%ebp),%eax
c0101689:	0f b6 00             	movzbl (%eax),%eax
c010168c:	88 45 c6             	mov    %al,-0x3a(%ebp)
c010168f:	0f b6 45 c6          	movzbl -0x3a(%ebp),%eax
c0101693:	88 45 c7             	mov    %al,-0x39(%ebp)
c0101696:	84 c0                	test   %al,%al
c0101698:	0f 85 7c fc ff ff    	jne    c010131a <_vsnprintf+0x4aa>
c010169e:	89 fe                	mov    %edi,%esi
c01016a0:	e9 ce fc ff ff       	jmp    c0101373 <_vsnprintf+0x503>
c01016a5:	b9 08 00 00 00       	mov    $0x8,%ecx
c01016aa:	e9 a7 fe ff ff       	jmp    c0101556 <_vsnprintf+0x6e6>
c01016af:	0f be 00             	movsbl (%eax),%eax
c01016b2:	e9 64 fe ff ff       	jmp    c010151b <_vsnprintf+0x6ab>
c01016b7:	0f b6 00             	movzbl (%eax),%eax
c01016ba:	e9 54 fd ff ff       	jmp    c0101413 <_vsnprintf+0x5a3>
c01016bf:	89 f7                	mov    %esi,%edi
c01016c1:	e9 97 fb ff ff       	jmp    c010125d <_vsnprintf+0x3ed>
c01016c6:	8b 00                	mov    (%eax),%eax
c01016c8:	e9 4e fe ff ff       	jmp    c010151b <_vsnprintf+0x6ab>
c01016cd:	8b 55 0c             	mov    0xc(%ebp),%edx
c01016d0:	83 c0 08             	add    $0x8,%eax
c01016d3:	83 ec 0c             	sub    $0xc,%esp
c01016d6:	89 45 d0             	mov    %eax,-0x30(%ebp)
c01016d9:	8b 02                	mov    (%edx),%eax
c01016db:	89 45 cc             	mov    %eax,-0x34(%ebp)
c01016de:	8b 42 04             	mov    0x4(%edx),%eax
c01016e1:	31 d2                	xor    %edx,%edx
c01016e3:	56                   	push   %esi
c01016e4:	89 45 c8             	mov    %eax,-0x38(%ebp)
c01016e7:	8b 75 c8             	mov    -0x38(%ebp),%esi
c01016ea:	ff 75 d4             	push   -0x2c(%ebp)
c01016ed:	ff 75 d8             	push   -0x28(%ebp)
c01016f0:	89 f0                	mov    %esi,%eax
c01016f2:	52                   	push   %edx
c01016f3:	c1 e8 1f             	shr    $0x1f,%eax
c01016f6:	51                   	push   %ecx
c01016f7:	8b 4d cc             	mov    -0x34(%ebp),%ecx
c01016fa:	50                   	push   %eax
c01016fb:	89 f0                	mov    %esi,%eax
c01016fd:	89 ca                	mov    %ecx,%edx
c01016ff:	f7 da                	neg    %edx
c0101701:	83 d0 00             	adc    $0x0,%eax
c0101704:	f7 d8                	neg    %eax
c0101706:	0f 48 d1             	cmovs  %ecx,%edx
c0101709:	0f 48 c6             	cmovs  %esi,%eax
c010170c:	89 55 b0             	mov    %edx,-0x50(%ebp)
c010170f:	89 45 b4             	mov    %eax,-0x4c(%ebp)
c0101712:	ff 75 b4             	push   -0x4c(%ebp)
c0101715:	ff 75 b0             	push   -0x50(%ebp)
c0101718:	8b 55 e0             	mov    -0x20(%ebp),%edx
c010171b:	ff 75 dc             	push   -0x24(%ebp)
c010171e:	89 f9                	mov    %edi,%ecx
c0101720:	8b 45 e4             	mov    -0x1c(%ebp),%eax
c0101723:	e8 78 ed ff ff       	call   c01004a0 <_ntoa_long_long>
c0101728:	83 c4 30             	add    $0x30,%esp
c010172b:	89 c7                	mov    %eax,%edi
c010172d:	8b 45 d0             	mov    -0x30(%ebp),%eax
c0101730:	89 45 0c             	mov    %eax,0xc(%ebp)
c0101733:	e9 7d f7 ff ff       	jmp    c0100eb5 <_vsnprintf+0x45>
c0101738:	83 ec 0c             	sub    $0xc,%esp
c010173b:	83 c0 08             	add    $0x8,%eax
c010173e:	31 d2                	xor    %edx,%edx
c0101740:	56                   	push   %esi
c0101741:	8b 75 0c             	mov    0xc(%ebp),%esi
c0101744:	ff 75 d4             	push   -0x2c(%ebp)
c0101747:	89 45 d0             	mov    %eax,-0x30(%ebp)
c010174a:	ff 75 d8             	push   -0x28(%ebp)
c010174d:	52                   	push   %edx
c010174e:	51                   	push   %ecx
c010174f:	6a 00                	push   $0x0
c0101751:	ff 76 04             	push   0x4(%esi)
c0101754:	ff 36                	push   (%esi)
c0101756:	eb c0                	jmp    c0101718 <_vsnprintf+0x8a8>
c0101758:	b9 10 00 00 00       	mov    $0x10,%ecx
c010175d:	e9 44 fc ff ff       	jmp    c01013a6 <_vsnprintf+0x536>
c0101762:	b9 02 00 00 00       	mov    $0x2,%ecx
c0101767:	e9 ea fd ff ff       	jmp    c0101556 <_vsnprintf+0x6e6>
c010176c:	8b 45 0c             	mov    0xc(%ebp),%eax
c010176f:	83 ec 04             	sub    $0x4,%esp
c0101772:	56                   	push   %esi
c0101773:	ff 75 d4             	push   -0x2c(%ebp)
c0101776:	ff 75 d8             	push   -0x28(%ebp)
c0101779:	51                   	push   %ecx
c010177a:	6a 00                	push   $0x0
c010177c:	ff 30                	push   (%eax)
c010177e:	e9 9e fc ff ff       	jmp    c0101421 <_vsnprintf+0x5b1>
c0101783:	8b 00                	mov    (%eax),%eax
c0101785:	e9 89 fc ff ff       	jmp    c0101413 <_vsnprintf+0x5a3>
c010178a:	89 45 c8             	mov    %eax,-0x38(%ebp)
c010178d:	e9 fd fe ff ff       	jmp    c010168f <_vsnprintf+0x81f>
c0101792:	89 fe                	mov    %edi,%esi
c0101794:	e9 42 fe ff ff       	jmp    c01015db <_vsnprintf+0x76b>
c0101799:	8d b4 26 00 00 00 00 	lea    0x0(%esi,%eiz,1),%esi

c01017a0 <printf_>:
c01017a0:	55                   	push   %ebp
c01017a1:	b9 ff ff ff ff       	mov    $0xffffffff,%ecx
c01017a6:	89 e5                	mov    %esp,%ebp
c01017a8:	83 ec 20             	sub    $0x20,%esp
c01017ab:	8d 45 0c             	lea    0xc(%ebp),%eax
c01017ae:	8d 55 f7             	lea    -0x9(%ebp),%edx
c01017b1:	50                   	push   %eax
c01017b2:	b8 20 0e 10 c0       	mov    $0xc0100e20,%eax
c01017b7:	ff 75 08             	push   0x8(%ebp)
c01017ba:	e8 b1 f6 ff ff       	call   c0100e70 <_vsnprintf>
c01017bf:	c9                   	leave  
c01017c0:	c3                   	ret    
c01017c1:	8d b4 26 00 00 00 00 	lea    0x0(%esi,%eiz,1),%esi
c01017c8:	8d b4 26 00 00 00 00 	lea    0x0(%esi,%eiz,1),%esi
c01017cf:	90                   	nop

c01017d0 <sprintf_>:
c01017d0:	55                   	push   %ebp
c01017d1:	b9 ff ff ff ff       	mov    $0xffffffff,%ecx
c01017d6:	89 e5                	mov    %esp,%ebp
c01017d8:	83 ec 10             	sub    $0x10,%esp
c01017db:	8d 45 10             	lea    0x10(%ebp),%eax
c01017de:	8b 55 08             	mov    0x8(%ebp),%edx
c01017e1:	50                   	push   %eax
c01017e2:	b8 30 00 10 c0       	mov    $0xc0100030,%eax
c01017e7:	ff 75 0c             	push   0xc(%ebp)
c01017ea:	e8 81 f6 ff ff       	call   c0100e70 <_vsnprintf>
c01017ef:	c9                   	leave  
c01017f0:	c3                   	ret    
c01017f1:	8d b4 26 00 00 00 00 	lea    0x0(%esi,%eiz,1),%esi
c01017f8:	8d b4 26 00 00 00 00 	lea    0x0(%esi,%eiz,1),%esi
c01017ff:	90                   	nop

c0101800 <snprintf_>:
c0101800:	55                   	push   %ebp
c0101801:	89 e5                	mov    %esp,%ebp
c0101803:	83 ec 10             	sub    $0x10,%esp
c0101806:	8d 45 14             	lea    0x14(%ebp),%eax
c0101809:	8b 4d 0c             	mov    0xc(%ebp),%ecx
c010180c:	8b 55 08             	mov    0x8(%ebp),%edx
c010180f:	50                   	push   %eax
c0101810:	b8 30 00 10 c0       	mov    $0xc0100030,%eax
c0101815:	ff 75 10             	push   0x10(%ebp)
c0101818:	e8 53 f6 ff ff       	call   c0100e70 <_vsnprintf>
c010181d:	c9                   	leave  
c010181e:	c3                   	ret    
c010181f:	90                   	nop

c0101820 <vprintf_>:
c0101820:	55                   	push   %ebp
c0101821:	b9 ff ff ff ff       	mov    $0xffffffff,%ecx
c0101826:	b8 20 0e 10 c0       	mov    $0xc0100e20,%eax
c010182b:	89 e5                	mov    %esp,%ebp
c010182d:	83 ec 20             	sub    $0x20,%esp
c0101830:	ff 75 0c             	push   0xc(%ebp)
c0101833:	8d 55 f7             	lea    -0x9(%ebp),%edx
c0101836:	ff 75 08             	push   0x8(%ebp)
c0101839:	e8 32 f6 ff ff       	call   c0100e70 <_vsnprintf>
c010183e:	c9                   	leave  
c010183f:	c3                   	ret    

c0101840 <vsnprintf_>:
c0101840:	55                   	push   %ebp
c0101841:	89 e5                	mov    %esp,%ebp
c0101843:	8b 45 14             	mov    0x14(%ebp),%eax
c0101846:	8b 4d 0c             	mov    0xc(%ebp),%ecx
c0101849:	8b 55 08             	mov    0x8(%ebp),%edx
c010184c:	89 45 0c             	mov    %eax,0xc(%ebp)
c010184f:	8b 45 10             	mov    0x10(%ebp),%eax
c0101852:	89 45 08             	mov    %eax,0x8(%ebp)
c0101855:	b8 30 00 10 c0       	mov    $0xc0100030,%eax
c010185a:	5d                   	pop    %ebp
c010185b:	e9 10 f6 ff ff       	jmp    c0100e70 <_vsnprintf>

c0101860 <fctprintf>:
c0101860:	55                   	push   %ebp
c0101861:	b9 ff ff ff ff       	mov    $0xffffffff,%ecx
c0101866:	89 e5                	mov    %esp,%ebp
c0101868:	83 ec 20             	sub    $0x20,%esp
c010186b:	8b 55 08             	mov    0x8(%ebp),%edx
c010186e:	8d 45 14             	lea    0x14(%ebp),%eax
c0101871:	50                   	push   %eax
c0101872:	b8 40 0e 10 c0       	mov    $0xc0100e40,%eax
c0101877:	89 55 f0             	mov    %edx,-0x10(%ebp)
c010187a:	8b 55 0c             	mov    0xc(%ebp),%edx
c010187d:	ff 75 10             	push   0x10(%ebp)
c0101880:	89 55 f4             	mov    %edx,-0xc(%ebp)
c0101883:	8d 55 f0             	lea    -0x10(%ebp),%edx
c0101886:	e8 e5 f5 ff ff       	call   c0100e70 <_vsnprintf>
c010188b:	c9                   	leave  
c010188c:	c3                   	ret    
c010188d:	8d 76 00             	lea    0x0(%esi),%esi

c0101890 <_putchar>:
c0101890:	55                   	push   %ebp
c0101891:	89 e5                	mov    %esp,%ebp
c0101893:	0f be 45 08          	movsbl 0x8(%ebp),%eax
c0101897:	89 45 08             	mov    %eax,0x8(%ebp)
c010189a:	5d                   	pop    %ebp
c010189b:	e9 30 4a 00 00       	jmp    c01062d0 <term_put_char>

c01018a0 <process_test_alpha>:
c01018a0:	cd 30                	int    $0x30
c01018a2:	cd 32                	int    $0x32
c01018a4:	eb fa                	jmp    c01018a0 <process_test_alpha>
c01018a6:	c3                   	ret    

c01018a7 <process_test_alpha_end>:
c01018a7:	90                   	nop

c01018a8 <process_test_beta>:
c01018a8:	cd 31                	int    $0x31
c01018aa:	cd 32                	int    $0x32
c01018ac:	eb fa                	jmp    c01018a8 <process_test_beta>
c01018ae:	c3                   	ret    

c01018af <process_test_beta_end>:
c01018af:	90                   	nop

c01018b0 <ata_identify>:
c01018b0:	55                   	push   %ebp
c01018b1:	89 e5                	mov    %esp,%ebp
c01018b3:	53                   	push   %ebx
c01018b4:	8b 45 08             	mov    0x8(%ebp),%eax
c01018b7:	8b 55 0c             	mov    0xc(%ebp),%edx
c01018ba:	84 c0                	test   %al,%al
c01018bc:	75 22                	jne    c01018e0 <ata_identify+0x30>
c01018be:	80 fa 02             	cmp    $0x2,%dl
c01018c1:	ba f6 01 00 00       	mov    $0x1f6,%edx
c01018c6:	0f 84 a2 00 00 00    	je     c010196e <ata_identify+0xbe>
c01018cc:	b8 b0 ff ff ff       	mov    $0xffffffb0,%eax
c01018d1:	ee                   	out    %al,(%dx)
c01018d2:	ba f7 01 00 00       	mov    $0x1f7,%edx
c01018d7:	b9 f0 01 00 00       	mov    $0x1f0,%ecx
c01018dc:	eb 28                	jmp    c0101906 <ata_identify+0x56>
c01018de:	66 90                	xchg   %ax,%ax
c01018e0:	3c 01                	cmp    $0x1,%al
c01018e2:	0f 85 98 00 00 00    	jne    c0101980 <ata_identify+0xd0>
c01018e8:	80 fa 02             	cmp    $0x2,%dl
c01018eb:	ba 76 01 00 00       	mov    $0x176,%edx
c01018f0:	0f 84 96 00 00 00    	je     c010198c <ata_identify+0xdc>
c01018f6:	b8 b0 ff ff ff       	mov    $0xffffffb0,%eax
c01018fb:	ee                   	out    %al,(%dx)
c01018fc:	ba 77 01 00 00       	mov    $0x177,%edx
c0101901:	b9 70 01 00 00       	mov    $0x170,%ecx
c0101906:	b8 ec ff ff ff       	mov    $0xffffffec,%eax
c010190b:	ee                   	out    %al,(%dx)
c010190c:	ec                   	in     (%dx),%al
c010190d:	89 c3                	mov    %eax,%ebx
c010190f:	31 c0                	xor    %eax,%eax
c0101911:	84 db                	test   %bl,%bl
c0101913:	75 0b                	jne    c0101920 <ata_identify+0x70>
c0101915:	8b 5d fc             	mov    -0x4(%ebp),%ebx
c0101918:	c9                   	leave  
c0101919:	c3                   	ret    
c010191a:	8d b6 00 00 00 00    	lea    0x0(%esi),%esi
c0101920:	ec                   	in     (%dx),%al
c0101921:	a8 01                	test   $0x1,%al
c0101923:	75 fb                	jne    c0101920 <ata_identify+0x70>
c0101925:	eb 11                	jmp    c0101938 <ata_identify+0x88>
c0101927:	8d b4 26 00 00 00 00 	lea    0x0(%esi,%eiz,1),%esi
c010192e:	66 90                	xchg   %ax,%ax
c0101930:	84 c0                	test   %al,%al
c0101932:	78 10                	js     c0101944 <ata_identify+0x94>
c0101934:	a8 08                	test   $0x8,%al
c0101936:	75 0c                	jne    c0101944 <ata_identify+0x94>
c0101938:	ec                   	in     (%dx),%al
c0101939:	a8 01                	test   $0x1,%al
c010193b:	74 f3                	je     c0101930 <ata_identify+0x80>
c010193d:	8b 5d fc             	mov    -0x4(%ebp),%ebx
c0101940:	31 c0                	xor    %eax,%eax
c0101942:	c9                   	leave  
c0101943:	c3                   	ret    
c0101944:	0f b7 d1             	movzwl %cx,%edx
c0101947:	b9 20 b0 10 c0       	mov    $0xc010b020,%ecx
c010194c:	8d 74 26 00          	lea    0x0(%esi,%eiz,1),%esi
c0101950:	66 ed                	in     (%dx),%ax
c0101952:	0f b6 c0             	movzbl %al,%eax
c0101955:	83 c1 02             	add    $0x2,%ecx
c0101958:	66 89 41 fe          	mov    %ax,-0x2(%ecx)
c010195c:	81 f9 20 b2 10 c0    	cmp    $0xc010b220,%ecx
c0101962:	75 ec                	jne    c0101950 <ata_identify+0xa0>
c0101964:	8b 5d fc             	mov    -0x4(%ebp),%ebx
c0101967:	b8 01 00 00 00       	mov    $0x1,%eax
c010196c:	c9                   	leave  
c010196d:	c3                   	ret    
c010196e:	b8 a0 ff ff ff       	mov    $0xffffffa0,%eax
c0101973:	ee                   	out    %al,(%dx)
c0101974:	ba f7 01 00 00       	mov    $0x1f7,%edx
c0101979:	b9 f0 01 00 00       	mov    $0x1f0,%ecx
c010197e:	eb 86                	jmp    c0101906 <ata_identify+0x56>
c0101980:	ba 07 00 00 00       	mov    $0x7,%edx
c0101985:	31 c9                	xor    %ecx,%ecx
c0101987:	e9 7a ff ff ff       	jmp    c0101906 <ata_identify+0x56>
c010198c:	b8 a0 ff ff ff       	mov    $0xffffffa0,%eax
c0101991:	ee                   	out    %al,(%dx)
c0101992:	ba 77 01 00 00       	mov    $0x177,%edx
c0101997:	b9 70 01 00 00       	mov    $0x170,%ecx
c010199c:	e9 65 ff ff ff       	jmp    c0101906 <ata_identify+0x56>
c01019a1:	8d b4 26 00 00 00 00 	lea    0x0(%esi,%eiz,1),%esi
c01019a8:	8d b4 26 00 00 00 00 	lea    0x0(%esi,%eiz,1),%esi
c01019af:	90                   	nop

c01019b0 <ata_initalize>:
c01019b0:	55                   	push   %ebp
c01019b1:	89 e5                	mov    %esp,%ebp
c01019b3:	56                   	push   %esi
c01019b4:	53                   	push   %ebx
c01019b5:	bb 04 00 00 00       	mov    $0x4,%ebx
c01019ba:	83 ec 0c             	sub    $0xc,%esp
c01019bd:	6a 01                	push   $0x1
c01019bf:	e8 cc 4c 00 00       	call   c0106690 <set_debug_output>
c01019c4:	83 c4 0c             	add    $0xc,%esp
c01019c7:	6a 0c                	push   $0xc
c01019c9:	68 f0 71 10 c0       	push   $0xc01071f0
c01019ce:	68 c3 74 10 c0       	push   $0xc01074c3
c01019d3:	e8 c8 fd ff ff       	call   c01017a0 <printf_>
c01019d8:	c7 04 24 e0 74 10 c0 	movl   $0xc01074e0,(%esp)
c01019df:	e8 bc fd ff ff       	call   c01017a0 <printf_>
c01019e4:	c7 04 24 00 00 00 00 	movl   $0x0,(%esp)
c01019eb:	e8 a0 4c 00 00       	call   c0106690 <set_debug_output>
c01019f0:	c7 04 24 00 02 00 00 	movl   $0x200,(%esp)
c01019f7:	e8 e4 2b 00 00       	call   c01045e0 <kmalloc>
c01019fc:	c6 05 20 b2 10 c0 00 	movb   $0x0,0xc010b220
c0101a03:	ba f6 03 00 00       	mov    $0x3f6,%edx
c0101a08:	a3 00 b0 10 c0       	mov    %eax,0xc010b000
c0101a0d:	89 d8                	mov    %ebx,%eax
c0101a0f:	ee                   	out    %al,(%dx)
c0101a10:	31 c9                	xor    %ecx,%ecx
c0101a12:	89 c8                	mov    %ecx,%eax
c0101a14:	ee                   	out    %al,(%dx)
c0101a15:	ba 76 03 00 00       	mov    $0x376,%edx
c0101a1a:	89 d8                	mov    %ebx,%eax
c0101a1c:	ee                   	out    %al,(%dx)
c0101a1d:	89 c8                	mov    %ecx,%eax
c0101a1f:	ee                   	out    %al,(%dx)
c0101a20:	c7 04 24 01 00 00 00 	movl   $0x1,(%esp)
c0101a27:	be bd 74 10 c0       	mov    $0xc01074bd,%esi
c0101a2c:	e8 5f 4c 00 00       	call   c0106690 <set_debug_output>
c0101a31:	83 c4 0c             	add    $0xc,%esp
c0101a34:	6a 18                	push   $0x18
c0101a36:	68 f0 71 10 c0       	push   $0xc01071f0
c0101a3b:	68 c3 74 10 c0       	push   $0xc01074c3
c0101a40:	e8 5b fd ff ff       	call   c01017a0 <printf_>
c0101a45:	58                   	pop    %eax
c0101a46:	5a                   	pop    %edx
c0101a47:	6a 02                	push   $0x2
c0101a49:	6a 00                	push   $0x0
c0101a4b:	e8 60 fe ff ff       	call   c01018b0 <ata_identify>
c0101a50:	59                   	pop    %ecx
c0101a51:	5b                   	pop    %ebx
c0101a52:	bb b8 74 10 c0       	mov    $0xc01074b8,%ebx
c0101a57:	85 c0                	test   %eax,%eax
c0101a59:	89 f0                	mov    %esi,%eax
c0101a5b:	0f 45 c3             	cmovne %ebx,%eax
c0101a5e:	50                   	push   %eax
c0101a5f:	68 b0 77 10 c0       	push   $0xc01077b0
c0101a64:	e8 37 fd ff ff       	call   c01017a0 <printf_>
c0101a69:	c7 04 24 00 00 00 00 	movl   $0x0,(%esp)
c0101a70:	e8 1b 4c 00 00       	call   c0106690 <set_debug_output>
c0101a75:	c7 04 24 01 00 00 00 	movl   $0x1,(%esp)
c0101a7c:	e8 0f 4c 00 00       	call   c0106690 <set_debug_output>
c0101a81:	83 c4 0c             	add    $0xc,%esp
c0101a84:	6a 19                	push   $0x19
c0101a86:	68 f0 71 10 c0       	push   $0xc01071f0
c0101a8b:	68 c3 74 10 c0       	push   $0xc01074c3
c0101a90:	e8 0b fd ff ff       	call   c01017a0 <printf_>
c0101a95:	58                   	pop    %eax
c0101a96:	5a                   	pop    %edx
c0101a97:	6a 03                	push   $0x3
c0101a99:	6a 00                	push   $0x0
c0101a9b:	e8 10 fe ff ff       	call   c01018b0 <ata_identify>
c0101aa0:	59                   	pop    %ecx
c0101aa1:	5a                   	pop    %edx
c0101aa2:	85 c0                	test   %eax,%eax
c0101aa4:	0f 44 de             	cmove  %esi,%ebx
c0101aa7:	53                   	push   %ebx
c0101aa8:	68 d4 77 10 c0       	push   $0xc01077d4
c0101aad:	e8 ee fc ff ff       	call   c01017a0 <printf_>
c0101ab2:	c7 04 24 00 00 00 00 	movl   $0x0,(%esp)
c0101ab9:	e8 d2 4b 00 00       	call   c0106690 <set_debug_output>
c0101abe:	c7 04 24 01 00 00 00 	movl   $0x1,(%esp)
c0101ac5:	e8 c6 4b 00 00       	call   c0106690 <set_debug_output>
c0101aca:	83 c4 0c             	add    $0xc,%esp
c0101acd:	6a 28                	push   $0x28
c0101acf:	68 f0 71 10 c0       	push   $0xc01071f0
c0101ad4:	68 c3 74 10 c0       	push   $0xc01074c3
c0101ad9:	e8 c2 fc ff ff       	call   c01017a0 <printf_>
c0101ade:	c7 04 24 e7 74 10 c0 	movl   $0xc01074e7,(%esp)
c0101ae5:	e8 b6 fc ff ff       	call   c01017a0 <printf_>
c0101aea:	c7 04 24 00 00 00 00 	movl   $0x0,(%esp)
c0101af1:	e8 9a 4b 00 00       	call   c0106690 <set_debug_output>
c0101af6:	83 c4 10             	add    $0x10,%esp
c0101af9:	8d 65 f8             	lea    -0x8(%ebp),%esp
c0101afc:	5b                   	pop    %ebx
c0101afd:	5e                   	pop    %esi
c0101afe:	5d                   	pop    %ebp
c0101aff:	c3                   	ret    

c0101b00 <_asm_kernel_start>:
c0101b00:	bf 00 d0 10 00       	mov    $0x10d000,%edi
c0101b05:	be 00 00 00 00       	mov    $0x0,%esi
c0101b0a:	b9 00 04 00 00       	mov    $0x400,%ecx

c0101b0f <stage1>:
c0101b0f:	83 f9 00             	cmp    $0x0,%ecx
c0101b12:	49                   	dec    %ecx

c0101b13 <stage2>:
c0101b13:	89 f2                	mov    %esi,%edx
c0101b15:	83 ca 03             	or     $0x3,%edx
c0101b18:	89 17                	mov    %edx,(%edi)
c0101b1a:	81 c6 00 10 00 00    	add    $0x1000,%esi
c0101b20:	83 c7 04             	add    $0x4,%edi
c0101b23:	e2 ea                	loop   c0101b0f <stage1>

c0101b25 <stage3>:
c0101b25:	c7 05 00 c0 10 00 03 	movl   $0x10d003,0x10c000
c0101b2c:	d0 10 00 
c0101b2f:	c7 05 00 cc 10 00 03 	movl   $0x10d003,0x10cc00
c0101b36:	d0 10 00 
c0101b39:	b9 00 c0 10 00       	mov    $0x10c000,%ecx
c0101b3e:	0f 22 d9             	mov    %ecx,%cr3
c0101b41:	0f 20 c1             	mov    %cr0,%ecx
c0101b44:	81 c9 00 00 01 80    	or     $0x80010000,%ecx
c0101b4a:	0f 22 c1             	mov    %ecx,%cr0
c0101b4d:	8d 0d 55 1b 10 c0    	lea    0xc0101b55,%ecx
c0101b53:	ff e1                	jmp    *%ecx

c0101b55 <stage4>:
c0101b55:	0f 01 15 00 80 10 c0 	lgdtl  0xc0108000
c0101b5c:	66 b8 10 00          	mov    $0x10,%ax
c0101b60:	8e d8                	mov    %eax,%ds
c0101b62:	8e d0                	mov    %eax,%ss
c0101b64:	8e c0                	mov    %eax,%es
c0101b66:	8e e0                	mov    %eax,%fs
c0101b68:	8e e8                	mov    %eax,%gs
c0101b6a:	ea 71 1b 10 c0 08 00 	ljmp   $0x8,$0xc0101b71

c0101b71 <stage5>:
c0101b71:	c7 05 00 c0 10 c0 00 	movl   $0x0,0xc010c000
c0101b78:	00 00 00 
c0101b7b:	0f 20 d9             	mov    %cr3,%ecx
c0101b7e:	0f 22 d9             	mov    %ecx,%cr3
c0101b81:	bc 10 d5 11 c0       	mov    $0xc011d510,%esp
c0101b86:	81 c3 00 00 00 c0    	add    $0xc0000000,%ebx
c0101b8c:	53                   	push   %ebx
c0101b8d:	50                   	push   %eax
c0101b8e:	31 ed                	xor    %ebp,%ebp
c0101b90:	e8 6b 26 00 00       	call   c0104200 <kernel_main>

c0101b95 <asm_refresh_cr3>:
c0101b95:	0f 20 d9             	mov    %cr3,%ecx
c0101b98:	0f 22 d9             	mov    %ecx,%cr3
c0101b9b:	c3                   	ret    
c0101b9c:	66 90                	xchg   %ax,%ax
c0101b9e:	66 90                	xchg   %ax,%ax

c0101ba0 <strlen>:
c0101ba0:	55                   	push   %ebp
c0101ba1:	31 c0                	xor    %eax,%eax
c0101ba3:	89 e5                	mov    %esp,%ebp
c0101ba5:	8b 55 08             	mov    0x8(%ebp),%edx
c0101ba8:	80 3a 00             	cmpb   $0x0,(%edx)
c0101bab:	74 0c                	je     c0101bb9 <strlen+0x19>
c0101bad:	8d 76 00             	lea    0x0(%esi),%esi
c0101bb0:	83 c0 01             	add    $0x1,%eax
c0101bb3:	80 3c 02 00          	cmpb   $0x0,(%edx,%eax,1)
c0101bb7:	75 f7                	jne    c0101bb0 <strlen+0x10>
c0101bb9:	5d                   	pop    %ebp
c0101bba:	c3                   	ret    
c0101bbb:	8d 74 26 00          	lea    0x0(%esi,%eiz,1),%esi
c0101bbf:	90                   	nop

c0101bc0 <__udivmoddi4>:
c0101bc0:	55                   	push   %ebp
c0101bc1:	89 e5                	mov    %esp,%ebp
c0101bc3:	57                   	push   %edi
c0101bc4:	56                   	push   %esi
c0101bc5:	53                   	push   %ebx
c0101bc6:	83 ec 1c             	sub    $0x1c,%esp
c0101bc9:	8b 45 08             	mov    0x8(%ebp),%eax
c0101bcc:	8b 55 0c             	mov    0xc(%ebp),%edx
c0101bcf:	89 45 e8             	mov    %eax,-0x18(%ebp)
c0101bd2:	8b 45 10             	mov    0x10(%ebp),%eax
c0101bd5:	89 55 ec             	mov    %edx,-0x14(%ebp)
c0101bd8:	8b 55 14             	mov    0x14(%ebp),%edx
c0101bdb:	89 c1                	mov    %eax,%ecx
c0101bdd:	09 d1                	or     %edx,%ecx
c0101bdf:	0f 84 9b 00 00 00    	je     c0101c80 <__udivmoddi4+0xc0>
c0101be5:	b9 01 00 00 00       	mov    $0x1,%ecx
c0101bea:	31 db                	xor    %ebx,%ebx
c0101bec:	85 d2                	test   %edx,%edx
c0101bee:	78 1a                	js     c0101c0a <__udivmoddi4+0x4a>
c0101bf0:	0f a4 c2 01          	shld   $0x1,%eax,%edx
c0101bf4:	0f a4 cb 01          	shld   $0x1,%ecx,%ebx
c0101bf8:	01 c0                	add    %eax,%eax
c0101bfa:	01 c9                	add    %ecx,%ecx
c0101bfc:	85 d2                	test   %edx,%edx
c0101bfe:	79 f0                	jns    c0101bf0 <__udivmoddi4+0x30>
c0101c00:	89 ce                	mov    %ecx,%esi
c0101c02:	09 de                	or     %ebx,%esi
c0101c04:	0f 84 86 00 00 00    	je     c0101c90 <__udivmoddi4+0xd0>
c0101c0a:	c7 45 d8 00 00 00 00 	movl   $0x0,-0x28(%ebp)
c0101c11:	c7 45 dc 00 00 00 00 	movl   $0x0,-0x24(%ebp)
c0101c18:	89 4d e0             	mov    %ecx,-0x20(%ebp)
c0101c1b:	89 5d e4             	mov    %ebx,-0x1c(%ebp)
c0101c1e:	66 90                	xchg   %ax,%ax
c0101c20:	8b 5d ec             	mov    -0x14(%ebp),%ebx
c0101c23:	39 45 e8             	cmp    %eax,-0x18(%ebp)
c0101c26:	19 d3                	sbb    %edx,%ebx
c0101c28:	72 12                	jb     c0101c3c <__udivmoddi4+0x7c>
c0101c2a:	29 45 e8             	sub    %eax,-0x18(%ebp)
c0101c2d:	8b 75 e0             	mov    -0x20(%ebp),%esi
c0101c30:	19 55 ec             	sbb    %edx,-0x14(%ebp)
c0101c33:	8b 7d e4             	mov    -0x1c(%ebp),%edi
c0101c36:	01 75 d8             	add    %esi,-0x28(%ebp)
c0101c39:	11 7d dc             	adc    %edi,-0x24(%ebp)
c0101c3c:	8b 5d e4             	mov    -0x1c(%ebp),%ebx
c0101c3f:	8b 4d e0             	mov    -0x20(%ebp),%ecx
c0101c42:	0f ac d0 01          	shrd   $0x1,%edx,%eax
c0101c46:	d1 ea                	shr    %edx
c0101c48:	0f ac d9 01          	shrd   $0x1,%ebx,%ecx
c0101c4c:	d1 eb                	shr    %ebx
c0101c4e:	89 5d e4             	mov    %ebx,-0x1c(%ebp)
c0101c51:	09 cb                	or     %ecx,%ebx
c0101c53:	89 4d e0             	mov    %ecx,-0x20(%ebp)
c0101c56:	75 c8                	jne    c0101c20 <__udivmoddi4+0x60>
c0101c58:	8b 45 18             	mov    0x18(%ebp),%eax
c0101c5b:	85 c0                	test   %eax,%eax
c0101c5d:	74 0e                	je     c0101c6d <__udivmoddi4+0xad>
c0101c5f:	8b 7d 18             	mov    0x18(%ebp),%edi
c0101c62:	8b 45 e8             	mov    -0x18(%ebp),%eax
c0101c65:	8b 55 ec             	mov    -0x14(%ebp),%edx
c0101c68:	89 07                	mov    %eax,(%edi)
c0101c6a:	89 57 04             	mov    %edx,0x4(%edi)
c0101c6d:	8b 45 d8             	mov    -0x28(%ebp),%eax
c0101c70:	8b 55 dc             	mov    -0x24(%ebp),%edx
c0101c73:	83 c4 1c             	add    $0x1c,%esp
c0101c76:	5b                   	pop    %ebx
c0101c77:	5e                   	pop    %esi
c0101c78:	5f                   	pop    %edi
c0101c79:	5d                   	pop    %ebp
c0101c7a:	c3                   	ret    
c0101c7b:	8d 74 26 00          	lea    0x0(%esi,%eiz,1),%esi
c0101c7f:	90                   	nop
c0101c80:	0f 0b                	ud2    
c0101c82:	8d b4 26 00 00 00 00 	lea    0x0(%esi,%eiz,1),%esi
c0101c89:	8d b4 26 00 00 00 00 	lea    0x0(%esi,%eiz,1),%esi
c0101c90:	89 4d d8             	mov    %ecx,-0x28(%ebp)
c0101c93:	89 5d dc             	mov    %ebx,-0x24(%ebp)
c0101c96:	eb c0                	jmp    c0101c58 <__udivmoddi4+0x98>
c0101c98:	8d b4 26 00 00 00 00 	lea    0x0(%esi,%eiz,1),%esi
c0101c9f:	90                   	nop

c0101ca0 <memcpy>:
c0101ca0:	55                   	push   %ebp
c0101ca1:	89 e5                	mov    %esp,%ebp
c0101ca3:	57                   	push   %edi
c0101ca4:	8b 45 10             	mov    0x10(%ebp),%eax
c0101ca7:	8b 55 08             	mov    0x8(%ebp),%edx
c0101caa:	56                   	push   %esi
c0101cab:	8b 75 0c             	mov    0xc(%ebp),%esi
c0101cae:	85 c0                	test   %eax,%eax
c0101cb0:	74 13                	je     c0101cc5 <memcpy+0x25>
c0101cb2:	01 d0                	add    %edx,%eax
c0101cb4:	89 d7                	mov    %edx,%edi
c0101cb6:	8d b4 26 00 00 00 00 	lea    0x0(%esi,%eiz,1),%esi
c0101cbd:	8d 76 00             	lea    0x0(%esi),%esi
c0101cc0:	a4                   	movsb  %ds:(%esi),%es:(%edi)
c0101cc1:	39 c7                	cmp    %eax,%edi
c0101cc3:	75 fb                	jne    c0101cc0 <memcpy+0x20>
c0101cc5:	5e                   	pop    %esi
c0101cc6:	89 d0                	mov    %edx,%eax
c0101cc8:	5f                   	pop    %edi
c0101cc9:	5d                   	pop    %ebp
c0101cca:	c3                   	ret    
c0101ccb:	8d 74 26 00          	lea    0x0(%esi,%eiz,1),%esi
c0101ccf:	90                   	nop

c0101cd0 <strcpy>:
c0101cd0:	55                   	push   %ebp
c0101cd1:	31 c0                	xor    %eax,%eax
c0101cd3:	89 e5                	mov    %esp,%ebp
c0101cd5:	53                   	push   %ebx
c0101cd6:	8b 4d 08             	mov    0x8(%ebp),%ecx
c0101cd9:	8b 5d 0c             	mov    0xc(%ebp),%ebx
c0101cdc:	8d 74 26 00          	lea    0x0(%esi,%eiz,1),%esi
c0101ce0:	0f b6 14 03          	movzbl (%ebx,%eax,1),%edx
c0101ce4:	88 14 01             	mov    %dl,(%ecx,%eax,1)
c0101ce7:	83 c0 01             	add    $0x1,%eax
c0101cea:	84 d2                	test   %dl,%dl
c0101cec:	75 f2                	jne    c0101ce0 <strcpy+0x10>
c0101cee:	8b 5d fc             	mov    -0x4(%ebp),%ebx
c0101cf1:	89 c8                	mov    %ecx,%eax
c0101cf3:	c9                   	leave  
c0101cf4:	c3                   	ret    
c0101cf5:	8d b4 26 00 00 00 00 	lea    0x0(%esi,%eiz,1),%esi
c0101cfc:	8d 74 26 00          	lea    0x0(%esi,%eiz,1),%esi

c0101d00 <strcmp>:
c0101d00:	55                   	push   %ebp
c0101d01:	89 e5                	mov    %esp,%ebp
c0101d03:	53                   	push   %ebx
c0101d04:	8b 4d 08             	mov    0x8(%ebp),%ecx
c0101d07:	8b 55 0c             	mov    0xc(%ebp),%edx
c0101d0a:	0f b6 01             	movzbl (%ecx),%eax
c0101d0d:	0f b6 1a             	movzbl (%edx),%ebx
c0101d10:	38 c3                	cmp    %al,%bl
c0101d12:	74 1e                	je     c0101d32 <strcmp+0x32>
c0101d14:	eb 2a                	jmp    c0101d40 <strcmp+0x40>
c0101d16:	8d b4 26 00 00 00 00 	lea    0x0(%esi,%eiz,1),%esi
c0101d1d:	8d 76 00             	lea    0x0(%esi),%esi
c0101d20:	0f b6 41 01          	movzbl 0x1(%ecx),%eax
c0101d24:	0f b6 5a 01          	movzbl 0x1(%edx),%ebx
c0101d28:	83 c1 01             	add    $0x1,%ecx
c0101d2b:	83 c2 01             	add    $0x1,%edx
c0101d2e:	38 d8                	cmp    %bl,%al
c0101d30:	75 0e                	jne    c0101d40 <strcmp+0x40>
c0101d32:	84 c0                	test   %al,%al
c0101d34:	75 ea                	jne    c0101d20 <strcmp+0x20>
c0101d36:	8b 5d fc             	mov    -0x4(%ebp),%ebx
c0101d39:	31 c0                	xor    %eax,%eax
c0101d3b:	c9                   	leave  
c0101d3c:	c3                   	ret    
c0101d3d:	8d 76 00             	lea    0x0(%esi),%esi
c0101d40:	38 d8                	cmp    %bl,%al
c0101d42:	8b 5d fc             	mov    -0x4(%ebp),%ebx
c0101d45:	c9                   	leave  
c0101d46:	19 c0                	sbb    %eax,%eax
c0101d48:	83 c8 01             	or     $0x1,%eax
c0101d4b:	c3                   	ret    
c0101d4c:	8d 74 26 00          	lea    0x0(%esi,%eiz,1),%esi

c0101d50 <atoi>:
c0101d50:	55                   	push   %ebp
c0101d51:	89 e5                	mov    %esp,%ebp
c0101d53:	53                   	push   %ebx
c0101d54:	8b 4d 08             	mov    0x8(%ebp),%ecx
c0101d57:	0f b6 01             	movzbl (%ecx),%eax
c0101d5a:	8d 50 f7             	lea    -0x9(%eax),%edx
c0101d5d:	80 fa 04             	cmp    $0x4,%dl
c0101d60:	77 1d                	ja     c0101d7f <atoi+0x2f>
c0101d62:	8d b4 26 00 00 00 00 	lea    0x0(%esi,%eiz,1),%esi
c0101d69:	8d b4 26 00 00 00 00 	lea    0x0(%esi,%eiz,1),%esi
c0101d70:	0f b6 41 01          	movzbl 0x1(%ecx),%eax
c0101d74:	83 c1 01             	add    $0x1,%ecx
c0101d77:	8d 50 f7             	lea    -0x9(%eax),%edx
c0101d7a:	80 fa 04             	cmp    $0x4,%dl
c0101d7d:	76 f1                	jbe    c0101d70 <atoi+0x20>
c0101d7f:	3c 20                	cmp    $0x20,%al
c0101d81:	74 ed                	je     c0101d70 <atoi+0x20>
c0101d83:	8d 50 d0             	lea    -0x30(%eax),%edx
c0101d86:	80 fa 09             	cmp    $0x9,%dl
c0101d89:	ba 00 00 00 00       	mov    $0x0,%edx
c0101d8e:	77 1a                	ja     c0101daa <atoi+0x5a>
c0101d90:	83 e8 30             	sub    $0x30,%eax
c0101d93:	8d 14 92             	lea    (%edx,%edx,4),%edx
c0101d96:	83 c1 01             	add    $0x1,%ecx
c0101d99:	0f be c0             	movsbl %al,%eax
c0101d9c:	8d 14 50             	lea    (%eax,%edx,2),%edx
c0101d9f:	0f b6 01             	movzbl (%ecx),%eax
c0101da2:	8d 58 d0             	lea    -0x30(%eax),%ebx
c0101da5:	80 fb 09             	cmp    $0x9,%bl
c0101da8:	76 e6                	jbe    c0101d90 <atoi+0x40>
c0101daa:	8b 5d fc             	mov    -0x4(%ebp),%ebx
c0101dad:	89 d0                	mov    %edx,%eax
c0101daf:	c9                   	leave  
c0101db0:	c3                   	ret    
c0101db1:	8d b4 26 00 00 00 00 	lea    0x0(%esi,%eiz,1),%esi
c0101db8:	8d b4 26 00 00 00 00 	lea    0x0(%esi,%eiz,1),%esi
c0101dbf:	90                   	nop

c0101dc0 <hex2int>:
c0101dc0:	55                   	push   %ebp
c0101dc1:	89 e5                	mov    %esp,%ebp
c0101dc3:	56                   	push   %esi
c0101dc4:	8b 75 0c             	mov    0xc(%ebp),%esi
c0101dc7:	53                   	push   %ebx
c0101dc8:	85 f6                	test   %esi,%esi
c0101dca:	74 54                	je     c0101e20 <hex2int+0x60>
c0101dcc:	8b 55 08             	mov    0x8(%ebp),%edx
c0101dcf:	8d 0c b5 fc ff ff ff 	lea    -0x4(,%esi,4),%ecx
c0101dd6:	31 db                	xor    %ebx,%ebx
c0101dd8:	01 d6                	add    %edx,%esi
c0101dda:	eb 15                	jmp    c0101df1 <hex2int+0x31>
c0101ddc:	8d 74 26 00          	lea    0x0(%esi,%eiz,1),%esi
c0101de0:	83 e8 30             	sub    $0x30,%eax
c0101de3:	83 c2 01             	add    $0x1,%edx
c0101de6:	d3 e0                	shl    %cl,%eax
c0101de8:	83 e9 04             	sub    $0x4,%ecx
c0101deb:	01 c3                	add    %eax,%ebx
c0101ded:	39 f2                	cmp    %esi,%edx
c0101def:	74 1b                	je     c0101e0c <hex2int+0x4c>
c0101df1:	0f be 02             	movsbl (%edx),%eax
c0101df4:	3c 39                	cmp    $0x39,%al
c0101df6:	7e e8                	jle    c0101de0 <hex2int+0x20>
c0101df8:	83 e8 37             	sub    $0x37,%eax
c0101dfb:	83 c2 01             	add    $0x1,%edx
c0101dfe:	0f be c0             	movsbl %al,%eax
c0101e01:	d3 e0                	shl    %cl,%eax
c0101e03:	83 e9 04             	sub    $0x4,%ecx
c0101e06:	01 c3                	add    %eax,%ebx
c0101e08:	39 f2                	cmp    %esi,%edx
c0101e0a:	75 e5                	jne    c0101df1 <hex2int+0x31>
c0101e0c:	89 d8                	mov    %ebx,%eax
c0101e0e:	5b                   	pop    %ebx
c0101e0f:	5e                   	pop    %esi
c0101e10:	5d                   	pop    %ebp
c0101e11:	c3                   	ret    
c0101e12:	8d b4 26 00 00 00 00 	lea    0x0(%esi,%eiz,1),%esi
c0101e19:	8d b4 26 00 00 00 00 	lea    0x0(%esi,%eiz,1),%esi
c0101e20:	31 db                	xor    %ebx,%ebx
c0101e22:	89 d8                	mov    %ebx,%eax
c0101e24:	5b                   	pop    %ebx
c0101e25:	5e                   	pop    %esi
c0101e26:	5d                   	pop    %ebp
c0101e27:	c3                   	ret    
c0101e28:	66 90                	xchg   %ax,%ax
c0101e2a:	66 90                	xchg   %ax,%ax
c0101e2c:	66 90                	xchg   %ax,%ax
c0101e2e:	66 90                	xchg   %ax,%ax

c0101e30 <stack_trace_test_func_a>:
c0101e30:	55                   	push   %ebp
c0101e31:	89 e5                	mov    %esp,%ebp
c0101e33:	83 ec 08             	sub    $0x8,%esp
c0101e36:	e8 05 00 00 00       	call   c0101e40 <stack_trace_test_func_b>
c0101e3b:	90                   	nop
c0101e3c:	c9                   	leave  
c0101e3d:	c3                   	ret    
c0101e3e:	66 90                	xchg   %ax,%ax

c0101e40 <stack_trace_test_func_b>:
c0101e40:	55                   	push   %ebp
c0101e41:	89 e5                	mov    %esp,%ebp
c0101e43:	83 ec 08             	sub    $0x8,%esp
c0101e46:	e8 05 00 00 00       	call   c0101e50 <stack_trace_test_func_c>
c0101e4b:	90                   	nop
c0101e4c:	c9                   	leave  
c0101e4d:	c3                   	ret    
c0101e4e:	66 90                	xchg   %ax,%ax

c0101e50 <stack_trace_test_func_c>:
c0101e50:	55                   	push   %ebp
c0101e51:	89 e5                	mov    %esp,%ebp
c0101e53:	83 ec 08             	sub    $0x8,%esp
c0101e56:	e8 05 00 00 00       	call   c0101e60 <stack_trace_test_func_d>
c0101e5b:	90                   	nop
c0101e5c:	c9                   	leave  
c0101e5d:	c3                   	ret    
c0101e5e:	66 90                	xchg   %ax,%ax

c0101e60 <stack_trace_test_func_d>:
c0101e60:	55                   	push   %ebp
c0101e61:	89 e5                	mov    %esp,%ebp
c0101e63:	83 ec 08             	sub    $0x8,%esp
c0101e66:	e8 45 06 00 00       	call   c01024b0 <debugf_stack_trace>
c0101e6b:	90                   	nop
c0101e6c:	c9                   	leave  
c0101e6d:	c3                   	ret    
c0101e6e:	66 90                	xchg   %ax,%ax

c0101e70 <kdebug_add_symbol>:
c0101e70:	55                   	push   %ebp
c0101e71:	a1 20 10 11 c0       	mov    0xc0111020,%eax
c0101e76:	8d 14 40             	lea    (%eax,%eax,2),%edx
c0101e79:	83 c0 01             	add    $0x1,%eax
c0101e7c:	89 e5                	mov    %esp,%ebp
c0101e7e:	53                   	push   %ebx
c0101e7f:	c1 e2 02             	shl    $0x2,%edx
c0101e82:	8b 5d 08             	mov    0x8(%ebp),%ebx
c0101e85:	8d 8a 20 e0 10 c0    	lea    -0x3fef1fe0(%edx),%ecx
c0101e8b:	a3 20 10 11 c0       	mov    %eax,0xc0111020
c0101e90:	89 9a 20 e0 10 c0    	mov    %ebx,-0x3fef1fe0(%edx)
c0101e96:	8b 55 0c             	mov    0xc(%ebp),%edx
c0101e99:	8b 5d fc             	mov    -0x4(%ebp),%ebx
c0101e9c:	89 51 04             	mov    %edx,0x4(%ecx)
c0101e9f:	8b 55 10             	mov    0x10(%ebp),%edx
c0101ea2:	89 51 08             	mov    %edx,0x8(%ecx)
c0101ea5:	c9                   	leave  
c0101ea6:	c3                   	ret    
c0101ea7:	8d b4 26 00 00 00 00 	lea    0x0(%esi,%eiz,1),%esi
c0101eae:	66 90                	xchg   %ax,%ax

c0101eb0 <kdebug_get_symbol_array>:
c0101eb0:	b8 20 e0 10 c0       	mov    $0xc010e020,%eax
c0101eb5:	c3                   	ret    
c0101eb6:	8d b4 26 00 00 00 00 	lea    0x0(%esi,%eiz,1),%esi
c0101ebd:	8d 76 00             	lea    0x0(%esi),%esi

c0101ec0 <kdebug_get_function_at>:
c0101ec0:	55                   	push   %ebp
c0101ec1:	b8 20 e0 10 c0       	mov    $0xc010e020,%eax
c0101ec6:	89 e5                	mov    %esp,%ebp
c0101ec8:	56                   	push   %esi
c0101ec9:	be 60 80 10 c0       	mov    $0xc0108060,%esi
c0101ece:	53                   	push   %ebx
c0101ecf:	8b 5d 08             	mov    0x8(%ebp),%ebx
c0101ed2:	8d b4 26 00 00 00 00 	lea    0x0(%esi,%eiz,1),%esi
c0101ed9:	8d b4 26 00 00 00 00 	lea    0x0(%esi,%eiz,1),%esi
c0101ee0:	8b 50 08             	mov    0x8(%eax),%edx
c0101ee3:	85 d2                	test   %edx,%edx
c0101ee5:	74 19                	je     c0101f00 <kdebug_get_function_at+0x40>
c0101ee7:	8b 48 04             	mov    0x4(%eax),%ecx
c0101eea:	39 d9                	cmp    %ebx,%ecx
c0101eec:	77 12                	ja     c0101f00 <kdebug_get_function_at+0x40>
c0101eee:	01 ca                	add    %ecx,%edx
c0101ef0:	39 da                	cmp    %ebx,%edx
c0101ef2:	76 0c                	jbe    c0101f00 <kdebug_get_function_at+0x40>
c0101ef4:	8b 30                	mov    (%eax),%esi
c0101ef6:	8d b4 26 00 00 00 00 	lea    0x0(%esi,%eiz,1),%esi
c0101efd:	8d 76 00             	lea    0x0(%esi),%esi
c0101f00:	83 c0 0c             	add    $0xc,%eax
c0101f03:	3d 20 10 11 c0       	cmp    $0xc0111020,%eax
c0101f08:	75 d6                	jne    c0101ee0 <kdebug_get_function_at+0x20>
c0101f0a:	89 f0                	mov    %esi,%eax
c0101f0c:	5b                   	pop    %ebx
c0101f0d:	5e                   	pop    %esi
c0101f0e:	5d                   	pop    %ebp
c0101f0f:	c3                   	ret    

c0101f10 <kdebug_get_symbol>:
c0101f10:	55                   	push   %ebp
c0101f11:	89 e5                	mov    %esp,%ebp
c0101f13:	57                   	push   %edi
c0101f14:	31 ff                	xor    %edi,%edi
c0101f16:	56                   	push   %esi
c0101f17:	be 20 10 11 c0       	mov    $0xc0111020,%esi
c0101f1c:	53                   	push   %ebx
c0101f1d:	bb 20 e0 10 c0       	mov    $0xc010e020,%ebx
c0101f22:	83 ec 0c             	sub    $0xc,%esp
c0101f25:	8d b4 26 00 00 00 00 	lea    0x0(%esi,%eiz,1),%esi
c0101f2c:	8d 74 26 00          	lea    0x0(%esi,%eiz,1),%esi
c0101f30:	8b 03                	mov    (%ebx),%eax
c0101f32:	80 38 00             	cmpb   $0x0,(%eax)
c0101f35:	74 14                	je     c0101f4b <kdebug_get_symbol+0x3b>
c0101f37:	83 ec 08             	sub    $0x8,%esp
c0101f3a:	ff 75 08             	push   0x8(%ebp)
c0101f3d:	50                   	push   %eax
c0101f3e:	e8 bd fd ff ff       	call   c0101d00 <strcmp>
c0101f43:	83 c4 10             	add    $0x10,%esp
c0101f46:	85 c0                	test   %eax,%eax
c0101f48:	0f 44 fb             	cmove  %ebx,%edi
c0101f4b:	83 c3 0c             	add    $0xc,%ebx
c0101f4e:	39 de                	cmp    %ebx,%esi
c0101f50:	75 de                	jne    c0101f30 <kdebug_get_symbol+0x20>
c0101f52:	8d 65 f4             	lea    -0xc(%ebp),%esp
c0101f55:	89 f8                	mov    %edi,%eax
c0101f57:	5b                   	pop    %ebx
c0101f58:	5e                   	pop    %esi
c0101f59:	5f                   	pop    %edi
c0101f5a:	5d                   	pop    %ebp
c0101f5b:	c3                   	ret    
c0101f5c:	8d 74 26 00          	lea    0x0(%esi,%eiz,1),%esi

c0101f60 <kdebug_get_symbol_addr>:
c0101f60:	55                   	push   %ebp
c0101f61:	89 e5                	mov    %esp,%ebp
c0101f63:	57                   	push   %edi
c0101f64:	31 ff                	xor    %edi,%edi
c0101f66:	56                   	push   %esi
c0101f67:	be 20 10 11 c0       	mov    $0xc0111020,%esi
c0101f6c:	53                   	push   %ebx
c0101f6d:	bb 20 e0 10 c0       	mov    $0xc010e020,%ebx
c0101f72:	83 ec 0c             	sub    $0xc,%esp
c0101f75:	8d b4 26 00 00 00 00 	lea    0x0(%esi,%eiz,1),%esi
c0101f7c:	8d 74 26 00          	lea    0x0(%esi,%eiz,1),%esi
c0101f80:	8b 03                	mov    (%ebx),%eax
c0101f82:	80 38 00             	cmpb   $0x0,(%eax)
c0101f85:	74 14                	je     c0101f9b <kdebug_get_symbol_addr+0x3b>
c0101f87:	83 ec 08             	sub    $0x8,%esp
c0101f8a:	ff 75 08             	push   0x8(%ebp)
c0101f8d:	50                   	push   %eax
c0101f8e:	e8 6d fd ff ff       	call   c0101d00 <strcmp>
c0101f93:	83 c4 10             	add    $0x10,%esp
c0101f96:	85 c0                	test   %eax,%eax
c0101f98:	0f 44 fb             	cmove  %ebx,%edi
c0101f9b:	83 c3 0c             	add    $0xc,%ebx
c0101f9e:	39 de                	cmp    %ebx,%esi
c0101fa0:	75 de                	jne    c0101f80 <kdebug_get_symbol_addr+0x20>
c0101fa2:	31 c0                	xor    %eax,%eax
c0101fa4:	85 ff                	test   %edi,%edi
c0101fa6:	74 03                	je     c0101fab <kdebug_get_symbol_addr+0x4b>
c0101fa8:	8b 47 04             	mov    0x4(%edi),%eax
c0101fab:	8d 65 f4             	lea    -0xc(%ebp),%esp
c0101fae:	5b                   	pop    %ebx
c0101faf:	5e                   	pop    %esi
c0101fb0:	5f                   	pop    %edi
c0101fb1:	5d                   	pop    %ebp
c0101fb2:	c3                   	ret    
c0101fb3:	8d b4 26 00 00 00 00 	lea    0x0(%esi,%eiz,1),%esi
c0101fba:	8d b6 00 00 00 00    	lea    0x0(%esi),%esi

c0101fc0 <kdebug_peek_at>:
c0101fc0:	55                   	push   %ebp
c0101fc1:	89 e5                	mov    %esp,%ebp
c0101fc3:	57                   	push   %edi
c0101fc4:	56                   	push   %esi
c0101fc5:	53                   	push   %ebx
c0101fc6:	83 ec 44             	sub    $0x44,%esp
c0101fc9:	8b 75 08             	mov    0x8(%ebp),%esi
c0101fcc:	56                   	push   %esi
c0101fcd:	68 00 72 10 c0       	push   $0xc0107200
c0101fd2:	e8 c9 f7 ff ff       	call   c01017a0 <printf_>
c0101fd7:	c7 04 24 01 00 00 00 	movl   $0x1,(%esp)
c0101fde:	e8 ad 46 00 00       	call   c0106690 <set_debug_output>
c0101fe3:	5f                   	pop    %edi
c0101fe4:	58                   	pop    %eax
c0101fe5:	56                   	push   %esi
c0101fe6:	68 00 72 10 c0       	push   $0xc0107200
c0101feb:	bf 2e 00 00 00       	mov    $0x2e,%edi
c0101ff0:	e8 ab f7 ff ff       	call   c01017a0 <printf_>
c0101ff5:	c7 04 24 00 00 00 00 	movl   $0x0,(%esp)
c0101ffc:	e8 8f 46 00 00       	call   c0106690 <set_debug_output>
c0102001:	8d 46 64             	lea    0x64(%esi),%eax
c0102004:	83 c4 10             	add    $0x10,%esp
c0102007:	89 45 bc             	mov    %eax,-0x44(%ebp)
c010200a:	8d b6 00 00 00 00    	lea    0x0(%esi),%esi
c0102010:	83 ec 0c             	sub    $0xc,%esp
c0102013:	6a 01                	push   $0x1
c0102015:	e8 76 46 00 00       	call   c0106690 <set_debug_output>
c010201a:	0f b6 06             	movzbl (%esi),%eax
c010201d:	59                   	pop    %ecx
c010201e:	5b                   	pop    %ebx
c010201f:	8d 50 e0             	lea    -0x20(%eax),%edx
c0102022:	88 45 de             	mov    %al,-0x22(%ebp)
c0102025:	80 fa 5f             	cmp    $0x5f,%dl
c0102028:	0f 43 c7             	cmovae %edi,%eax
c010202b:	0f be c8             	movsbl %al,%ecx
c010202e:	0f b6 46 01          	movzbl 0x1(%esi),%eax
c0102032:	89 4d c0             	mov    %ecx,-0x40(%ebp)
c0102035:	8d 50 e0             	lea    -0x20(%eax),%edx
c0102038:	88 45 df             	mov    %al,-0x21(%ebp)
c010203b:	80 fa 5f             	cmp    $0x5f,%dl
c010203e:	0f 43 c7             	cmovae %edi,%eax
c0102041:	0f be d0             	movsbl %al,%edx
c0102044:	0f b6 46 02          	movzbl 0x2(%esi),%eax
c0102048:	89 55 c4             	mov    %edx,-0x3c(%ebp)
c010204b:	8d 50 e0             	lea    -0x20(%eax),%edx
c010204e:	88 45 e0             	mov    %al,-0x20(%ebp)
c0102051:	80 fa 5f             	cmp    $0x5f,%dl
c0102054:	0f 43 c7             	cmovae %edi,%eax
c0102057:	0f be c8             	movsbl %al,%ecx
c010205a:	0f b6 46 03          	movzbl 0x3(%esi),%eax
c010205e:	89 4d cc             	mov    %ecx,-0x34(%ebp)
c0102061:	8d 50 e0             	lea    -0x20(%eax),%edx
c0102064:	88 45 e1             	mov    %al,-0x1f(%ebp)
c0102067:	80 fa 5f             	cmp    $0x5f,%dl
c010206a:	0f 43 c7             	cmovae %edi,%eax
c010206d:	0f be d0             	movsbl %al,%edx
c0102070:	0f b6 46 04          	movzbl 0x4(%esi),%eax
c0102074:	89 55 c8             	mov    %edx,-0x38(%ebp)
c0102077:	8d 50 e0             	lea    -0x20(%eax),%edx
c010207a:	88 45 e2             	mov    %al,-0x1e(%ebp)
c010207d:	80 fa 5f             	cmp    $0x5f,%dl
c0102080:	0f 43 c7             	cmovae %edi,%eax
c0102083:	0f be c8             	movsbl %al,%ecx
c0102086:	0f b6 46 05          	movzbl 0x5(%esi),%eax
c010208a:	89 4d d4             	mov    %ecx,-0x2c(%ebp)
c010208d:	8d 50 e0             	lea    -0x20(%eax),%edx
c0102090:	88 45 e3             	mov    %al,-0x1d(%ebp)
c0102093:	80 fa 5f             	cmp    $0x5f,%dl
c0102096:	0f 43 c7             	cmovae %edi,%eax
c0102099:	0f be d0             	movsbl %al,%edx
c010209c:	0f b6 46 06          	movzbl 0x6(%esi),%eax
c01020a0:	89 55 d0             	mov    %edx,-0x30(%ebp)
c01020a3:	8d 50 e0             	lea    -0x20(%eax),%edx
c01020a6:	88 45 e4             	mov    %al,-0x1c(%ebp)
c01020a9:	80 fa 5f             	cmp    $0x5f,%dl
c01020ac:	0f be 56 08          	movsbl 0x8(%esi),%edx
c01020b0:	0f 43 c7             	cmovae %edi,%eax
c01020b3:	88 55 e6             	mov    %dl,-0x1a(%ebp)
c01020b6:	0f be c8             	movsbl %al,%ecx
c01020b9:	89 4d d8             	mov    %ecx,-0x28(%ebp)
c01020bc:	0f be 4e 07          	movsbl 0x7(%esi),%ecx
c01020c0:	8d 41 e0             	lea    -0x20(%ecx),%eax
c01020c3:	88 4d e5             	mov    %cl,-0x1b(%ebp)
c01020c6:	3c 5f                	cmp    $0x5f,%al
c01020c8:	8d 42 e0             	lea    -0x20(%edx),%eax
c01020cb:	0f 43 cf             	cmovae %edi,%ecx
c01020ce:	3c 5f                	cmp    $0x5f,%al
c01020d0:	0f be 46 09          	movsbl 0x9(%esi),%eax
c01020d4:	ff 75 c0             	push   -0x40(%ebp)
c01020d7:	0f 43 d7             	cmovae %edi,%edx
c01020da:	8d 58 e0             	lea    -0x20(%eax),%ebx
c01020dd:	88 45 e7             	mov    %al,-0x19(%ebp)
c01020e0:	80 fb 5f             	cmp    $0x5f,%bl
c01020e3:	ff 75 c4             	push   -0x3c(%ebp)
c01020e6:	0f 43 c7             	cmovae %edi,%eax
c01020e9:	ff 75 cc             	push   -0x34(%ebp)
c01020ec:	ff 75 c8             	push   -0x38(%ebp)
c01020ef:	ff 75 d4             	push   -0x2c(%ebp)
c01020f2:	ff 75 d0             	push   -0x30(%ebp)
c01020f5:	ff 75 d8             	push   -0x28(%ebp)
c01020f8:	51                   	push   %ecx
c01020f9:	52                   	push   %edx
c01020fa:	50                   	push   %eax
c01020fb:	0f b6 45 de          	movzbl -0x22(%ebp),%eax
c01020ff:	50                   	push   %eax
c0102100:	0f b6 45 df          	movzbl -0x21(%ebp),%eax
c0102104:	50                   	push   %eax
c0102105:	0f b6 45 e0          	movzbl -0x20(%ebp),%eax
c0102109:	50                   	push   %eax
c010210a:	0f b6 45 e1          	movzbl -0x1f(%ebp),%eax
c010210e:	50                   	push   %eax
c010210f:	0f b6 45 e2          	movzbl -0x1e(%ebp),%eax
c0102113:	50                   	push   %eax
c0102114:	0f b6 45 e3          	movzbl -0x1d(%ebp),%eax
c0102118:	50                   	push   %eax
c0102119:	0f b6 45 e4          	movzbl -0x1c(%ebp),%eax
c010211d:	50                   	push   %eax
c010211e:	0f b6 45 e5          	movzbl -0x1b(%ebp),%eax
c0102122:	50                   	push   %eax
c0102123:	0f b6 45 e6          	movzbl -0x1a(%ebp),%eax
c0102127:	50                   	push   %eax
c0102128:	0f b6 45 e7          	movzbl -0x19(%ebp),%eax
c010212c:	50                   	push   %eax
c010212d:	56                   	push   %esi
c010212e:	68 14 72 10 c0       	push   $0xc0107214
c0102133:	e8 68 f6 ff ff       	call   c01017a0 <printf_>
c0102138:	83 c4 54             	add    $0x54,%esp
c010213b:	6a 00                	push   $0x0
c010213d:	e8 4e 45 00 00       	call   c0106690 <set_debug_output>
c0102142:	0f b6 06             	movzbl (%esi),%eax
c0102145:	59                   	pop    %ecx
c0102146:	5b                   	pop    %ebx
c0102147:	8d 50 e0             	lea    -0x20(%eax),%edx
c010214a:	88 45 de             	mov    %al,-0x22(%ebp)
c010214d:	80 fa 5f             	cmp    $0x5f,%dl
c0102150:	0f 43 c7             	cmovae %edi,%eax
c0102153:	0f be c8             	movsbl %al,%ecx
c0102156:	0f b6 46 01          	movzbl 0x1(%esi),%eax
c010215a:	89 4d c4             	mov    %ecx,-0x3c(%ebp)
c010215d:	8d 50 e0             	lea    -0x20(%eax),%edx
c0102160:	88 45 df             	mov    %al,-0x21(%ebp)
c0102163:	80 fa 5f             	cmp    $0x5f,%dl
c0102166:	0f 43 c7             	cmovae %edi,%eax
c0102169:	0f be d0             	movsbl %al,%edx
c010216c:	0f b6 46 02          	movzbl 0x2(%esi),%eax
c0102170:	89 55 c0             	mov    %edx,-0x40(%ebp)
c0102173:	8d 50 e0             	lea    -0x20(%eax),%edx
c0102176:	88 45 e0             	mov    %al,-0x20(%ebp)
c0102179:	80 fa 5f             	cmp    $0x5f,%dl
c010217c:	0f 43 c7             	cmovae %edi,%eax
c010217f:	0f be c8             	movsbl %al,%ecx
c0102182:	0f b6 46 03          	movzbl 0x3(%esi),%eax
c0102186:	89 4d cc             	mov    %ecx,-0x34(%ebp)
c0102189:	8d 50 e0             	lea    -0x20(%eax),%edx
c010218c:	88 45 e1             	mov    %al,-0x1f(%ebp)
c010218f:	80 fa 5f             	cmp    $0x5f,%dl
c0102192:	0f 43 c7             	cmovae %edi,%eax
c0102195:	0f be d0             	movsbl %al,%edx
c0102198:	0f b6 46 04          	movzbl 0x4(%esi),%eax
c010219c:	89 55 c8             	mov    %edx,-0x38(%ebp)
c010219f:	8d 50 e0             	lea    -0x20(%eax),%edx
c01021a2:	88 45 e2             	mov    %al,-0x1e(%ebp)
c01021a5:	80 fa 5f             	cmp    $0x5f,%dl
c01021a8:	0f 43 c7             	cmovae %edi,%eax
c01021ab:	0f be c8             	movsbl %al,%ecx
c01021ae:	0f b6 46 05          	movzbl 0x5(%esi),%eax
c01021b2:	89 4d d4             	mov    %ecx,-0x2c(%ebp)
c01021b5:	8d 50 e0             	lea    -0x20(%eax),%edx
c01021b8:	88 45 e7             	mov    %al,-0x19(%ebp)
c01021bb:	80 fa 5f             	cmp    $0x5f,%dl
c01021be:	0f 43 c7             	cmovae %edi,%eax
c01021c1:	0f be d0             	movsbl %al,%edx
c01021c4:	0f b6 46 06          	movzbl 0x6(%esi),%eax
c01021c8:	89 55 d0             	mov    %edx,-0x30(%ebp)
c01021cb:	8d 50 e0             	lea    -0x20(%eax),%edx
c01021ce:	88 45 e6             	mov    %al,-0x1a(%ebp)
c01021d1:	80 fa 5f             	cmp    $0x5f,%dl
c01021d4:	0f be 56 08          	movsbl 0x8(%esi),%edx
c01021d8:	0f 43 c7             	cmovae %edi,%eax
c01021db:	88 55 e4             	mov    %dl,-0x1c(%ebp)
c01021de:	0f be c8             	movsbl %al,%ecx
c01021e1:	89 4d d8             	mov    %ecx,-0x28(%ebp)
c01021e4:	0f be 4e 07          	movsbl 0x7(%esi),%ecx
c01021e8:	8d 41 e0             	lea    -0x20(%ecx),%eax
c01021eb:	88 4d e5             	mov    %cl,-0x1b(%ebp)
c01021ee:	3c 5f                	cmp    $0x5f,%al
c01021f0:	8d 42 e0             	lea    -0x20(%edx),%eax
c01021f3:	0f 43 cf             	cmovae %edi,%ecx
c01021f6:	3c 5f                	cmp    $0x5f,%al
c01021f8:	0f be 46 09          	movsbl 0x9(%esi),%eax
c01021fc:	ff 75 c4             	push   -0x3c(%ebp)
c01021ff:	0f 43 d7             	cmovae %edi,%edx
c0102202:	8d 58 e0             	lea    -0x20(%eax),%ebx
c0102205:	88 45 e3             	mov    %al,-0x1d(%ebp)
c0102208:	80 fb 5f             	cmp    $0x5f,%bl
c010220b:	ff 75 c0             	push   -0x40(%ebp)
c010220e:	0f 43 c7             	cmovae %edi,%eax
c0102211:	ff 75 cc             	push   -0x34(%ebp)
c0102214:	ff 75 c8             	push   -0x38(%ebp)
c0102217:	ff 75 d4             	push   -0x2c(%ebp)
c010221a:	ff 75 d0             	push   -0x30(%ebp)
c010221d:	ff 75 d8             	push   -0x28(%ebp)
c0102220:	51                   	push   %ecx
c0102221:	52                   	push   %edx
c0102222:	50                   	push   %eax
c0102223:	0f b6 45 de          	movzbl -0x22(%ebp),%eax
c0102227:	50                   	push   %eax
c0102228:	0f b6 45 df          	movzbl -0x21(%ebp),%eax
c010222c:	50                   	push   %eax
c010222d:	0f b6 45 e0          	movzbl -0x20(%ebp),%eax
c0102231:	50                   	push   %eax
c0102232:	0f b6 45 e1          	movzbl -0x1f(%ebp),%eax
c0102236:	50                   	push   %eax
c0102237:	0f b6 45 e2          	movzbl -0x1e(%ebp),%eax
c010223b:	50                   	push   %eax
c010223c:	0f b6 45 e7          	movzbl -0x19(%ebp),%eax
c0102240:	50                   	push   %eax
c0102241:	0f b6 45 e6          	movzbl -0x1a(%ebp),%eax
c0102245:	50                   	push   %eax
c0102246:	0f b6 45 e5          	movzbl -0x1b(%ebp),%eax
c010224a:	50                   	push   %eax
c010224b:	0f b6 45 e4          	movzbl -0x1c(%ebp),%eax
c010224f:	50                   	push   %eax
c0102250:	0f b6 45 e3          	movzbl -0x1d(%ebp),%eax
c0102254:	50                   	push   %eax
c0102255:	56                   	push   %esi
c0102256:	83 c6 0a             	add    $0xa,%esi
c0102259:	68 14 72 10 c0       	push   $0xc0107214
c010225e:	e8 3d f5 ff ff       	call   c01017a0 <printf_>
c0102263:	83 c4 60             	add    $0x60,%esp
c0102266:	3b 75 bc             	cmp    -0x44(%ebp),%esi
c0102269:	0f 85 a1 fd ff ff    	jne    c0102010 <kdebug_peek_at+0x50>
c010226f:	c7 45 08 69 72 10 c0 	movl   $0xc0107269,0x8(%ebp)
c0102276:	8d 65 f4             	lea    -0xc(%ebp),%esp
c0102279:	5b                   	pop    %ebx
c010227a:	5e                   	pop    %esi
c010227b:	5f                   	pop    %edi
c010227c:	5d                   	pop    %ebp
c010227d:	e9 1e f5 ff ff       	jmp    c01017a0 <printf_>
c0102282:	8d b4 26 00 00 00 00 	lea    0x0(%esi,%eiz,1),%esi
c0102289:	8d b4 26 00 00 00 00 	lea    0x0(%esi,%eiz,1),%esi

c0102290 <k_log>:
c0102290:	55                   	push   %ebp
c0102291:	89 e5                	mov    %esp,%ebp
c0102293:	83 ec 14             	sub    $0x14,%esp
c0102296:	6a 01                	push   $0x1
c0102298:	e8 f3 43 00 00       	call   c0106690 <set_debug_output>
c010229d:	58                   	pop    %eax
c010229e:	8b 45 08             	mov    0x8(%ebp),%eax
c01022a1:	5a                   	pop    %edx
c01022a2:	ff 34 85 c0 73 10 c0 	push   -0x3fef8c40(,%eax,4)
c01022a9:	68 6b 72 10 c0       	push   $0xc010726b
c01022ae:	e8 ed f4 ff ff       	call   c01017a0 <printf_>
c01022b3:	8d 45 14             	lea    0x14(%ebp),%eax
c01022b6:	59                   	pop    %ecx
c01022b7:	5a                   	pop    %edx
c01022b8:	50                   	push   %eax
c01022b9:	ff 75 10             	push   0x10(%ebp)
c01022bc:	e8 5f f5 ff ff       	call   c0101820 <vprintf_>
c01022c1:	c7 04 24 69 72 10 c0 	movl   $0xc0107269,(%esp)
c01022c8:	e8 d3 f4 ff ff       	call   c01017a0 <printf_>
c01022cd:	c7 04 24 00 00 00 00 	movl   $0x0,(%esp)
c01022d4:	e8 b7 43 00 00       	call   c0106690 <set_debug_output>
c01022d9:	83 c4 10             	add    $0x10,%esp
c01022dc:	c9                   	leave  
c01022dd:	c3                   	ret    
c01022de:	66 90                	xchg   %ax,%ax

c01022e0 <peek_char>:
c01022e0:	55                   	push   %ebp
c01022e1:	89 e5                	mov    %esp,%ebp
c01022e3:	8b 45 08             	mov    0x8(%ebp),%eax
c01022e6:	5d                   	pop    %ebp
c01022e7:	8d 50 e0             	lea    -0x20(%eax),%edx
c01022ea:	80 fa 5f             	cmp    $0x5f,%dl
c01022ed:	ba 2e 00 00 00       	mov    $0x2e,%edx
c01022f2:	0f 43 c2             	cmovae %edx,%eax
c01022f5:	c3                   	ret    
c01022f6:	8d b4 26 00 00 00 00 	lea    0x0(%esi,%eiz,1),%esi
c01022fd:	8d 76 00             	lea    0x0(%esi),%esi

c0102300 <profile_start>:
c0102300:	55                   	push   %ebp
c0102301:	89 e5                	mov    %esp,%ebp
c0102303:	83 ec 08             	sub    $0x8,%esp
c0102306:	e8 45 1d 00 00       	call   c0104050 <get_timer_counter>
c010230b:	c7 05 04 e0 10 c0 00 	movl   $0x0,0xc010e004
c0102312:	00 00 00 
c0102315:	a3 00 e0 10 c0       	mov    %eax,0xc010e000
c010231a:	c7 05 08 e0 10 c0 00 	movl   $0x0,0xc010e008
c0102321:	00 00 00 
c0102324:	c9                   	leave  
c0102325:	c3                   	ret    
c0102326:	8d b4 26 00 00 00 00 	lea    0x0(%esi,%eiz,1),%esi
c010232d:	8d 76 00             	lea    0x0(%esi),%esi

c0102330 <profile_stop>:
c0102330:	55                   	push   %ebp
c0102331:	89 e5                	mov    %esp,%ebp
c0102333:	83 ec 08             	sub    $0x8,%esp
c0102336:	e8 15 1d 00 00       	call   c0104050 <get_timer_counter>
c010233b:	a3 04 e0 10 c0       	mov    %eax,0xc010e004
c0102340:	2b 05 00 e0 10 c0    	sub    0xc010e000,%eax
c0102346:	a3 08 e0 10 c0       	mov    %eax,0xc010e008
c010234b:	c9                   	leave  
c010234c:	c3                   	ret    
c010234d:	8d 76 00             	lea    0x0(%esi),%esi

c0102350 <get_profile_information>:
c0102350:	b8 00 e0 10 c0       	mov    $0xc010e000,%eax
c0102355:	c3                   	ret    
c0102356:	8d b4 26 00 00 00 00 	lea    0x0(%esi,%eiz,1),%esi
c010235d:	8d 76 00             	lea    0x0(%esi),%esi

c0102360 <profile_test_run>:
c0102360:	55                   	push   %ebp
c0102361:	89 e5                	mov    %esp,%ebp
c0102363:	53                   	push   %ebx
c0102364:	83 ec 04             	sub    $0x4,%esp
c0102367:	8b 5d 08             	mov    0x8(%ebp),%ebx
c010236a:	e8 e1 1c 00 00       	call   c0104050 <get_timer_counter>
c010236f:	c7 05 04 e0 10 c0 00 	movl   $0x0,0xc010e004
c0102376:	00 00 00 
c0102379:	a3 00 e0 10 c0       	mov    %eax,0xc010e000
c010237e:	c7 05 08 e0 10 c0 00 	movl   $0x0,0xc010e008
c0102385:	00 00 00 
c0102388:	85 db                	test   %ebx,%ebx
c010238a:	74 0c                	je     c0102398 <profile_test_run+0x38>
c010238c:	31 c0                	xor    %eax,%eax
c010238e:	66 90                	xchg   %ax,%ax
c0102390:	90                   	nop
c0102391:	83 c0 01             	add    $0x1,%eax
c0102394:	39 c3                	cmp    %eax,%ebx
c0102396:	75 f8                	jne    c0102390 <profile_test_run+0x30>
c0102398:	e8 b3 1c 00 00       	call   c0104050 <get_timer_counter>
c010239d:	83 ec 0c             	sub    $0xc,%esp
c01023a0:	6a 01                	push   $0x1
c01023a2:	a3 04 e0 10 c0       	mov    %eax,0xc010e004
c01023a7:	2b 05 00 e0 10 c0    	sub    0xc010e000,%eax
c01023ad:	a3 08 e0 10 c0       	mov    %eax,0xc010e008
c01023b2:	e8 d9 42 00 00       	call   c0106690 <set_debug_output>
c01023b7:	58                   	pop    %eax
c01023b8:	5a                   	pop    %edx
c01023b9:	53                   	push   %ebx
c01023ba:	68 71 72 10 c0       	push   $0xc0107271
c01023bf:	e8 dc f3 ff ff       	call   c01017a0 <printf_>
c01023c4:	c7 04 24 00 00 00 00 	movl   $0x0,(%esp)
c01023cb:	e8 c0 42 00 00       	call   c0106690 <set_debug_output>
c01023d0:	c7 04 24 01 00 00 00 	movl   $0x1,(%esp)
c01023d7:	e8 b4 42 00 00       	call   c0106690 <set_debug_output>
c01023dc:	c7 04 24 8c 72 10 c0 	movl   $0xc010728c,(%esp)
c01023e3:	e8 b8 f3 ff ff       	call   c01017a0 <printf_>
c01023e8:	c7 04 24 00 00 00 00 	movl   $0x0,(%esp)
c01023ef:	e8 9c 42 00 00       	call   c0106690 <set_debug_output>
c01023f4:	c7 04 24 01 00 00 00 	movl   $0x1,(%esp)
c01023fb:	e8 90 42 00 00       	call   c0106690 <set_debug_output>
c0102400:	59                   	pop    %ecx
c0102401:	5b                   	pop    %ebx
c0102402:	ff 35 00 e0 10 c0    	push   0xc010e000
c0102408:	68 cb 72 10 c0       	push   $0xc01072cb
c010240d:	e8 8e f3 ff ff       	call   c01017a0 <printf_>
c0102412:	c7 04 24 00 00 00 00 	movl   $0x0,(%esp)
c0102419:	e8 72 42 00 00       	call   c0106690 <set_debug_output>
c010241e:	c7 04 24 01 00 00 00 	movl   $0x1,(%esp)
c0102425:	e8 66 42 00 00       	call   c0106690 <set_debug_output>
c010242a:	58                   	pop    %eax
c010242b:	5a                   	pop    %edx
c010242c:	ff 35 04 e0 10 c0    	push   0xc010e004
c0102432:	68 e3 72 10 c0       	push   $0xc01072e3
c0102437:	e8 64 f3 ff ff       	call   c01017a0 <printf_>
c010243c:	c7 04 24 00 00 00 00 	movl   $0x0,(%esp)
c0102443:	e8 48 42 00 00       	call   c0106690 <set_debug_output>
c0102448:	c7 04 24 01 00 00 00 	movl   $0x1,(%esp)
c010244f:	e8 3c 42 00 00       	call   c0106690 <set_debug_output>
c0102454:	a1 08 e0 10 c0       	mov    0xc010e008,%eax
c0102459:	8d 14 80             	lea    (%eax,%eax,4),%edx
c010245c:	01 d2                	add    %edx,%edx
c010245e:	52                   	push   %edx
c010245f:	50                   	push   %eax
c0102460:	50                   	push   %eax
c0102461:	68 fc 72 10 c0       	push   $0xc01072fc
c0102466:	e8 35 f3 ff ff       	call   c01017a0 <printf_>
c010246b:	c7 45 08 00 00 00 00 	movl   $0x0,0x8(%ebp)
c0102472:	8b 5d fc             	mov    -0x4(%ebp),%ebx
c0102475:	83 c4 20             	add    $0x20,%esp
c0102478:	c9                   	leave  
c0102479:	e9 12 42 00 00       	jmp    c0106690 <set_debug_output>
c010247e:	66 90                	xchg   %ax,%ax

c0102480 <profile_test>:
c0102480:	55                   	push   %ebp
c0102481:	89 e5                	mov    %esp,%ebp
c0102483:	83 ec 14             	sub    $0x14,%esp
c0102486:	6a ff                	push   $0xffffffff
c0102488:	e8 d3 fe ff ff       	call   c0102360 <profile_test_run>
c010248d:	c7 04 24 ff ff ff 7f 	movl   $0x7fffffff,(%esp)
c0102494:	e8 c7 fe ff ff       	call   c0102360 <profile_test_run>
c0102499:	c7 04 24 11 11 11 11 	movl   $0x11111111,(%esp)
c01024a0:	e8 bb fe ff ff       	call   c0102360 <profile_test_run>
c01024a5:	83 c4 10             	add    $0x10,%esp
c01024a8:	c9                   	leave  
c01024a9:	c3                   	ret    
c01024aa:	8d b6 00 00 00 00    	lea    0x0(%esi),%esi

c01024b0 <debugf_stack_trace>:
c01024b0:	55                   	push   %ebp
c01024b1:	89 e5                	mov    %esp,%ebp
c01024b3:	57                   	push   %edi
c01024b4:	56                   	push   %esi
c01024b5:	53                   	push   %ebx
c01024b6:	89 ee                	mov    %ebp,%esi
c01024b8:	83 ec 28             	sub    $0x28,%esp
c01024bb:	6a 01                	push   $0x1
c01024bd:	e8 ce 41 00 00       	call   c0106690 <set_debug_output>
c01024c2:	c7 04 24 34 73 10 c0 	movl   $0xc0107334,(%esp)
c01024c9:	e8 d2 f2 ff ff       	call   c01017a0 <printf_>
c01024ce:	c7 04 24 00 00 00 00 	movl   $0x0,(%esp)
c01024d5:	e8 b6 41 00 00       	call   c0106690 <set_debug_output>
c01024da:	83 c4 10             	add    $0x10,%esp
c01024dd:	85 f6                	test   %esi,%esi
c01024df:	0f 84 89 00 00 00    	je     c010256e <debugf_stack_trace+0xbe>
c01024e5:	c7 45 e4 00 00 00 00 	movl   $0x0,-0x1c(%ebp)
c01024ec:	83 ec 0c             	sub    $0xc,%esp
c01024ef:	bf 60 80 10 c0       	mov    $0xc0108060,%edi
c01024f4:	6a 01                	push   $0x1
c01024f6:	e8 95 41 00 00       	call   c0106690 <set_debug_output>
c01024fb:	8b 5e 04             	mov    0x4(%esi),%ebx
c01024fe:	b8 20 e0 10 c0       	mov    $0xc010e020,%eax
c0102503:	83 c4 10             	add    $0x10,%esp
c0102506:	8d b4 26 00 00 00 00 	lea    0x0(%esi,%eiz,1),%esi
c010250d:	8d 76 00             	lea    0x0(%esi),%esi
c0102510:	8b 50 08             	mov    0x8(%eax),%edx
c0102513:	85 d2                	test   %edx,%edx
c0102515:	74 19                	je     c0102530 <debugf_stack_trace+0x80>
c0102517:	8b 48 04             	mov    0x4(%eax),%ecx
c010251a:	39 cb                	cmp    %ecx,%ebx
c010251c:	72 12                	jb     c0102530 <debugf_stack_trace+0x80>
c010251e:	01 ca                	add    %ecx,%edx
c0102520:	39 d3                	cmp    %edx,%ebx
c0102522:	73 0c                	jae    c0102530 <debugf_stack_trace+0x80>
c0102524:	8b 38                	mov    (%eax),%edi
c0102526:	8d b4 26 00 00 00 00 	lea    0x0(%esi,%eiz,1),%esi
c010252d:	8d 76 00             	lea    0x0(%esi),%esi
c0102530:	83 c0 0c             	add    $0xc,%eax
c0102533:	3d 20 10 11 c0       	cmp    $0xc0111020,%eax
c0102538:	75 d6                	jne    c0102510 <debugf_stack_trace+0x60>
c010253a:	83 45 e4 01          	addl   $0x1,-0x1c(%ebp)
c010253e:	8b 45 e4             	mov    -0x1c(%ebp),%eax
c0102541:	57                   	push   %edi
c0102542:	53                   	push   %ebx
c0102543:	89 c7                	mov    %eax,%edi
c0102545:	50                   	push   %eax
c0102546:	68 58 73 10 c0       	push   $0xc0107358
c010254b:	e8 50 f2 ff ff       	call   c01017a0 <printf_>
c0102550:	c7 04 24 00 00 00 00 	movl   $0x0,(%esp)
c0102557:	e8 34 41 00 00       	call   c0106690 <set_debug_output>
c010255c:	8b 36                	mov    (%esi),%esi
c010255e:	83 c4 10             	add    $0x10,%esp
c0102561:	85 f6                	test   %esi,%esi
c0102563:	74 09                	je     c010256e <debugf_stack_trace+0xbe>
c0102565:	83 ff 18             	cmp    $0x18,%edi
c0102568:	0f 8e 7e ff ff ff    	jle    c01024ec <debugf_stack_trace+0x3c>
c010256e:	8d 65 f4             	lea    -0xc(%ebp),%esp
c0102571:	5b                   	pop    %ebx
c0102572:	5e                   	pop    %esi
c0102573:	5f                   	pop    %edi
c0102574:	5d                   	pop    %ebp
c0102575:	c3                   	ret    
c0102576:	66 90                	xchg   %ax,%ax
c0102578:	66 90                	xchg   %ax,%ax
c010257a:	66 90                	xchg   %ax,%ax
c010257c:	66 90                	xchg   %ax,%ax
c010257e:	66 90                	xchg   %ax,%ax

c0102580 <elf_initalize>:
c0102580:	55                   	push   %ebp
c0102581:	89 e5                	mov    %esp,%ebp
c0102583:	57                   	push   %edi
c0102584:	56                   	push   %esi
c0102585:	53                   	push   %ebx
c0102586:	83 ec 28             	sub    $0x28,%esp
c0102589:	8b 45 08             	mov    0x8(%ebp),%eax
c010258c:	6a 01                	push   $0x1
c010258e:	89 45 e0             	mov    %eax,-0x20(%ebp)
c0102591:	e8 fa 40 00 00       	call   c0106690 <set_debug_output>
c0102596:	83 c4 0c             	add    $0xc,%esp
c0102599:	6a 0c                	push   $0xc
c010259b:	68 e0 73 10 c0       	push   $0xc01073e0
c01025a0:	68 c3 74 10 c0       	push   $0xc01074c3
c01025a5:	e8 f6 f1 ff ff       	call   c01017a0 <printf_>
c01025aa:	c7 04 24 e0 74 10 c0 	movl   $0xc01074e0,(%esp)
c01025b1:	e8 ea f1 ff ff       	call   c01017a0 <printf_>
c01025b6:	c7 04 24 00 00 00 00 	movl   $0x0,(%esp)
c01025bd:	e8 ce 40 00 00       	call   c0106690 <set_debug_output>
c01025c2:	e8 f9 2f 00 00       	call   c01055c0 <get_multiboot_header>
c01025c7:	83 c4 10             	add    $0x10,%esp
c01025ca:	8b 58 1c             	mov    0x1c(%eax),%ebx
c01025cd:	8b 48 24             	mov    0x24(%eax),%ecx
c01025d0:	85 db                	test   %ebx,%ebx
c01025d2:	0f 84 68 01 00 00    	je     c0102740 <elf_initalize+0x1c0>
c01025d8:	31 ff                	xor    %edi,%edi
c01025da:	31 d2                	xor    %edx,%edx
c01025dc:	31 c0                	xor    %eax,%eax
c01025de:	eb 09                	jmp    c01025e9 <elf_initalize+0x69>
c01025e0:	83 c2 01             	add    $0x1,%edx
c01025e3:	89 d0                	mov    %edx,%eax
c01025e5:	39 c3                	cmp    %eax,%ebx
c01025e7:	76 1a                	jbe    c0102603 <elf_initalize+0x83>
c01025e9:	8d 04 80             	lea    (%eax,%eax,4),%eax
c01025ec:	83 7c c1 04 03       	cmpl   $0x3,0x4(%ecx,%eax,8)
c01025f1:	75 ed                	jne    c01025e0 <elf_initalize+0x60>
c01025f3:	b8 a0 86 01 00       	mov    $0x186a0,%eax
c01025f8:	89 d7                	mov    %edx,%edi
c01025fa:	ba a0 86 01 00       	mov    $0x186a0,%edx
c01025ff:	39 c3                	cmp    %eax,%ebx
c0102601:	77 e6                	ja     c01025e9 <elf_initalize+0x69>
c0102603:	c7 45 e4 00 00 00 00 	movl   $0x0,-0x1c(%ebp)
c010260a:	31 f6                	xor    %esi,%esi
c010260c:	31 d2                	xor    %edx,%edx
c010260e:	31 c0                	xor    %eax,%eax
c0102610:	eb 17                	jmp    c0102629 <elf_initalize+0xa9>
c0102612:	8d b4 26 00 00 00 00 	lea    0x0(%esi,%eiz,1),%esi
c0102619:	8d b4 26 00 00 00 00 	lea    0x0(%esi,%eiz,1),%esi
c0102620:	83 c2 01             	add    $0x1,%edx
c0102623:	89 d0                	mov    %edx,%eax
c0102625:	39 c3                	cmp    %eax,%ebx
c0102627:	76 25                	jbe    c010264e <elf_initalize+0xce>
c0102629:	8d 04 80             	lea    (%eax,%eax,4),%eax
c010262c:	8d 04 c1             	lea    (%ecx,%eax,8),%eax
c010262f:	83 78 04 02          	cmpl   $0x2,0x4(%eax)
c0102633:	75 eb                	jne    c0102620 <elf_initalize+0xa0>
c0102635:	8b 40 14             	mov    0x14(%eax),%eax
c0102638:	89 d6                	mov    %edx,%esi
c010263a:	ba a0 86 01 00       	mov    $0x186a0,%edx
c010263f:	c1 e8 04             	shr    $0x4,%eax
c0102642:	89 45 e4             	mov    %eax,-0x1c(%ebp)
c0102645:	b8 a0 86 01 00       	mov    $0x186a0,%eax
c010264a:	39 c3                	cmp    %eax,%ebx
c010264c:	77 db                	ja     c0102629 <elf_initalize+0xa9>
c010264e:	8d 04 bf             	lea    (%edi,%edi,4),%eax
c0102651:	8b 5c c1 0c          	mov    0xc(%ecx,%eax,8),%ebx
c0102655:	8d 04 b6             	lea    (%esi,%esi,4),%eax
c0102658:	8b 7c c1 0c          	mov    0xc(%ecx,%eax,8),%edi
c010265c:	8b 45 e4             	mov    -0x1c(%ebp),%eax
c010265f:	81 eb 00 00 00 40    	sub    $0x40000000,%ebx
c0102665:	83 e8 01             	sub    $0x1,%eax
c0102668:	81 ef 00 00 00 40    	sub    $0x40000000,%edi
c010266e:	89 45 e4             	mov    %eax,-0x1c(%ebp)
c0102671:	83 f8 01             	cmp    $0x1,%eax
c0102674:	76 3c                	jbe    c01026b2 <elf_initalize+0x132>
c0102676:	b8 01 00 00 00       	mov    $0x1,%eax
c010267b:	89 de                	mov    %ebx,%esi
c010267d:	83 c7 10             	add    $0x10,%edi
c0102680:	89 c3                	mov    %eax,%ebx
c0102682:	8d b4 26 00 00 00 00 	lea    0x0(%esi,%eiz,1),%esi
c0102689:	8d b4 26 00 00 00 00 	lea    0x0(%esi,%eiz,1),%esi
c0102690:	83 ec 04             	sub    $0x4,%esp
c0102693:	ff 77 08             	push   0x8(%edi)
c0102696:	83 c3 01             	add    $0x1,%ebx
c0102699:	83 c7 10             	add    $0x10,%edi
c010269c:	ff 77 f4             	push   -0xc(%edi)
c010269f:	8b 57 f0             	mov    -0x10(%edi),%edx
c01026a2:	01 f2                	add    %esi,%edx
c01026a4:	52                   	push   %edx
c01026a5:	e8 c6 f7 ff ff       	call   c0101e70 <kdebug_add_symbol>
c01026aa:	83 c4 10             	add    $0x10,%esp
c01026ad:	39 5d e4             	cmp    %ebx,-0x1c(%ebp)
c01026b0:	77 de                	ja     c0102690 <elf_initalize+0x110>
c01026b2:	83 ec 0c             	sub    $0xc,%esp
c01026b5:	6a 01                	push   $0x1
c01026b7:	e8 d4 3f 00 00       	call   c0106690 <set_debug_output>
c01026bc:	83 c4 0c             	add    $0xc,%esp
c01026bf:	6a 33                	push   $0x33
c01026c1:	68 e0 73 10 c0       	push   $0xc01073e0
c01026c6:	68 c3 74 10 c0       	push   $0xc01074c3
c01026cb:	e8 d0 f0 ff ff       	call   c01017a0 <printf_>
c01026d0:	8b 5d e0             	mov    -0x20(%ebp),%ebx
c01026d3:	83 c3 10             	add    $0x10,%ebx
c01026d6:	89 1c 24             	mov    %ebx,(%esp)
c01026d9:	e8 e2 f7 ff ff       	call   c0101ec0 <kdebug_get_function_at>
c01026de:	83 c4 0c             	add    $0xc,%esp
c01026e1:	50                   	push   %eax
c01026e2:	53                   	push   %ebx
c01026e3:	68 ed 74 10 c0       	push   $0xc01074ed
c01026e8:	e8 b3 f0 ff ff       	call   c01017a0 <printf_>
c01026ed:	c7 04 24 00 00 00 00 	movl   $0x0,(%esp)
c01026f4:	e8 97 3f 00 00       	call   c0106690 <set_debug_output>
c01026f9:	c7 04 24 01 00 00 00 	movl   $0x1,(%esp)
c0102700:	e8 8b 3f 00 00       	call   c0106690 <set_debug_output>
c0102705:	83 c4 0c             	add    $0xc,%esp
c0102708:	6a 35                	push   $0x35
c010270a:	68 e0 73 10 c0       	push   $0xc01073e0
c010270f:	68 c3 74 10 c0       	push   $0xc01074c3
c0102714:	e8 87 f0 ff ff       	call   c01017a0 <printf_>
c0102719:	c7 04 24 e7 74 10 c0 	movl   $0xc01074e7,(%esp)
c0102720:	e8 7b f0 ff ff       	call   c01017a0 <printf_>
c0102725:	c7 45 08 00 00 00 00 	movl   $0x0,0x8(%ebp)
c010272c:	83 c4 10             	add    $0x10,%esp
c010272f:	8d 65 f4             	lea    -0xc(%ebp),%esp
c0102732:	5b                   	pop    %ebx
c0102733:	5e                   	pop    %esi
c0102734:	5f                   	pop    %edi
c0102735:	5d                   	pop    %ebp
c0102736:	e9 55 3f 00 00       	jmp    c0106690 <set_debug_output>
c010273b:	8d 74 26 00          	lea    0x0(%esi,%eiz,1),%esi
c010273f:	90                   	nop
c0102740:	8b 59 0c             	mov    0xc(%ecx),%ebx
c0102743:	c7 45 e4 ff ff ff ff 	movl   $0xffffffff,-0x1c(%ebp)
c010274a:	81 eb 00 00 00 40    	sub    $0x40000000,%ebx
c0102750:	89 df                	mov    %ebx,%edi
c0102752:	e9 1f ff ff ff       	jmp    c0102676 <elf_initalize+0xf6>
c0102757:	8d b4 26 00 00 00 00 	lea    0x0(%esi,%eiz,1),%esi
c010275e:	66 90                	xchg   %ax,%ax

c0102760 <elf_load_program_headers>:
c0102760:	55                   	push   %ebp
c0102761:	89 e5                	mov    %esp,%ebp
c0102763:	57                   	push   %edi
c0102764:	56                   	push   %esi
c0102765:	53                   	push   %ebx
c0102766:	83 ec 0c             	sub    $0xc,%esp
c0102769:	8b 7d 08             	mov    0x8(%ebp),%edi
c010276c:	8b 75 0c             	mov    0xc(%ebp),%esi
c010276f:	66 83 7f 2c 00       	cmpw   $0x0,0x2c(%edi)
c0102774:	74 4e                	je     c01027c4 <elf_load_program_headers+0x64>
c0102776:	31 db                	xor    %ebx,%ebx
c0102778:	eb 11                	jmp    c010278b <elf_load_program_headers+0x2b>
c010277a:	8d b6 00 00 00 00    	lea    0x0(%esi),%esi
c0102780:	0f b7 47 2c          	movzwl 0x2c(%edi),%eax
c0102784:	83 c3 01             	add    $0x1,%ebx
c0102787:	39 d8                	cmp    %ebx,%eax
c0102789:	7e 39                	jle    c01027c4 <elf_load_program_headers+0x64>
c010278b:	0f b7 4f 2a          	movzwl 0x2a(%edi),%ecx
c010278f:	8b 47 1c             	mov    0x1c(%edi),%eax
c0102792:	0f af cb             	imul   %ebx,%ecx
c0102795:	01 f8                	add    %edi,%eax
c0102797:	01 c8                	add    %ecx,%eax
c0102799:	83 38 01             	cmpl   $0x1,(%eax)
c010279c:	75 e2                	jne    c0102780 <elf_load_program_headers+0x20>
c010279e:	83 ec 04             	sub    $0x4,%esp
c01027a1:	ff 70 10             	push   0x10(%eax)
c01027a4:	8b 50 08             	mov    0x8(%eax),%edx
c01027a7:	83 c3 01             	add    $0x1,%ebx
c01027aa:	8b 4d 10             	mov    0x10(%ebp),%ecx
c01027ad:	01 f2                	add    %esi,%edx
c01027af:	03 48 04             	add    0x4(%eax),%ecx
c01027b2:	51                   	push   %ecx
c01027b3:	52                   	push   %edx
c01027b4:	e8 e7 f4 ff ff       	call   c0101ca0 <memcpy>
c01027b9:	0f b7 47 2c          	movzwl 0x2c(%edi),%eax
c01027bd:	83 c4 10             	add    $0x10,%esp
c01027c0:	39 d8                	cmp    %ebx,%eax
c01027c2:	7f c7                	jg     c010278b <elf_load_program_headers+0x2b>
c01027c4:	8d 65 f4             	lea    -0xc(%ebp),%esp
c01027c7:	5b                   	pop    %ebx
c01027c8:	5e                   	pop    %esi
c01027c9:	5f                   	pop    %edi
c01027ca:	5d                   	pop    %ebp
c01027cb:	c3                   	ret    
c01027cc:	8d 74 26 00          	lea    0x0(%esi,%eiz,1),%esi

c01027d0 <elf_find_rel_plt>:
c01027d0:	55                   	push   %ebp
c01027d1:	89 e5                	mov    %esp,%ebp
c01027d3:	8b 4d 0c             	mov    0xc(%ebp),%ecx
c01027d6:	0f b7 51 30          	movzwl 0x30(%ecx),%edx
c01027da:	66 85 d2             	test   %dx,%dx
c01027dd:	74 31                	je     c0102810 <elf_find_rel_plt+0x40>
c01027df:	8d 14 92             	lea    (%edx,%edx,4),%edx
c01027e2:	8b 45 08             	mov    0x8(%ebp),%eax
c01027e5:	03 41 20             	add    0x20(%ecx),%eax
c01027e8:	8d 0c d0             	lea    (%eax,%edx,8),%ecx
c01027eb:	31 d2                	xor    %edx,%edx
c01027ed:	8d 76 00             	lea    0x0(%esi),%esi
c01027f0:	83 78 04 09          	cmpl   $0x9,0x4(%eax)
c01027f4:	0f 44 d0             	cmove  %eax,%edx
c01027f7:	83 c0 28             	add    $0x28,%eax
c01027fa:	39 c8                	cmp    %ecx,%eax
c01027fc:	75 f2                	jne    c01027f0 <elf_find_rel_plt+0x20>
c01027fe:	89 d0                	mov    %edx,%eax
c0102800:	5d                   	pop    %ebp
c0102801:	c3                   	ret    
c0102802:	8d b4 26 00 00 00 00 	lea    0x0(%esi,%eiz,1),%esi
c0102809:	8d b4 26 00 00 00 00 	lea    0x0(%esi,%eiz,1),%esi
c0102810:	31 d2                	xor    %edx,%edx
c0102812:	5d                   	pop    %ebp
c0102813:	89 d0                	mov    %edx,%eax
c0102815:	c3                   	ret    
c0102816:	8d b4 26 00 00 00 00 	lea    0x0(%esi,%eiz,1),%esi
c010281d:	8d 76 00             	lea    0x0(%esi),%esi

c0102820 <elf_find_symtab>:
c0102820:	55                   	push   %ebp
c0102821:	89 e5                	mov    %esp,%ebp
c0102823:	8b 4d 0c             	mov    0xc(%ebp),%ecx
c0102826:	0f b7 51 30          	movzwl 0x30(%ecx),%edx
c010282a:	66 85 d2             	test   %dx,%dx
c010282d:	74 31                	je     c0102860 <elf_find_symtab+0x40>
c010282f:	8d 14 92             	lea    (%edx,%edx,4),%edx
c0102832:	8b 45 08             	mov    0x8(%ebp),%eax
c0102835:	03 41 20             	add    0x20(%ecx),%eax
c0102838:	8d 0c d0             	lea    (%eax,%edx,8),%ecx
c010283b:	31 d2                	xor    %edx,%edx
c010283d:	8d 76 00             	lea    0x0(%esi),%esi
c0102840:	83 78 04 02          	cmpl   $0x2,0x4(%eax)
c0102844:	0f 44 d0             	cmove  %eax,%edx
c0102847:	83 c0 28             	add    $0x28,%eax
c010284a:	39 c8                	cmp    %ecx,%eax
c010284c:	75 f2                	jne    c0102840 <elf_find_symtab+0x20>
c010284e:	89 d0                	mov    %edx,%eax
c0102850:	5d                   	pop    %ebp
c0102851:	c3                   	ret    
c0102852:	8d b4 26 00 00 00 00 	lea    0x0(%esi,%eiz,1),%esi
c0102859:	8d b4 26 00 00 00 00 	lea    0x0(%esi,%eiz,1),%esi
c0102860:	31 d2                	xor    %edx,%edx
c0102862:	5d                   	pop    %ebp
c0102863:	89 d0                	mov    %edx,%eax
c0102865:	c3                   	ret    
c0102866:	8d b4 26 00 00 00 00 	lea    0x0(%esi,%eiz,1),%esi
c010286d:	8d 76 00             	lea    0x0(%esi),%esi

c0102870 <elf_find_sym_strtab>:
c0102870:	55                   	push   %ebp
c0102871:	89 e5                	mov    %esp,%ebp
c0102873:	57                   	push   %edi
c0102874:	56                   	push   %esi
c0102875:	53                   	push   %ebx
c0102876:	83 ec 1c             	sub    $0x1c,%esp
c0102879:	8b 75 0c             	mov    0xc(%ebp),%esi
c010287c:	66 83 7e 30 00       	cmpw   $0x0,0x30(%esi)
c0102881:	74 7d                	je     c0102900 <elf_find_sym_strtab+0x90>
c0102883:	c7 45 e4 00 00 00 00 	movl   $0x0,-0x1c(%ebp)
c010288a:	31 db                	xor    %ebx,%ebx
c010288c:	eb 0d                	jmp    c010289b <elf_find_sym_strtab+0x2b>
c010288e:	66 90                	xchg   %ax,%ax
c0102890:	0f b7 46 30          	movzwl 0x30(%esi),%eax
c0102894:	83 c3 01             	add    $0x1,%ebx
c0102897:	39 d8                	cmp    %ebx,%eax
c0102899:	7e 4c                	jle    c01028e7 <elf_find_sym_strtab+0x77>
c010289b:	8b 46 20             	mov    0x20(%esi),%eax
c010289e:	8b 55 08             	mov    0x8(%ebp),%edx
c01028a1:	8d 0c 9b             	lea    (%ebx,%ebx,4),%ecx
c01028a4:	01 c2                	add    %eax,%edx
c01028a6:	8d 3c ca             	lea    (%edx,%ecx,8),%edi
c01028a9:	83 7f 04 03          	cmpl   $0x3,0x4(%edi)
c01028ad:	75 e1                	jne    c0102890 <elf_find_sym_strtab+0x20>
c01028af:	0f b7 56 32          	movzwl 0x32(%esi),%edx
c01028b3:	83 ec 08             	sub    $0x8,%esp
c01028b6:	68 08 75 10 c0       	push   $0xc0107508
c01028bb:	8d 14 92             	lea    (%edx,%edx,4),%edx
c01028be:	8d 0c d6             	lea    (%esi,%edx,8),%ecx
c01028c1:	8b 55 08             	mov    0x8(%ebp),%edx
c01028c4:	03 17                	add    (%edi),%edx
c01028c6:	03 54 08 10          	add    0x10(%eax,%ecx,1),%edx
c01028ca:	52                   	push   %edx
c01028cb:	e8 30 f4 ff ff       	call   c0101d00 <strcmp>
c01028d0:	83 c4 10             	add    $0x10,%esp
c01028d3:	85 c0                	test   %eax,%eax
c01028d5:	0f b7 46 30          	movzwl 0x30(%esi),%eax
c01028d9:	0f 45 7d e4          	cmovne -0x1c(%ebp),%edi
c01028dd:	83 c3 01             	add    $0x1,%ebx
c01028e0:	89 7d e4             	mov    %edi,-0x1c(%ebp)
c01028e3:	39 d8                	cmp    %ebx,%eax
c01028e5:	7f b4                	jg     c010289b <elf_find_sym_strtab+0x2b>
c01028e7:	8b 45 e4             	mov    -0x1c(%ebp),%eax
c01028ea:	8d 65 f4             	lea    -0xc(%ebp),%esp
c01028ed:	5b                   	pop    %ebx
c01028ee:	5e                   	pop    %esi
c01028ef:	5f                   	pop    %edi
c01028f0:	5d                   	pop    %ebp
c01028f1:	c3                   	ret    
c01028f2:	8d b4 26 00 00 00 00 	lea    0x0(%esi,%eiz,1),%esi
c01028f9:	8d b4 26 00 00 00 00 	lea    0x0(%esi,%eiz,1),%esi
c0102900:	c7 45 e4 00 00 00 00 	movl   $0x0,-0x1c(%ebp)
c0102907:	8b 45 e4             	mov    -0x1c(%ebp),%eax
c010290a:	8d 65 f4             	lea    -0xc(%ebp),%esp
c010290d:	5b                   	pop    %ebx
c010290e:	5e                   	pop    %esi
c010290f:	5f                   	pop    %edi
c0102910:	5d                   	pop    %ebp
c0102911:	c3                   	ret    
c0102912:	8d b4 26 00 00 00 00 	lea    0x0(%esi,%eiz,1),%esi
c0102919:	8d b4 26 00 00 00 00 	lea    0x0(%esi,%eiz,1),%esi

c0102920 <elf_find_dynsym_tab>:
c0102920:	55                   	push   %ebp
c0102921:	89 e5                	mov    %esp,%ebp
c0102923:	57                   	push   %edi
c0102924:	56                   	push   %esi
c0102925:	53                   	push   %ebx
c0102926:	83 ec 1c             	sub    $0x1c,%esp
c0102929:	8b 75 0c             	mov    0xc(%ebp),%esi
c010292c:	66 83 7e 30 00       	cmpw   $0x0,0x30(%esi)
c0102931:	74 7d                	je     c01029b0 <elf_find_dynsym_tab+0x90>
c0102933:	c7 45 e4 00 00 00 00 	movl   $0x0,-0x1c(%ebp)
c010293a:	31 db                	xor    %ebx,%ebx
c010293c:	eb 0d                	jmp    c010294b <elf_find_dynsym_tab+0x2b>
c010293e:	66 90                	xchg   %ax,%ax
c0102940:	0f b7 46 30          	movzwl 0x30(%esi),%eax
c0102944:	83 c3 01             	add    $0x1,%ebx
c0102947:	39 d8                	cmp    %ebx,%eax
c0102949:	7e 4c                	jle    c0102997 <elf_find_dynsym_tab+0x77>
c010294b:	8b 46 20             	mov    0x20(%esi),%eax
c010294e:	8b 55 08             	mov    0x8(%ebp),%edx
c0102951:	8d 0c 9b             	lea    (%ebx,%ebx,4),%ecx
c0102954:	01 c2                	add    %eax,%edx
c0102956:	8d 3c ca             	lea    (%edx,%ecx,8),%edi
c0102959:	83 7f 04 0b          	cmpl   $0xb,0x4(%edi)
c010295d:	75 e1                	jne    c0102940 <elf_find_dynsym_tab+0x20>
c010295f:	0f b7 56 32          	movzwl 0x32(%esi),%edx
c0102963:	83 ec 08             	sub    $0x8,%esp
c0102966:	68 10 75 10 c0       	push   $0xc0107510
c010296b:	8d 14 92             	lea    (%edx,%edx,4),%edx
c010296e:	8d 0c d6             	lea    (%esi,%edx,8),%ecx
c0102971:	8b 55 08             	mov    0x8(%ebp),%edx
c0102974:	03 17                	add    (%edi),%edx
c0102976:	03 54 08 10          	add    0x10(%eax,%ecx,1),%edx
c010297a:	52                   	push   %edx
c010297b:	e8 80 f3 ff ff       	call   c0101d00 <strcmp>
c0102980:	83 c4 10             	add    $0x10,%esp
c0102983:	85 c0                	test   %eax,%eax
c0102985:	0f b7 46 30          	movzwl 0x30(%esi),%eax
c0102989:	0f 45 7d e4          	cmovne -0x1c(%ebp),%edi
c010298d:	83 c3 01             	add    $0x1,%ebx
c0102990:	89 7d e4             	mov    %edi,-0x1c(%ebp)
c0102993:	39 d8                	cmp    %ebx,%eax
c0102995:	7f b4                	jg     c010294b <elf_find_dynsym_tab+0x2b>
c0102997:	8b 45 e4             	mov    -0x1c(%ebp),%eax
c010299a:	8d 65 f4             	lea    -0xc(%ebp),%esp
c010299d:	5b                   	pop    %ebx
c010299e:	5e                   	pop    %esi
c010299f:	5f                   	pop    %edi
c01029a0:	5d                   	pop    %ebp
c01029a1:	c3                   	ret    
c01029a2:	8d b4 26 00 00 00 00 	lea    0x0(%esi,%eiz,1),%esi
c01029a9:	8d b4 26 00 00 00 00 	lea    0x0(%esi,%eiz,1),%esi
c01029b0:	c7 45 e4 00 00 00 00 	movl   $0x0,-0x1c(%ebp)
c01029b7:	8b 45 e4             	mov    -0x1c(%ebp),%eax
c01029ba:	8d 65 f4             	lea    -0xc(%ebp),%esp
c01029bd:	5b                   	pop    %ebx
c01029be:	5e                   	pop    %esi
c01029bf:	5f                   	pop    %edi
c01029c0:	5d                   	pop    %ebp
c01029c1:	c3                   	ret    
c01029c2:	8d b4 26 00 00 00 00 	lea    0x0(%esi,%eiz,1),%esi
c01029c9:	8d b4 26 00 00 00 00 	lea    0x0(%esi,%eiz,1),%esi

c01029d0 <elf_find_dynstr_tab>:
c01029d0:	55                   	push   %ebp
c01029d1:	89 e5                	mov    %esp,%ebp
c01029d3:	57                   	push   %edi
c01029d4:	56                   	push   %esi
c01029d5:	53                   	push   %ebx
c01029d6:	83 ec 1c             	sub    $0x1c,%esp
c01029d9:	8b 75 0c             	mov    0xc(%ebp),%esi
c01029dc:	66 83 7e 30 00       	cmpw   $0x0,0x30(%esi)
c01029e1:	74 7d                	je     c0102a60 <elf_find_dynstr_tab+0x90>
c01029e3:	c7 45 e4 00 00 00 00 	movl   $0x0,-0x1c(%ebp)
c01029ea:	31 db                	xor    %ebx,%ebx
c01029ec:	eb 0d                	jmp    c01029fb <elf_find_dynstr_tab+0x2b>
c01029ee:	66 90                	xchg   %ax,%ax
c01029f0:	0f b7 46 30          	movzwl 0x30(%esi),%eax
c01029f4:	83 c3 01             	add    $0x1,%ebx
c01029f7:	39 d8                	cmp    %ebx,%eax
c01029f9:	7e 4c                	jle    c0102a47 <elf_find_dynstr_tab+0x77>
c01029fb:	8b 46 20             	mov    0x20(%esi),%eax
c01029fe:	8b 55 08             	mov    0x8(%ebp),%edx
c0102a01:	8d 0c 9b             	lea    (%ebx,%ebx,4),%ecx
c0102a04:	01 c2                	add    %eax,%edx
c0102a06:	8d 3c ca             	lea    (%edx,%ecx,8),%edi
c0102a09:	83 7f 04 03          	cmpl   $0x3,0x4(%edi)
c0102a0d:	75 e1                	jne    c01029f0 <elf_find_dynstr_tab+0x20>
c0102a0f:	0f b7 56 32          	movzwl 0x32(%esi),%edx
c0102a13:	83 ec 08             	sub    $0x8,%esp
c0102a16:	68 18 75 10 c0       	push   $0xc0107518
c0102a1b:	8d 14 92             	lea    (%edx,%edx,4),%edx
c0102a1e:	8d 0c d6             	lea    (%esi,%edx,8),%ecx
c0102a21:	8b 55 08             	mov    0x8(%ebp),%edx
c0102a24:	03 17                	add    (%edi),%edx
c0102a26:	03 54 08 10          	add    0x10(%eax,%ecx,1),%edx
c0102a2a:	52                   	push   %edx
c0102a2b:	e8 d0 f2 ff ff       	call   c0101d00 <strcmp>
c0102a30:	83 c4 10             	add    $0x10,%esp
c0102a33:	85 c0                	test   %eax,%eax
c0102a35:	0f b7 46 30          	movzwl 0x30(%esi),%eax
c0102a39:	0f 45 7d e4          	cmovne -0x1c(%ebp),%edi
c0102a3d:	83 c3 01             	add    $0x1,%ebx
c0102a40:	89 7d e4             	mov    %edi,-0x1c(%ebp)
c0102a43:	39 d8                	cmp    %ebx,%eax
c0102a45:	7f b4                	jg     c01029fb <elf_find_dynstr_tab+0x2b>
c0102a47:	8b 45 e4             	mov    -0x1c(%ebp),%eax
c0102a4a:	8d 65 f4             	lea    -0xc(%ebp),%esp
c0102a4d:	5b                   	pop    %ebx
c0102a4e:	5e                   	pop    %esi
c0102a4f:	5f                   	pop    %edi
c0102a50:	5d                   	pop    %ebp
c0102a51:	c3                   	ret    
c0102a52:	8d b4 26 00 00 00 00 	lea    0x0(%esi,%eiz,1),%esi
c0102a59:	8d b4 26 00 00 00 00 	lea    0x0(%esi,%eiz,1),%esi
c0102a60:	c7 45 e4 00 00 00 00 	movl   $0x0,-0x1c(%ebp)
c0102a67:	8b 45 e4             	mov    -0x1c(%ebp),%eax
c0102a6a:	8d 65 f4             	lea    -0xc(%ebp),%esp
c0102a6d:	5b                   	pop    %ebx
c0102a6e:	5e                   	pop    %esi
c0102a6f:	5f                   	pop    %edi
c0102a70:	5d                   	pop    %ebp
c0102a71:	c3                   	ret    
c0102a72:	8d b4 26 00 00 00 00 	lea    0x0(%esi,%eiz,1),%esi
c0102a79:	8d b4 26 00 00 00 00 	lea    0x0(%esi,%eiz,1),%esi

c0102a80 <elf_find_got_plt>:
c0102a80:	55                   	push   %ebp
c0102a81:	89 e5                	mov    %esp,%ebp
c0102a83:	57                   	push   %edi
c0102a84:	56                   	push   %esi
c0102a85:	53                   	push   %ebx
c0102a86:	83 ec 1c             	sub    $0x1c,%esp
c0102a89:	8b 75 0c             	mov    0xc(%ebp),%esi
c0102a8c:	66 83 7e 30 00       	cmpw   $0x0,0x30(%esi)
c0102a91:	74 7d                	je     c0102b10 <elf_find_got_plt+0x90>
c0102a93:	c7 45 e4 00 00 00 00 	movl   $0x0,-0x1c(%ebp)
c0102a9a:	31 db                	xor    %ebx,%ebx
c0102a9c:	eb 0d                	jmp    c0102aab <elf_find_got_plt+0x2b>
c0102a9e:	66 90                	xchg   %ax,%ax
c0102aa0:	0f b7 46 30          	movzwl 0x30(%esi),%eax
c0102aa4:	83 c3 01             	add    $0x1,%ebx
c0102aa7:	39 d8                	cmp    %ebx,%eax
c0102aa9:	7e 4c                	jle    c0102af7 <elf_find_got_plt+0x77>
c0102aab:	8b 46 20             	mov    0x20(%esi),%eax
c0102aae:	8b 55 08             	mov    0x8(%ebp),%edx
c0102ab1:	8d 0c 9b             	lea    (%ebx,%ebx,4),%ecx
c0102ab4:	01 c2                	add    %eax,%edx
c0102ab6:	8d 3c ca             	lea    (%edx,%ecx,8),%edi
c0102ab9:	83 7f 04 01          	cmpl   $0x1,0x4(%edi)
c0102abd:	75 e1                	jne    c0102aa0 <elf_find_got_plt+0x20>
c0102abf:	0f b7 56 32          	movzwl 0x32(%esi),%edx
c0102ac3:	83 ec 08             	sub    $0x8,%esp
c0102ac6:	68 20 75 10 c0       	push   $0xc0107520
c0102acb:	8d 14 92             	lea    (%edx,%edx,4),%edx
c0102ace:	8d 0c d6             	lea    (%esi,%edx,8),%ecx
c0102ad1:	8b 55 08             	mov    0x8(%ebp),%edx
c0102ad4:	03 17                	add    (%edi),%edx
c0102ad6:	03 54 08 10          	add    0x10(%eax,%ecx,1),%edx
c0102ada:	52                   	push   %edx
c0102adb:	e8 20 f2 ff ff       	call   c0101d00 <strcmp>
c0102ae0:	83 c4 10             	add    $0x10,%esp
c0102ae3:	85 c0                	test   %eax,%eax
c0102ae5:	0f b7 46 30          	movzwl 0x30(%esi),%eax
c0102ae9:	0f 45 7d e4          	cmovne -0x1c(%ebp),%edi
c0102aed:	83 c3 01             	add    $0x1,%ebx
c0102af0:	89 7d e4             	mov    %edi,-0x1c(%ebp)
c0102af3:	39 d8                	cmp    %ebx,%eax
c0102af5:	7f b4                	jg     c0102aab <elf_find_got_plt+0x2b>
c0102af7:	8b 45 e4             	mov    -0x1c(%ebp),%eax
c0102afa:	8d 65 f4             	lea    -0xc(%ebp),%esp
c0102afd:	5b                   	pop    %ebx
c0102afe:	5e                   	pop    %esi
c0102aff:	5f                   	pop    %edi
c0102b00:	5d                   	pop    %ebp
c0102b01:	c3                   	ret    
c0102b02:	8d b4 26 00 00 00 00 	lea    0x0(%esi,%eiz,1),%esi
c0102b09:	8d b4 26 00 00 00 00 	lea    0x0(%esi,%eiz,1),%esi
c0102b10:	c7 45 e4 00 00 00 00 	movl   $0x0,-0x1c(%ebp)
c0102b17:	8b 45 e4             	mov    -0x1c(%ebp),%eax
c0102b1a:	8d 65 f4             	lea    -0xc(%ebp),%esp
c0102b1d:	5b                   	pop    %ebx
c0102b1e:	5e                   	pop    %esi
c0102b1f:	5f                   	pop    %edi
c0102b20:	5d                   	pop    %ebp
c0102b21:	c3                   	ret    
c0102b22:	8d b4 26 00 00 00 00 	lea    0x0(%esi,%eiz,1),%esi
c0102b29:	8d b4 26 00 00 00 00 	lea    0x0(%esi,%eiz,1),%esi

c0102b30 <elf_get_section_name>:
c0102b30:	55                   	push   %ebp
c0102b31:	89 e5                	mov    %esp,%ebp
c0102b33:	56                   	push   %esi
c0102b34:	8b 55 0c             	mov    0xc(%ebp),%edx
c0102b37:	8b 45 08             	mov    0x8(%ebp),%eax
c0102b3a:	53                   	push   %ebx
c0102b3b:	8b 5d 10             	mov    0x10(%ebp),%ebx
c0102b3e:	0f b7 72 32          	movzwl 0x32(%edx),%esi
c0102b42:	8b 4a 20             	mov    0x20(%edx),%ecx
c0102b45:	8d 1c 9b             	lea    (%ebx,%ebx,4),%ebx
c0102b48:	8d 34 b6             	lea    (%esi,%esi,4),%esi
c0102b4b:	8d 1c d8             	lea    (%eax,%ebx,8),%ebx
c0102b4e:	8d 14 f2             	lea    (%edx,%esi,8),%edx
c0102b51:	03 04 0b             	add    (%ebx,%ecx,1),%eax
c0102b54:	5b                   	pop    %ebx
c0102b55:	03 44 11 10          	add    0x10(%ecx,%edx,1),%eax
c0102b59:	5e                   	pop    %esi
c0102b5a:	5d                   	pop    %ebp
c0102b5b:	c3                   	ret    
c0102b5c:	8d 74 26 00          	lea    0x0(%esi,%eiz,1),%esi

c0102b60 <elf_get_sym_name_from_index>:
c0102b60:	55                   	push   %ebp
c0102b61:	89 e5                	mov    %esp,%ebp
c0102b63:	57                   	push   %edi
c0102b64:	56                   	push   %esi
c0102b65:	53                   	push   %ebx
c0102b66:	83 ec 14             	sub    $0x14,%esp
c0102b69:	8b 5d 08             	mov    0x8(%ebp),%ebx
c0102b6c:	8b 7d 0c             	mov    0xc(%ebp),%edi
c0102b6f:	57                   	push   %edi
c0102b70:	53                   	push   %ebx
c0102b71:	e8 aa fd ff ff       	call   c0102920 <elf_find_dynsym_tab>
c0102b76:	89 c6                	mov    %eax,%esi
c0102b78:	58                   	pop    %eax
c0102b79:	5a                   	pop    %edx
c0102b7a:	57                   	push   %edi
c0102b7b:	53                   	push   %ebx
c0102b7c:	e8 ef fc ff ff       	call   c0102870 <elf_find_sym_strtab>
c0102b81:	59                   	pop    %ecx
c0102b82:	58                   	pop    %eax
c0102b83:	57                   	push   %edi
c0102b84:	53                   	push   %ebx
c0102b85:	e8 46 fe ff ff       	call   c01029d0 <elf_find_dynstr_tab>
c0102b8a:	8b 55 10             	mov    0x10(%ebp),%edx
c0102b8d:	c1 e2 04             	shl    $0x4,%edx
c0102b90:	01 da                	add    %ebx,%edx
c0102b92:	03 56 10             	add    0x10(%esi),%edx
c0102b95:	03 58 10             	add    0x10(%eax),%ebx
c0102b98:	8b 02                	mov    (%edx),%eax
c0102b9a:	8d 65 f4             	lea    -0xc(%ebp),%esp
c0102b9d:	01 d8                	add    %ebx,%eax
c0102b9f:	5b                   	pop    %ebx
c0102ba0:	5e                   	pop    %esi
c0102ba1:	5f                   	pop    %edi
c0102ba2:	5d                   	pop    %ebp
c0102ba3:	c3                   	ret    
c0102ba4:	66 90                	xchg   %ax,%ax
c0102ba6:	66 90                	xchg   %ax,%ax
c0102ba8:	66 90                	xchg   %ax,%ax
c0102baa:	66 90                	xchg   %ax,%ax
c0102bac:	66 90                	xchg   %ax,%ax
c0102bae:	66 90                	xchg   %ax,%ax

c0102bb0 <intel8254_initalize>:
c0102bb0:	55                   	push   %ebp
c0102bb1:	89 e5                	mov    %esp,%ebp
c0102bb3:	53                   	push   %ebx
c0102bb4:	83 ec 10             	sub    $0x10,%esp
c0102bb7:	6a 01                	push   $0x1
c0102bb9:	e8 d2 3a 00 00       	call   c0106690 <set_debug_output>
c0102bbe:	83 c4 0c             	add    $0xc,%esp
c0102bc1:	6a 08                	push   $0x8
c0102bc3:	68 f0 73 10 c0       	push   $0xc01073f0
c0102bc8:	68 c3 74 10 c0       	push   $0xc01074c3
c0102bcd:	e8 ce eb ff ff       	call   c01017a0 <printf_>
c0102bd2:	c7 04 24 e0 74 10 c0 	movl   $0xc01074e0,(%esp)
c0102bd9:	e8 c2 eb ff ff       	call   c01017a0 <printf_>
c0102bde:	c7 04 24 00 00 00 00 	movl   $0x0,(%esp)
c0102be5:	e8 a6 3a 00 00       	call   c0106690 <set_debug_output>
c0102bea:	c7 04 24 0e 10 00 00 	movl   $0x100e,(%esp)
c0102bf1:	e8 6a 2c 00 00       	call   c0105860 <pci_get_header_by_device_id>
c0102bf6:	83 c4 10             	add    $0x10,%esp
c0102bf9:	85 c0                	test   %eax,%eax
c0102bfb:	0f 84 cf 00 00 00    	je     c0102cd0 <intel8254_initalize+0x120>
c0102c01:	83 ec 0c             	sub    $0xc,%esp
c0102c04:	89 c3                	mov    %eax,%ebx
c0102c06:	6a 01                	push   $0x1
c0102c08:	e8 83 3a 00 00       	call   c0106690 <set_debug_output>
c0102c0d:	83 c4 0c             	add    $0xc,%esp
c0102c10:	6a 10                	push   $0x10
c0102c12:	68 f0 73 10 c0       	push   $0xc01073f0
c0102c17:	68 c3 74 10 c0       	push   $0xc01074c3
c0102c1c:	e8 7f eb ff ff       	call   c01017a0 <printf_>
c0102c21:	c7 04 24 29 75 10 c0 	movl   $0xc0107529,(%esp)
c0102c28:	e8 73 eb ff ff       	call   c01017a0 <printf_>
c0102c2d:	c7 04 24 00 00 00 00 	movl   $0x0,(%esp)
c0102c34:	e8 57 3a 00 00       	call   c0106690 <set_debug_output>
c0102c39:	c7 04 24 01 00 00 00 	movl   $0x1,(%esp)
c0102c40:	e8 4b 3a 00 00       	call   c0106690 <set_debug_output>
c0102c45:	83 c4 0c             	add    $0xc,%esp
c0102c48:	6a 15                	push   $0x15
c0102c4a:	68 f0 73 10 c0       	push   $0xc01073f0
c0102c4f:	68 c3 74 10 c0       	push   $0xc01074c3
c0102c54:	e8 47 eb ff ff       	call   c01017a0 <printf_>
c0102c59:	0f b7 43 02          	movzwl 0x2(%ebx),%eax
c0102c5d:	83 c4 0c             	add    $0xc,%esp
c0102c60:	50                   	push   %eax
c0102c61:	0f b7 03             	movzwl (%ebx),%eax
c0102c64:	50                   	push   %eax
c0102c65:	0f b6 43 08          	movzbl 0x8(%ebx),%eax
c0102c69:	50                   	push   %eax
c0102c6a:	0f b6 43 09          	movzbl 0x9(%ebx),%eax
c0102c6e:	50                   	push   %eax
c0102c6f:	0f b6 43 0a          	movzbl 0xa(%ebx),%eax
c0102c73:	50                   	push   %eax
c0102c74:	0f b6 43 0b          	movzbl 0xb(%ebx),%eax
c0102c78:	50                   	push   %eax
c0102c79:	68 24 78 10 c0       	push   $0xc0107824
c0102c7e:	e8 1d eb ff ff       	call   c01017a0 <printf_>
c0102c83:	83 c4 14             	add    $0x14,%esp
c0102c86:	6a 00                	push   $0x0
c0102c88:	e8 03 3a 00 00       	call   c0106690 <set_debug_output>
c0102c8d:	c7 04 24 01 00 00 00 	movl   $0x1,(%esp)
c0102c94:	e8 f7 39 00 00       	call   c0106690 <set_debug_output>
c0102c99:	83 c4 0c             	add    $0xc,%esp
c0102c9c:	6a 2c                	push   $0x2c
c0102c9e:	68 f0 73 10 c0       	push   $0xc01073f0
c0102ca3:	68 c3 74 10 c0       	push   $0xc01074c3
c0102ca8:	e8 f3 ea ff ff       	call   c01017a0 <printf_>
c0102cad:	c7 04 24 e7 74 10 c0 	movl   $0xc01074e7,(%esp)
c0102cb4:	e8 e7 ea ff ff       	call   c01017a0 <printf_>
c0102cb9:	c7 04 24 00 00 00 00 	movl   $0x0,(%esp)
c0102cc0:	e8 cb 39 00 00       	call   c0106690 <set_debug_output>
c0102cc5:	8b 5d fc             	mov    -0x4(%ebp),%ebx
c0102cc8:	83 c4 10             	add    $0x10,%esp
c0102ccb:	c9                   	leave  
c0102ccc:	c3                   	ret    
c0102ccd:	8d 76 00             	lea    0x0(%esi),%esi
c0102cd0:	83 ec 0c             	sub    $0xc,%esp
c0102cd3:	6a 01                	push   $0x1
c0102cd5:	e8 b6 39 00 00       	call   c0106690 <set_debug_output>
c0102cda:	83 c4 0c             	add    $0xc,%esp
c0102cdd:	6a 0d                	push   $0xd
c0102cdf:	68 f0 73 10 c0       	push   $0xc01073f0
c0102ce4:	68 c3 74 10 c0       	push   $0xc01074c3
c0102ce9:	e8 b2 ea ff ff       	call   c01017a0 <printf_>
c0102cee:	c7 04 24 f8 77 10 c0 	movl   $0xc01077f8,(%esp)
c0102cf5:	e8 a6 ea ff ff       	call   c01017a0 <printf_>
c0102cfa:	c7 04 24 00 00 00 00 	movl   $0x0,(%esp)
c0102d01:	e8 8a 39 00 00       	call   c0106690 <set_debug_output>
c0102d06:	8b 5d fc             	mov    -0x4(%ebp),%ebx
c0102d09:	83 c4 10             	add    $0x10,%esp
c0102d0c:	c9                   	leave  
c0102d0d:	c3                   	ret    
c0102d0e:	66 90                	xchg   %ax,%ax

c0102d10 <interrupt_0x20>:
c0102d10:	68 ee fe ee fe       	push   $0xfeeefeee
c0102d15:	54                   	push   %esp
c0102d16:	60                   	pusha  
c0102d17:	1e                   	push   %ds
c0102d18:	06                   	push   %es
c0102d19:	0f a0                	push   %fs
c0102d1b:	0f a8                	push   %gs
c0102d1d:	54                   	push   %esp
c0102d1e:	54                   	push   %esp
c0102d1f:	b8 10 00 00 00       	mov    $0x10,%eax
c0102d24:	8e d8                	mov    %eax,%ds
c0102d26:	8e c0                	mov    %eax,%es
c0102d28:	b8 02 00 00 00       	mov    $0x2,%eax
c0102d2d:	50                   	push   %eax
c0102d2e:	b8 20 00 00 00       	mov    $0x20,%eax
c0102d33:	50                   	push   %eax
c0102d34:	fc                   	cld    
c0102d35:	e8 e6 0f 00 00       	call   c0103d20 <interrupt_default_handler>
c0102d3a:	58                   	pop    %eax
c0102d3b:	58                   	pop    %eax
c0102d3c:	5c                   	pop    %esp
c0102d3d:	5c                   	pop    %esp
c0102d3e:	0f a9                	pop    %gs
c0102d40:	0f a1                	pop    %fs
c0102d42:	07                   	pop    %es
c0102d43:	1f                   	pop    %ds
c0102d44:	61                   	popa   
c0102d45:	83 c4 08             	add    $0x8,%esp
c0102d48:	cf                   	iret   

c0102d49 <interrupt_0x21>:
c0102d49:	68 ee fe ee fe       	push   $0xfeeefeee
c0102d4e:	54                   	push   %esp
c0102d4f:	60                   	pusha  
c0102d50:	1e                   	push   %ds
c0102d51:	06                   	push   %es
c0102d52:	0f a0                	push   %fs
c0102d54:	0f a8                	push   %gs
c0102d56:	54                   	push   %esp
c0102d57:	54                   	push   %esp
c0102d58:	b8 10 00 00 00       	mov    $0x10,%eax
c0102d5d:	8e d8                	mov    %eax,%ds
c0102d5f:	8e c0                	mov    %eax,%es
c0102d61:	b8 02 00 00 00       	mov    $0x2,%eax
c0102d66:	50                   	push   %eax
c0102d67:	b8 21 00 00 00       	mov    $0x21,%eax
c0102d6c:	50                   	push   %eax
c0102d6d:	fc                   	cld    
c0102d6e:	e8 ad 0f 00 00       	call   c0103d20 <interrupt_default_handler>
c0102d73:	58                   	pop    %eax
c0102d74:	58                   	pop    %eax
c0102d75:	5c                   	pop    %esp
c0102d76:	5c                   	pop    %esp
c0102d77:	0f a9                	pop    %gs
c0102d79:	0f a1                	pop    %fs
c0102d7b:	07                   	pop    %es
c0102d7c:	1f                   	pop    %ds
c0102d7d:	61                   	popa   
c0102d7e:	83 c4 08             	add    $0x8,%esp
c0102d81:	cf                   	iret   

c0102d82 <interrupt_0x22>:
c0102d82:	68 ee fe ee fe       	push   $0xfeeefeee
c0102d87:	54                   	push   %esp
c0102d88:	60                   	pusha  
c0102d89:	1e                   	push   %ds
c0102d8a:	06                   	push   %es
c0102d8b:	0f a0                	push   %fs
c0102d8d:	0f a8                	push   %gs
c0102d8f:	54                   	push   %esp
c0102d90:	54                   	push   %esp
c0102d91:	b8 10 00 00 00       	mov    $0x10,%eax
c0102d96:	8e d8                	mov    %eax,%ds
c0102d98:	8e c0                	mov    %eax,%es
c0102d9a:	b8 02 00 00 00       	mov    $0x2,%eax
c0102d9f:	50                   	push   %eax
c0102da0:	b8 22 00 00 00       	mov    $0x22,%eax
c0102da5:	50                   	push   %eax
c0102da6:	fc                   	cld    
c0102da7:	e8 74 0f 00 00       	call   c0103d20 <interrupt_default_handler>
c0102dac:	58                   	pop    %eax
c0102dad:	58                   	pop    %eax
c0102dae:	5c                   	pop    %esp
c0102daf:	5c                   	pop    %esp
c0102db0:	0f a9                	pop    %gs
c0102db2:	0f a1                	pop    %fs
c0102db4:	07                   	pop    %es
c0102db5:	1f                   	pop    %ds
c0102db6:	61                   	popa   
c0102db7:	83 c4 08             	add    $0x8,%esp
c0102dba:	cf                   	iret   

c0102dbb <interrupt_0x23>:
c0102dbb:	68 ee fe ee fe       	push   $0xfeeefeee
c0102dc0:	54                   	push   %esp
c0102dc1:	60                   	pusha  
c0102dc2:	1e                   	push   %ds
c0102dc3:	06                   	push   %es
c0102dc4:	0f a0                	push   %fs
c0102dc6:	0f a8                	push   %gs
c0102dc8:	54                   	push   %esp
c0102dc9:	54                   	push   %esp
c0102dca:	b8 10 00 00 00       	mov    $0x10,%eax
c0102dcf:	8e d8                	mov    %eax,%ds
c0102dd1:	8e c0                	mov    %eax,%es
c0102dd3:	b8 02 00 00 00       	mov    $0x2,%eax
c0102dd8:	50                   	push   %eax
c0102dd9:	b8 23 00 00 00       	mov    $0x23,%eax
c0102dde:	50                   	push   %eax
c0102ddf:	fc                   	cld    
c0102de0:	e8 3b 0f 00 00       	call   c0103d20 <interrupt_default_handler>
c0102de5:	58                   	pop    %eax
c0102de6:	58                   	pop    %eax
c0102de7:	5c                   	pop    %esp
c0102de8:	5c                   	pop    %esp
c0102de9:	0f a9                	pop    %gs
c0102deb:	0f a1                	pop    %fs
c0102ded:	07                   	pop    %es
c0102dee:	1f                   	pop    %ds
c0102def:	61                   	popa   
c0102df0:	83 c4 08             	add    $0x8,%esp
c0102df3:	cf                   	iret   

c0102df4 <interrupt_0x24>:
c0102df4:	68 ee fe ee fe       	push   $0xfeeefeee
c0102df9:	54                   	push   %esp
c0102dfa:	60                   	pusha  
c0102dfb:	1e                   	push   %ds
c0102dfc:	06                   	push   %es
c0102dfd:	0f a0                	push   %fs
c0102dff:	0f a8                	push   %gs
c0102e01:	54                   	push   %esp
c0102e02:	54                   	push   %esp
c0102e03:	b8 10 00 00 00       	mov    $0x10,%eax
c0102e08:	8e d8                	mov    %eax,%ds
c0102e0a:	8e c0                	mov    %eax,%es
c0102e0c:	b8 02 00 00 00       	mov    $0x2,%eax
c0102e11:	50                   	push   %eax
c0102e12:	b8 24 00 00 00       	mov    $0x24,%eax
c0102e17:	50                   	push   %eax
c0102e18:	fc                   	cld    
c0102e19:	e8 02 0f 00 00       	call   c0103d20 <interrupt_default_handler>
c0102e1e:	58                   	pop    %eax
c0102e1f:	58                   	pop    %eax
c0102e20:	5c                   	pop    %esp
c0102e21:	5c                   	pop    %esp
c0102e22:	0f a9                	pop    %gs
c0102e24:	0f a1                	pop    %fs
c0102e26:	07                   	pop    %es
c0102e27:	1f                   	pop    %ds
c0102e28:	61                   	popa   
c0102e29:	83 c4 08             	add    $0x8,%esp
c0102e2c:	cf                   	iret   

c0102e2d <interrupt_0x25>:
c0102e2d:	68 ee fe ee fe       	push   $0xfeeefeee
c0102e32:	54                   	push   %esp
c0102e33:	60                   	pusha  
c0102e34:	1e                   	push   %ds
c0102e35:	06                   	push   %es
c0102e36:	0f a0                	push   %fs
c0102e38:	0f a8                	push   %gs
c0102e3a:	54                   	push   %esp
c0102e3b:	54                   	push   %esp
c0102e3c:	b8 10 00 00 00       	mov    $0x10,%eax
c0102e41:	8e d8                	mov    %eax,%ds
c0102e43:	8e c0                	mov    %eax,%es
c0102e45:	b8 02 00 00 00       	mov    $0x2,%eax
c0102e4a:	50                   	push   %eax
c0102e4b:	b8 25 00 00 00       	mov    $0x25,%eax
c0102e50:	50                   	push   %eax
c0102e51:	fc                   	cld    
c0102e52:	e8 c9 0e 00 00       	call   c0103d20 <interrupt_default_handler>
c0102e57:	58                   	pop    %eax
c0102e58:	58                   	pop    %eax
c0102e59:	5c                   	pop    %esp
c0102e5a:	5c                   	pop    %esp
c0102e5b:	0f a9                	pop    %gs
c0102e5d:	0f a1                	pop    %fs
c0102e5f:	07                   	pop    %es
c0102e60:	1f                   	pop    %ds
c0102e61:	61                   	popa   
c0102e62:	83 c4 08             	add    $0x8,%esp
c0102e65:	cf                   	iret   

c0102e66 <interrupt_0x26>:
c0102e66:	68 ee fe ee fe       	push   $0xfeeefeee
c0102e6b:	54                   	push   %esp
c0102e6c:	60                   	pusha  
c0102e6d:	1e                   	push   %ds
c0102e6e:	06                   	push   %es
c0102e6f:	0f a0                	push   %fs
c0102e71:	0f a8                	push   %gs
c0102e73:	54                   	push   %esp
c0102e74:	54                   	push   %esp
c0102e75:	b8 10 00 00 00       	mov    $0x10,%eax
c0102e7a:	8e d8                	mov    %eax,%ds
c0102e7c:	8e c0                	mov    %eax,%es
c0102e7e:	b8 02 00 00 00       	mov    $0x2,%eax
c0102e83:	50                   	push   %eax
c0102e84:	b8 26 00 00 00       	mov    $0x26,%eax
c0102e89:	50                   	push   %eax
c0102e8a:	fc                   	cld    
c0102e8b:	e8 90 0e 00 00       	call   c0103d20 <interrupt_default_handler>
c0102e90:	58                   	pop    %eax
c0102e91:	58                   	pop    %eax
c0102e92:	5c                   	pop    %esp
c0102e93:	5c                   	pop    %esp
c0102e94:	0f a9                	pop    %gs
c0102e96:	0f a1                	pop    %fs
c0102e98:	07                   	pop    %es
c0102e99:	1f                   	pop    %ds
c0102e9a:	61                   	popa   
c0102e9b:	83 c4 08             	add    $0x8,%esp
c0102e9e:	cf                   	iret   

c0102e9f <interrupt_0x27>:
c0102e9f:	68 ee fe ee fe       	push   $0xfeeefeee
c0102ea4:	54                   	push   %esp
c0102ea5:	60                   	pusha  
c0102ea6:	1e                   	push   %ds
c0102ea7:	06                   	push   %es
c0102ea8:	0f a0                	push   %fs
c0102eaa:	0f a8                	push   %gs
c0102eac:	54                   	push   %esp
c0102ead:	54                   	push   %esp
c0102eae:	b8 10 00 00 00       	mov    $0x10,%eax
c0102eb3:	8e d8                	mov    %eax,%ds
c0102eb5:	8e c0                	mov    %eax,%es
c0102eb7:	b8 02 00 00 00       	mov    $0x2,%eax
c0102ebc:	50                   	push   %eax
c0102ebd:	b8 27 00 00 00       	mov    $0x27,%eax
c0102ec2:	50                   	push   %eax
c0102ec3:	fc                   	cld    
c0102ec4:	e8 57 0e 00 00       	call   c0103d20 <interrupt_default_handler>
c0102ec9:	58                   	pop    %eax
c0102eca:	58                   	pop    %eax
c0102ecb:	5c                   	pop    %esp
c0102ecc:	5c                   	pop    %esp
c0102ecd:	0f a9                	pop    %gs
c0102ecf:	0f a1                	pop    %fs
c0102ed1:	07                   	pop    %es
c0102ed2:	1f                   	pop    %ds
c0102ed3:	61                   	popa   
c0102ed4:	83 c4 08             	add    $0x8,%esp
c0102ed7:	cf                   	iret   

c0102ed8 <interrupt_0x28>:
c0102ed8:	68 ee fe ee fe       	push   $0xfeeefeee
c0102edd:	54                   	push   %esp
c0102ede:	60                   	pusha  
c0102edf:	1e                   	push   %ds
c0102ee0:	06                   	push   %es
c0102ee1:	0f a0                	push   %fs
c0102ee3:	0f a8                	push   %gs
c0102ee5:	54                   	push   %esp
c0102ee6:	54                   	push   %esp
c0102ee7:	b8 10 00 00 00       	mov    $0x10,%eax
c0102eec:	8e d8                	mov    %eax,%ds
c0102eee:	8e c0                	mov    %eax,%es
c0102ef0:	b8 02 00 00 00       	mov    $0x2,%eax
c0102ef5:	50                   	push   %eax
c0102ef6:	b8 28 00 00 00       	mov    $0x28,%eax
c0102efb:	50                   	push   %eax
c0102efc:	fc                   	cld    
c0102efd:	e8 1e 0e 00 00       	call   c0103d20 <interrupt_default_handler>
c0102f02:	58                   	pop    %eax
c0102f03:	58                   	pop    %eax
c0102f04:	5c                   	pop    %esp
c0102f05:	5c                   	pop    %esp
c0102f06:	0f a9                	pop    %gs
c0102f08:	0f a1                	pop    %fs
c0102f0a:	07                   	pop    %es
c0102f0b:	1f                   	pop    %ds
c0102f0c:	61                   	popa   
c0102f0d:	83 c4 08             	add    $0x8,%esp
c0102f10:	cf                   	iret   

c0102f11 <interrupt_0x29>:
c0102f11:	68 ee fe ee fe       	push   $0xfeeefeee
c0102f16:	54                   	push   %esp
c0102f17:	60                   	pusha  
c0102f18:	1e                   	push   %ds
c0102f19:	06                   	push   %es
c0102f1a:	0f a0                	push   %fs
c0102f1c:	0f a8                	push   %gs
c0102f1e:	54                   	push   %esp
c0102f1f:	54                   	push   %esp
c0102f20:	b8 10 00 00 00       	mov    $0x10,%eax
c0102f25:	8e d8                	mov    %eax,%ds
c0102f27:	8e c0                	mov    %eax,%es
c0102f29:	b8 02 00 00 00       	mov    $0x2,%eax
c0102f2e:	50                   	push   %eax
c0102f2f:	b8 29 00 00 00       	mov    $0x29,%eax
c0102f34:	50                   	push   %eax
c0102f35:	fc                   	cld    
c0102f36:	e8 e5 0d 00 00       	call   c0103d20 <interrupt_default_handler>
c0102f3b:	58                   	pop    %eax
c0102f3c:	58                   	pop    %eax
c0102f3d:	5c                   	pop    %esp
c0102f3e:	5c                   	pop    %esp
c0102f3f:	0f a9                	pop    %gs
c0102f41:	0f a1                	pop    %fs
c0102f43:	07                   	pop    %es
c0102f44:	1f                   	pop    %ds
c0102f45:	61                   	popa   
c0102f46:	83 c4 08             	add    $0x8,%esp
c0102f49:	cf                   	iret   

c0102f4a <interrupt_0x2A>:
c0102f4a:	68 ee fe ee fe       	push   $0xfeeefeee
c0102f4f:	54                   	push   %esp
c0102f50:	60                   	pusha  
c0102f51:	1e                   	push   %ds
c0102f52:	06                   	push   %es
c0102f53:	0f a0                	push   %fs
c0102f55:	0f a8                	push   %gs
c0102f57:	54                   	push   %esp
c0102f58:	54                   	push   %esp
c0102f59:	b8 10 00 00 00       	mov    $0x10,%eax
c0102f5e:	8e d8                	mov    %eax,%ds
c0102f60:	8e c0                	mov    %eax,%es
c0102f62:	b8 02 00 00 00       	mov    $0x2,%eax
c0102f67:	50                   	push   %eax
c0102f68:	b8 2a 00 00 00       	mov    $0x2a,%eax
c0102f6d:	50                   	push   %eax
c0102f6e:	fc                   	cld    
c0102f6f:	e8 ac 0d 00 00       	call   c0103d20 <interrupt_default_handler>
c0102f74:	58                   	pop    %eax
c0102f75:	58                   	pop    %eax
c0102f76:	5c                   	pop    %esp
c0102f77:	5c                   	pop    %esp
c0102f78:	0f a9                	pop    %gs
c0102f7a:	0f a1                	pop    %fs
c0102f7c:	07                   	pop    %es
c0102f7d:	1f                   	pop    %ds
c0102f7e:	61                   	popa   
c0102f7f:	83 c4 08             	add    $0x8,%esp
c0102f82:	cf                   	iret   

c0102f83 <interrupt_0x2B>:
c0102f83:	68 ee fe ee fe       	push   $0xfeeefeee
c0102f88:	54                   	push   %esp
c0102f89:	60                   	pusha  
c0102f8a:	1e                   	push   %ds
c0102f8b:	06                   	push   %es
c0102f8c:	0f a0                	push   %fs
c0102f8e:	0f a8                	push   %gs
c0102f90:	54                   	push   %esp
c0102f91:	54                   	push   %esp
c0102f92:	b8 10 00 00 00       	mov    $0x10,%eax
c0102f97:	8e d8                	mov    %eax,%ds
c0102f99:	8e c0                	mov    %eax,%es
c0102f9b:	b8 02 00 00 00       	mov    $0x2,%eax
c0102fa0:	50                   	push   %eax
c0102fa1:	b8 2b 00 00 00       	mov    $0x2b,%eax
c0102fa6:	50                   	push   %eax
c0102fa7:	fc                   	cld    
c0102fa8:	e8 73 0d 00 00       	call   c0103d20 <interrupt_default_handler>
c0102fad:	58                   	pop    %eax
c0102fae:	58                   	pop    %eax
c0102faf:	5c                   	pop    %esp
c0102fb0:	5c                   	pop    %esp
c0102fb1:	0f a9                	pop    %gs
c0102fb3:	0f a1                	pop    %fs
c0102fb5:	07                   	pop    %es
c0102fb6:	1f                   	pop    %ds
c0102fb7:	61                   	popa   
c0102fb8:	83 c4 08             	add    $0x8,%esp
c0102fbb:	cf                   	iret   

c0102fbc <interrupt_0x2C>:
c0102fbc:	68 ee fe ee fe       	push   $0xfeeefeee
c0102fc1:	54                   	push   %esp
c0102fc2:	60                   	pusha  
c0102fc3:	1e                   	push   %ds
c0102fc4:	06                   	push   %es
c0102fc5:	0f a0                	push   %fs
c0102fc7:	0f a8                	push   %gs
c0102fc9:	54                   	push   %esp
c0102fca:	54                   	push   %esp
c0102fcb:	b8 10 00 00 00       	mov    $0x10,%eax
c0102fd0:	8e d8                	mov    %eax,%ds
c0102fd2:	8e c0                	mov    %eax,%es
c0102fd4:	b8 02 00 00 00       	mov    $0x2,%eax
c0102fd9:	50                   	push   %eax
c0102fda:	b8 2c 00 00 00       	mov    $0x2c,%eax
c0102fdf:	50                   	push   %eax
c0102fe0:	fc                   	cld    
c0102fe1:	e8 3a 0d 00 00       	call   c0103d20 <interrupt_default_handler>
c0102fe6:	58                   	pop    %eax
c0102fe7:	58                   	pop    %eax
c0102fe8:	5c                   	pop    %esp
c0102fe9:	5c                   	pop    %esp
c0102fea:	0f a9                	pop    %gs
c0102fec:	0f a1                	pop    %fs
c0102fee:	07                   	pop    %es
c0102fef:	1f                   	pop    %ds
c0102ff0:	61                   	popa   
c0102ff1:	83 c4 08             	add    $0x8,%esp
c0102ff4:	cf                   	iret   

c0102ff5 <interrupt_0x2D>:
c0102ff5:	68 ee fe ee fe       	push   $0xfeeefeee
c0102ffa:	54                   	push   %esp
c0102ffb:	60                   	pusha  
c0102ffc:	1e                   	push   %ds
c0102ffd:	06                   	push   %es
c0102ffe:	0f a0                	push   %fs
c0103000:	0f a8                	push   %gs
c0103002:	54                   	push   %esp
c0103003:	54                   	push   %esp
c0103004:	b8 10 00 00 00       	mov    $0x10,%eax
c0103009:	8e d8                	mov    %eax,%ds
c010300b:	8e c0                	mov    %eax,%es
c010300d:	b8 02 00 00 00       	mov    $0x2,%eax
c0103012:	50                   	push   %eax
c0103013:	b8 2d 00 00 00       	mov    $0x2d,%eax
c0103018:	50                   	push   %eax
c0103019:	fc                   	cld    
c010301a:	e8 01 0d 00 00       	call   c0103d20 <interrupt_default_handler>
c010301f:	58                   	pop    %eax
c0103020:	58                   	pop    %eax
c0103021:	5c                   	pop    %esp
c0103022:	5c                   	pop    %esp
c0103023:	0f a9                	pop    %gs
c0103025:	0f a1                	pop    %fs
c0103027:	07                   	pop    %es
c0103028:	1f                   	pop    %ds
c0103029:	61                   	popa   
c010302a:	83 c4 08             	add    $0x8,%esp
c010302d:	cf                   	iret   

c010302e <interrupt_0x2E>:
c010302e:	68 ee fe ee fe       	push   $0xfeeefeee
c0103033:	54                   	push   %esp
c0103034:	60                   	pusha  
c0103035:	1e                   	push   %ds
c0103036:	06                   	push   %es
c0103037:	0f a0                	push   %fs
c0103039:	0f a8                	push   %gs
c010303b:	54                   	push   %esp
c010303c:	54                   	push   %esp
c010303d:	b8 10 00 00 00       	mov    $0x10,%eax
c0103042:	8e d8                	mov    %eax,%ds
c0103044:	8e c0                	mov    %eax,%es
c0103046:	b8 02 00 00 00       	mov    $0x2,%eax
c010304b:	50                   	push   %eax
c010304c:	b8 2e 00 00 00       	mov    $0x2e,%eax
c0103051:	50                   	push   %eax
c0103052:	fc                   	cld    
c0103053:	e8 c8 0c 00 00       	call   c0103d20 <interrupt_default_handler>
c0103058:	58                   	pop    %eax
c0103059:	58                   	pop    %eax
c010305a:	5c                   	pop    %esp
c010305b:	5c                   	pop    %esp
c010305c:	0f a9                	pop    %gs
c010305e:	0f a1                	pop    %fs
c0103060:	07                   	pop    %es
c0103061:	1f                   	pop    %ds
c0103062:	61                   	popa   
c0103063:	83 c4 08             	add    $0x8,%esp
c0103066:	cf                   	iret   

c0103067 <interrupt_0x2F>:
c0103067:	68 ee fe ee fe       	push   $0xfeeefeee
c010306c:	54                   	push   %esp
c010306d:	60                   	pusha  
c010306e:	1e                   	push   %ds
c010306f:	06                   	push   %es
c0103070:	0f a0                	push   %fs
c0103072:	0f a8                	push   %gs
c0103074:	54                   	push   %esp
c0103075:	54                   	push   %esp
c0103076:	b8 10 00 00 00       	mov    $0x10,%eax
c010307b:	8e d8                	mov    %eax,%ds
c010307d:	8e c0                	mov    %eax,%es
c010307f:	b8 02 00 00 00       	mov    $0x2,%eax
c0103084:	50                   	push   %eax
c0103085:	b8 2f 00 00 00       	mov    $0x2f,%eax
c010308a:	50                   	push   %eax
c010308b:	fc                   	cld    
c010308c:	e8 8f 0c 00 00       	call   c0103d20 <interrupt_default_handler>
c0103091:	58                   	pop    %eax
c0103092:	58                   	pop    %eax
c0103093:	5c                   	pop    %esp
c0103094:	5c                   	pop    %esp
c0103095:	0f a9                	pop    %gs
c0103097:	0f a1                	pop    %fs
c0103099:	07                   	pop    %es
c010309a:	1f                   	pop    %ds
c010309b:	61                   	popa   
c010309c:	83 c4 08             	add    $0x8,%esp
c010309f:	cf                   	iret   

c01030a0 <interrupt_0x30>:
c01030a0:	68 ee fe ee fe       	push   $0xfeeefeee
c01030a5:	54                   	push   %esp
c01030a6:	60                   	pusha  
c01030a7:	1e                   	push   %ds
c01030a8:	06                   	push   %es
c01030a9:	0f a0                	push   %fs
c01030ab:	0f a8                	push   %gs
c01030ad:	54                   	push   %esp
c01030ae:	54                   	push   %esp
c01030af:	b8 10 00 00 00       	mov    $0x10,%eax
c01030b4:	8e d8                	mov    %eax,%ds
c01030b6:	8e c0                	mov    %eax,%es
c01030b8:	b8 02 00 00 00       	mov    $0x2,%eax
c01030bd:	50                   	push   %eax
c01030be:	b8 30 00 00 00       	mov    $0x30,%eax
c01030c3:	50                   	push   %eax
c01030c4:	fc                   	cld    
c01030c5:	e8 56 0c 00 00       	call   c0103d20 <interrupt_default_handler>
c01030ca:	58                   	pop    %eax
c01030cb:	58                   	pop    %eax
c01030cc:	5c                   	pop    %esp
c01030cd:	5c                   	pop    %esp
c01030ce:	0f a9                	pop    %gs
c01030d0:	0f a1                	pop    %fs
c01030d2:	07                   	pop    %es
c01030d3:	1f                   	pop    %ds
c01030d4:	61                   	popa   
c01030d5:	83 c4 08             	add    $0x8,%esp
c01030d8:	cf                   	iret   

c01030d9 <interrupt_0x31>:
c01030d9:	68 ee fe ee fe       	push   $0xfeeefeee
c01030de:	54                   	push   %esp
c01030df:	60                   	pusha  
c01030e0:	1e                   	push   %ds
c01030e1:	06                   	push   %es
c01030e2:	0f a0                	push   %fs
c01030e4:	0f a8                	push   %gs
c01030e6:	54                   	push   %esp
c01030e7:	54                   	push   %esp
c01030e8:	b8 10 00 00 00       	mov    $0x10,%eax
c01030ed:	8e d8                	mov    %eax,%ds
c01030ef:	8e c0                	mov    %eax,%es
c01030f1:	b8 02 00 00 00       	mov    $0x2,%eax
c01030f6:	50                   	push   %eax
c01030f7:	b8 31 00 00 00       	mov    $0x31,%eax
c01030fc:	50                   	push   %eax
c01030fd:	fc                   	cld    
c01030fe:	e8 1d 0c 00 00       	call   c0103d20 <interrupt_default_handler>
c0103103:	58                   	pop    %eax
c0103104:	58                   	pop    %eax
c0103105:	5c                   	pop    %esp
c0103106:	5c                   	pop    %esp
c0103107:	0f a9                	pop    %gs
c0103109:	0f a1                	pop    %fs
c010310b:	07                   	pop    %es
c010310c:	1f                   	pop    %ds
c010310d:	61                   	popa   
c010310e:	83 c4 08             	add    $0x8,%esp
c0103111:	cf                   	iret   

c0103112 <interrupt_0x32>:
c0103112:	68 ee fe ee fe       	push   $0xfeeefeee
c0103117:	54                   	push   %esp
c0103118:	60                   	pusha  
c0103119:	1e                   	push   %ds
c010311a:	06                   	push   %es
c010311b:	0f a0                	push   %fs
c010311d:	0f a8                	push   %gs
c010311f:	54                   	push   %esp
c0103120:	54                   	push   %esp
c0103121:	b8 10 00 00 00       	mov    $0x10,%eax
c0103126:	8e d8                	mov    %eax,%ds
c0103128:	8e c0                	mov    %eax,%es
c010312a:	b8 02 00 00 00       	mov    $0x2,%eax
c010312f:	50                   	push   %eax
c0103130:	b8 32 00 00 00       	mov    $0x32,%eax
c0103135:	50                   	push   %eax
c0103136:	fc                   	cld    
c0103137:	e8 e4 0b 00 00       	call   c0103d20 <interrupt_default_handler>
c010313c:	58                   	pop    %eax
c010313d:	58                   	pop    %eax
c010313e:	5c                   	pop    %esp
c010313f:	5c                   	pop    %esp
c0103140:	0f a9                	pop    %gs
c0103142:	0f a1                	pop    %fs
c0103144:	07                   	pop    %es
c0103145:	1f                   	pop    %ds
c0103146:	61                   	popa   
c0103147:	83 c4 08             	add    $0x8,%esp
c010314a:	cf                   	iret   

c010314b <interrupt_0x99>:
c010314b:	68 ee fe ee fe       	push   $0xfeeefeee
c0103150:	54                   	push   %esp
c0103151:	60                   	pusha  
c0103152:	1e                   	push   %ds
c0103153:	06                   	push   %es
c0103154:	0f a0                	push   %fs
c0103156:	0f a8                	push   %gs
c0103158:	54                   	push   %esp
c0103159:	54                   	push   %esp
c010315a:	b8 10 00 00 00       	mov    $0x10,%eax
c010315f:	8e d8                	mov    %eax,%ds
c0103161:	8e c0                	mov    %eax,%es
c0103163:	b8 02 00 00 00       	mov    $0x2,%eax
c0103168:	50                   	push   %eax
c0103169:	b8 99 00 00 00       	mov    $0x99,%eax
c010316e:	50                   	push   %eax
c010316f:	fc                   	cld    
c0103170:	e8 ab 0b 00 00       	call   c0103d20 <interrupt_default_handler>
c0103175:	58                   	pop    %eax
c0103176:	58                   	pop    %eax
c0103177:	5c                   	pop    %esp
c0103178:	5c                   	pop    %esp
c0103179:	0f a9                	pop    %gs
c010317b:	0f a1                	pop    %fs
c010317d:	07                   	pop    %es
c010317e:	1f                   	pop    %ds
c010317f:	61                   	popa   
c0103180:	83 c4 08             	add    $0x8,%esp
c0103183:	cf                   	iret   

c0103184 <interrupt_0>:
c0103184:	54                   	push   %esp
c0103185:	60                   	pusha  
c0103186:	1e                   	push   %ds
c0103187:	06                   	push   %es
c0103188:	0f a0                	push   %fs
c010318a:	0f a8                	push   %gs
c010318c:	54                   	push   %esp
c010318d:	b8 10 00 00 00       	mov    $0x10,%eax
c0103192:	8e d8                	mov    %eax,%ds
c0103194:	8e c0                	mov    %eax,%es
c0103196:	b8 01 00 00 00       	mov    $0x1,%eax
c010319b:	50                   	push   %eax
c010319c:	b8 00 00 00 00       	mov    $0x0,%eax
c01031a1:	50                   	push   %eax
c01031a2:	fc                   	cld    
c01031a3:	e8 78 0b 00 00       	call   c0103d20 <interrupt_default_handler>
c01031a8:	58                   	pop    %eax
c01031a9:	58                   	pop    %eax
c01031aa:	83 c4 04             	add    $0x4,%esp
c01031ad:	0f a9                	pop    %gs
c01031af:	0f a1                	pop    %fs
c01031b1:	07                   	pop    %es
c01031b2:	1f                   	pop    %ds
c01031b3:	61                   	popa   
c01031b4:	5c                   	pop    %esp
c01031b5:	cf                   	iret   

c01031b6 <interrupt_1>:
c01031b6:	54                   	push   %esp
c01031b7:	60                   	pusha  
c01031b8:	1e                   	push   %ds
c01031b9:	06                   	push   %es
c01031ba:	0f a0                	push   %fs
c01031bc:	0f a8                	push   %gs
c01031be:	54                   	push   %esp
c01031bf:	b8 10 00 00 00       	mov    $0x10,%eax
c01031c4:	8e d8                	mov    %eax,%ds
c01031c6:	8e c0                	mov    %eax,%es
c01031c8:	b8 01 00 00 00       	mov    $0x1,%eax
c01031cd:	50                   	push   %eax
c01031ce:	b8 01 00 00 00       	mov    $0x1,%eax
c01031d3:	50                   	push   %eax
c01031d4:	fc                   	cld    
c01031d5:	e8 46 0b 00 00       	call   c0103d20 <interrupt_default_handler>
c01031da:	58                   	pop    %eax
c01031db:	58                   	pop    %eax
c01031dc:	83 c4 04             	add    $0x4,%esp
c01031df:	0f a9                	pop    %gs
c01031e1:	0f a1                	pop    %fs
c01031e3:	07                   	pop    %es
c01031e4:	1f                   	pop    %ds
c01031e5:	61                   	popa   
c01031e6:	5c                   	pop    %esp
c01031e7:	cf                   	iret   

c01031e8 <interrupt_2>:
c01031e8:	54                   	push   %esp
c01031e9:	60                   	pusha  
c01031ea:	1e                   	push   %ds
c01031eb:	06                   	push   %es
c01031ec:	0f a0                	push   %fs
c01031ee:	0f a8                	push   %gs
c01031f0:	54                   	push   %esp
c01031f1:	b8 10 00 00 00       	mov    $0x10,%eax
c01031f6:	8e d8                	mov    %eax,%ds
c01031f8:	8e c0                	mov    %eax,%es
c01031fa:	b8 01 00 00 00       	mov    $0x1,%eax
c01031ff:	50                   	push   %eax
c0103200:	b8 02 00 00 00       	mov    $0x2,%eax
c0103205:	50                   	push   %eax
c0103206:	fc                   	cld    
c0103207:	e8 14 0b 00 00       	call   c0103d20 <interrupt_default_handler>
c010320c:	58                   	pop    %eax
c010320d:	58                   	pop    %eax
c010320e:	83 c4 04             	add    $0x4,%esp
c0103211:	0f a9                	pop    %gs
c0103213:	0f a1                	pop    %fs
c0103215:	07                   	pop    %es
c0103216:	1f                   	pop    %ds
c0103217:	61                   	popa   
c0103218:	5c                   	pop    %esp
c0103219:	cf                   	iret   

c010321a <interrupt_3>:
c010321a:	54                   	push   %esp
c010321b:	60                   	pusha  
c010321c:	1e                   	push   %ds
c010321d:	06                   	push   %es
c010321e:	0f a0                	push   %fs
c0103220:	0f a8                	push   %gs
c0103222:	54                   	push   %esp
c0103223:	b8 10 00 00 00       	mov    $0x10,%eax
c0103228:	8e d8                	mov    %eax,%ds
c010322a:	8e c0                	mov    %eax,%es
c010322c:	b8 01 00 00 00       	mov    $0x1,%eax
c0103231:	50                   	push   %eax
c0103232:	b8 03 00 00 00       	mov    $0x3,%eax
c0103237:	50                   	push   %eax
c0103238:	fc                   	cld    
c0103239:	e8 e2 0a 00 00       	call   c0103d20 <interrupt_default_handler>
c010323e:	58                   	pop    %eax
c010323f:	58                   	pop    %eax
c0103240:	83 c4 04             	add    $0x4,%esp
c0103243:	0f a9                	pop    %gs
c0103245:	0f a1                	pop    %fs
c0103247:	07                   	pop    %es
c0103248:	1f                   	pop    %ds
c0103249:	61                   	popa   
c010324a:	5c                   	pop    %esp
c010324b:	cf                   	iret   

c010324c <interrupt_4>:
c010324c:	54                   	push   %esp
c010324d:	60                   	pusha  
c010324e:	1e                   	push   %ds
c010324f:	06                   	push   %es
c0103250:	0f a0                	push   %fs
c0103252:	0f a8                	push   %gs
c0103254:	54                   	push   %esp
c0103255:	b8 10 00 00 00       	mov    $0x10,%eax
c010325a:	8e d8                	mov    %eax,%ds
c010325c:	8e c0                	mov    %eax,%es
c010325e:	b8 01 00 00 00       	mov    $0x1,%eax
c0103263:	50                   	push   %eax
c0103264:	b8 04 00 00 00       	mov    $0x4,%eax
c0103269:	50                   	push   %eax
c010326a:	fc                   	cld    
c010326b:	e8 b0 0a 00 00       	call   c0103d20 <interrupt_default_handler>
c0103270:	58                   	pop    %eax
c0103271:	58                   	pop    %eax
c0103272:	83 c4 04             	add    $0x4,%esp
c0103275:	0f a9                	pop    %gs
c0103277:	0f a1                	pop    %fs
c0103279:	07                   	pop    %es
c010327a:	1f                   	pop    %ds
c010327b:	61                   	popa   
c010327c:	5c                   	pop    %esp
c010327d:	cf                   	iret   

c010327e <interrupt_5>:
c010327e:	54                   	push   %esp
c010327f:	60                   	pusha  
c0103280:	1e                   	push   %ds
c0103281:	06                   	push   %es
c0103282:	0f a0                	push   %fs
c0103284:	0f a8                	push   %gs
c0103286:	54                   	push   %esp
c0103287:	b8 10 00 00 00       	mov    $0x10,%eax
c010328c:	8e d8                	mov    %eax,%ds
c010328e:	8e c0                	mov    %eax,%es
c0103290:	b8 01 00 00 00       	mov    $0x1,%eax
c0103295:	50                   	push   %eax
c0103296:	b8 05 00 00 00       	mov    $0x5,%eax
c010329b:	50                   	push   %eax
c010329c:	fc                   	cld    
c010329d:	e8 7e 0a 00 00       	call   c0103d20 <interrupt_default_handler>
c01032a2:	58                   	pop    %eax
c01032a3:	58                   	pop    %eax
c01032a4:	83 c4 04             	add    $0x4,%esp
c01032a7:	0f a9                	pop    %gs
c01032a9:	0f a1                	pop    %fs
c01032ab:	07                   	pop    %es
c01032ac:	1f                   	pop    %ds
c01032ad:	61                   	popa   
c01032ae:	5c                   	pop    %esp
c01032af:	cf                   	iret   

c01032b0 <interrupt_6>:
c01032b0:	54                   	push   %esp
c01032b1:	60                   	pusha  
c01032b2:	1e                   	push   %ds
c01032b3:	06                   	push   %es
c01032b4:	0f a0                	push   %fs
c01032b6:	0f a8                	push   %gs
c01032b8:	54                   	push   %esp
c01032b9:	b8 10 00 00 00       	mov    $0x10,%eax
c01032be:	8e d8                	mov    %eax,%ds
c01032c0:	8e c0                	mov    %eax,%es
c01032c2:	b8 01 00 00 00       	mov    $0x1,%eax
c01032c7:	50                   	push   %eax
c01032c8:	b8 06 00 00 00       	mov    $0x6,%eax
c01032cd:	50                   	push   %eax
c01032ce:	fc                   	cld    
c01032cf:	e8 4c 0a 00 00       	call   c0103d20 <interrupt_default_handler>
c01032d4:	58                   	pop    %eax
c01032d5:	58                   	pop    %eax
c01032d6:	83 c4 04             	add    $0x4,%esp
c01032d9:	0f a9                	pop    %gs
c01032db:	0f a1                	pop    %fs
c01032dd:	07                   	pop    %es
c01032de:	1f                   	pop    %ds
c01032df:	61                   	popa   
c01032e0:	5c                   	pop    %esp
c01032e1:	cf                   	iret   

c01032e2 <interrupt_7>:
c01032e2:	54                   	push   %esp
c01032e3:	60                   	pusha  
c01032e4:	1e                   	push   %ds
c01032e5:	06                   	push   %es
c01032e6:	0f a0                	push   %fs
c01032e8:	0f a8                	push   %gs
c01032ea:	54                   	push   %esp
c01032eb:	b8 10 00 00 00       	mov    $0x10,%eax
c01032f0:	8e d8                	mov    %eax,%ds
c01032f2:	8e c0                	mov    %eax,%es
c01032f4:	b8 01 00 00 00       	mov    $0x1,%eax
c01032f9:	50                   	push   %eax
c01032fa:	b8 07 00 00 00       	mov    $0x7,%eax
c01032ff:	50                   	push   %eax
c0103300:	fc                   	cld    
c0103301:	e8 1a 0a 00 00       	call   c0103d20 <interrupt_default_handler>
c0103306:	58                   	pop    %eax
c0103307:	58                   	pop    %eax
c0103308:	83 c4 04             	add    $0x4,%esp
c010330b:	0f a9                	pop    %gs
c010330d:	0f a1                	pop    %fs
c010330f:	07                   	pop    %es
c0103310:	1f                   	pop    %ds
c0103311:	61                   	popa   
c0103312:	5c                   	pop    %esp
c0103313:	cf                   	iret   

c0103314 <interrupt_8>:
c0103314:	54                   	push   %esp
c0103315:	60                   	pusha  
c0103316:	1e                   	push   %ds
c0103317:	06                   	push   %es
c0103318:	0f a0                	push   %fs
c010331a:	0f a8                	push   %gs
c010331c:	54                   	push   %esp
c010331d:	b8 10 00 00 00       	mov    $0x10,%eax
c0103322:	8e d8                	mov    %eax,%ds
c0103324:	8e c0                	mov    %eax,%es
c0103326:	b8 01 00 00 00       	mov    $0x1,%eax
c010332b:	50                   	push   %eax
c010332c:	b8 08 00 00 00       	mov    $0x8,%eax
c0103331:	50                   	push   %eax
c0103332:	fc                   	cld    
c0103333:	e8 e8 09 00 00       	call   c0103d20 <interrupt_default_handler>
c0103338:	58                   	pop    %eax
c0103339:	58                   	pop    %eax
c010333a:	83 c4 04             	add    $0x4,%esp
c010333d:	0f a9                	pop    %gs
c010333f:	0f a1                	pop    %fs
c0103341:	07                   	pop    %es
c0103342:	1f                   	pop    %ds
c0103343:	61                   	popa   
c0103344:	5c                   	pop    %esp
c0103345:	cf                   	iret   

c0103346 <interrupt_9>:
c0103346:	54                   	push   %esp
c0103347:	60                   	pusha  
c0103348:	1e                   	push   %ds
c0103349:	06                   	push   %es
c010334a:	0f a0                	push   %fs
c010334c:	0f a8                	push   %gs
c010334e:	54                   	push   %esp
c010334f:	b8 10 00 00 00       	mov    $0x10,%eax
c0103354:	8e d8                	mov    %eax,%ds
c0103356:	8e c0                	mov    %eax,%es
c0103358:	b8 01 00 00 00       	mov    $0x1,%eax
c010335d:	50                   	push   %eax
c010335e:	b8 09 00 00 00       	mov    $0x9,%eax
c0103363:	50                   	push   %eax
c0103364:	fc                   	cld    
c0103365:	e8 b6 09 00 00       	call   c0103d20 <interrupt_default_handler>
c010336a:	58                   	pop    %eax
c010336b:	58                   	pop    %eax
c010336c:	83 c4 04             	add    $0x4,%esp
c010336f:	0f a9                	pop    %gs
c0103371:	0f a1                	pop    %fs
c0103373:	07                   	pop    %es
c0103374:	1f                   	pop    %ds
c0103375:	61                   	popa   
c0103376:	5c                   	pop    %esp
c0103377:	cf                   	iret   

c0103378 <interrupt_10>:
c0103378:	54                   	push   %esp
c0103379:	60                   	pusha  
c010337a:	1e                   	push   %ds
c010337b:	06                   	push   %es
c010337c:	0f a0                	push   %fs
c010337e:	0f a8                	push   %gs
c0103380:	54                   	push   %esp
c0103381:	b8 10 00 00 00       	mov    $0x10,%eax
c0103386:	8e d8                	mov    %eax,%ds
c0103388:	8e c0                	mov    %eax,%es
c010338a:	b8 01 00 00 00       	mov    $0x1,%eax
c010338f:	50                   	push   %eax
c0103390:	b8 0a 00 00 00       	mov    $0xa,%eax
c0103395:	50                   	push   %eax
c0103396:	fc                   	cld    
c0103397:	e8 84 09 00 00       	call   c0103d20 <interrupt_default_handler>
c010339c:	58                   	pop    %eax
c010339d:	58                   	pop    %eax
c010339e:	83 c4 04             	add    $0x4,%esp
c01033a1:	0f a9                	pop    %gs
c01033a3:	0f a1                	pop    %fs
c01033a5:	07                   	pop    %es
c01033a6:	1f                   	pop    %ds
c01033a7:	61                   	popa   
c01033a8:	5c                   	pop    %esp
c01033a9:	cf                   	iret   

c01033aa <interrupt_11>:
c01033aa:	54                   	push   %esp
c01033ab:	60                   	pusha  
c01033ac:	1e                   	push   %ds
c01033ad:	06                   	push   %es
c01033ae:	0f a0                	push   %fs
c01033b0:	0f a8                	push   %gs
c01033b2:	54                   	push   %esp
c01033b3:	b8 10 00 00 00       	mov    $0x10,%eax
c01033b8:	8e d8                	mov    %eax,%ds
c01033ba:	8e c0                	mov    %eax,%es
c01033bc:	b8 01 00 00 00       	mov    $0x1,%eax
c01033c1:	50                   	push   %eax
c01033c2:	b8 0b 00 00 00       	mov    $0xb,%eax
c01033c7:	50                   	push   %eax
c01033c8:	fc                   	cld    
c01033c9:	e8 52 09 00 00       	call   c0103d20 <interrupt_default_handler>
c01033ce:	58                   	pop    %eax
c01033cf:	58                   	pop    %eax
c01033d0:	83 c4 04             	add    $0x4,%esp
c01033d3:	0f a9                	pop    %gs
c01033d5:	0f a1                	pop    %fs
c01033d7:	07                   	pop    %es
c01033d8:	1f                   	pop    %ds
c01033d9:	61                   	popa   
c01033da:	5c                   	pop    %esp
c01033db:	cf                   	iret   

c01033dc <interrupt_12>:
c01033dc:	54                   	push   %esp
c01033dd:	60                   	pusha  
c01033de:	1e                   	push   %ds
c01033df:	06                   	push   %es
c01033e0:	0f a0                	push   %fs
c01033e2:	0f a8                	push   %gs
c01033e4:	54                   	push   %esp
c01033e5:	b8 10 00 00 00       	mov    $0x10,%eax
c01033ea:	8e d8                	mov    %eax,%ds
c01033ec:	8e c0                	mov    %eax,%es
c01033ee:	b8 01 00 00 00       	mov    $0x1,%eax
c01033f3:	50                   	push   %eax
c01033f4:	b8 0c 00 00 00       	mov    $0xc,%eax
c01033f9:	50                   	push   %eax
c01033fa:	fc                   	cld    
c01033fb:	e8 20 09 00 00       	call   c0103d20 <interrupt_default_handler>
c0103400:	58                   	pop    %eax
c0103401:	58                   	pop    %eax
c0103402:	83 c4 04             	add    $0x4,%esp
c0103405:	0f a9                	pop    %gs
c0103407:	0f a1                	pop    %fs
c0103409:	07                   	pop    %es
c010340a:	1f                   	pop    %ds
c010340b:	61                   	popa   
c010340c:	5c                   	pop    %esp
c010340d:	cf                   	iret   

c010340e <interrupt_13>:
c010340e:	54                   	push   %esp
c010340f:	60                   	pusha  
c0103410:	1e                   	push   %ds
c0103411:	06                   	push   %es
c0103412:	0f a0                	push   %fs
c0103414:	0f a8                	push   %gs
c0103416:	54                   	push   %esp
c0103417:	b8 10 00 00 00       	mov    $0x10,%eax
c010341c:	8e d8                	mov    %eax,%ds
c010341e:	8e c0                	mov    %eax,%es
c0103420:	b8 01 00 00 00       	mov    $0x1,%eax
c0103425:	50                   	push   %eax
c0103426:	b8 0d 00 00 00       	mov    $0xd,%eax
c010342b:	50                   	push   %eax
c010342c:	fc                   	cld    
c010342d:	e8 ee 08 00 00       	call   c0103d20 <interrupt_default_handler>
c0103432:	58                   	pop    %eax
c0103433:	58                   	pop    %eax
c0103434:	83 c4 04             	add    $0x4,%esp
c0103437:	0f a9                	pop    %gs
c0103439:	0f a1                	pop    %fs
c010343b:	07                   	pop    %es
c010343c:	1f                   	pop    %ds
c010343d:	61                   	popa   
c010343e:	5c                   	pop    %esp
c010343f:	cf                   	iret   

c0103440 <interrupt_14>:
c0103440:	54                   	push   %esp
c0103441:	60                   	pusha  
c0103442:	1e                   	push   %ds
c0103443:	06                   	push   %es
c0103444:	0f a0                	push   %fs
c0103446:	0f a8                	push   %gs
c0103448:	54                   	push   %esp
c0103449:	b8 10 00 00 00       	mov    $0x10,%eax
c010344e:	8e d8                	mov    %eax,%ds
c0103450:	8e c0                	mov    %eax,%es
c0103452:	b8 01 00 00 00       	mov    $0x1,%eax
c0103457:	50                   	push   %eax
c0103458:	b8 0e 00 00 00       	mov    $0xe,%eax
c010345d:	50                   	push   %eax
c010345e:	fc                   	cld    
c010345f:	e8 bc 08 00 00       	call   c0103d20 <interrupt_default_handler>
c0103464:	58                   	pop    %eax
c0103465:	58                   	pop    %eax
c0103466:	83 c4 04             	add    $0x4,%esp
c0103469:	0f a9                	pop    %gs
c010346b:	0f a1                	pop    %fs
c010346d:	07                   	pop    %es
c010346e:	1f                   	pop    %ds
c010346f:	61                   	popa   
c0103470:	5c                   	pop    %esp
c0103471:	cf                   	iret   

c0103472 <interrupt_16>:
c0103472:	54                   	push   %esp
c0103473:	60                   	pusha  
c0103474:	1e                   	push   %ds
c0103475:	06                   	push   %es
c0103476:	0f a0                	push   %fs
c0103478:	0f a8                	push   %gs
c010347a:	54                   	push   %esp
c010347b:	b8 10 00 00 00       	mov    $0x10,%eax
c0103480:	8e d8                	mov    %eax,%ds
c0103482:	8e c0                	mov    %eax,%es
c0103484:	b8 01 00 00 00       	mov    $0x1,%eax
c0103489:	50                   	push   %eax
c010348a:	b8 10 00 00 00       	mov    $0x10,%eax
c010348f:	50                   	push   %eax
c0103490:	fc                   	cld    
c0103491:	e8 8a 08 00 00       	call   c0103d20 <interrupt_default_handler>
c0103496:	58                   	pop    %eax
c0103497:	58                   	pop    %eax
c0103498:	83 c4 04             	add    $0x4,%esp
c010349b:	0f a9                	pop    %gs
c010349d:	0f a1                	pop    %fs
c010349f:	07                   	pop    %es
c01034a0:	1f                   	pop    %ds
c01034a1:	61                   	popa   
c01034a2:	5c                   	pop    %esp
c01034a3:	cf                   	iret   

c01034a4 <interrupt_17>:
c01034a4:	54                   	push   %esp
c01034a5:	60                   	pusha  
c01034a6:	1e                   	push   %ds
c01034a7:	06                   	push   %es
c01034a8:	0f a0                	push   %fs
c01034aa:	0f a8                	push   %gs
c01034ac:	54                   	push   %esp
c01034ad:	b8 10 00 00 00       	mov    $0x10,%eax
c01034b2:	8e d8                	mov    %eax,%ds
c01034b4:	8e c0                	mov    %eax,%es
c01034b6:	b8 01 00 00 00       	mov    $0x1,%eax
c01034bb:	50                   	push   %eax
c01034bc:	b8 11 00 00 00       	mov    $0x11,%eax
c01034c1:	50                   	push   %eax
c01034c2:	fc                   	cld    
c01034c3:	e8 58 08 00 00       	call   c0103d20 <interrupt_default_handler>
c01034c8:	58                   	pop    %eax
c01034c9:	58                   	pop    %eax
c01034ca:	83 c4 04             	add    $0x4,%esp
c01034cd:	0f a9                	pop    %gs
c01034cf:	0f a1                	pop    %fs
c01034d1:	07                   	pop    %es
c01034d2:	1f                   	pop    %ds
c01034d3:	61                   	popa   
c01034d4:	5c                   	pop    %esp
c01034d5:	cf                   	iret   

c01034d6 <interrupt_18>:
c01034d6:	54                   	push   %esp
c01034d7:	60                   	pusha  
c01034d8:	1e                   	push   %ds
c01034d9:	06                   	push   %es
c01034da:	0f a0                	push   %fs
c01034dc:	0f a8                	push   %gs
c01034de:	54                   	push   %esp
c01034df:	b8 10 00 00 00       	mov    $0x10,%eax
c01034e4:	8e d8                	mov    %eax,%ds
c01034e6:	8e c0                	mov    %eax,%es
c01034e8:	b8 01 00 00 00       	mov    $0x1,%eax
c01034ed:	50                   	push   %eax
c01034ee:	b8 12 00 00 00       	mov    $0x12,%eax
c01034f3:	50                   	push   %eax
c01034f4:	fc                   	cld    
c01034f5:	e8 26 08 00 00       	call   c0103d20 <interrupt_default_handler>
c01034fa:	58                   	pop    %eax
c01034fb:	58                   	pop    %eax
c01034fc:	83 c4 04             	add    $0x4,%esp
c01034ff:	0f a9                	pop    %gs
c0103501:	0f a1                	pop    %fs
c0103503:	07                   	pop    %es
c0103504:	1f                   	pop    %ds
c0103505:	61                   	popa   
c0103506:	5c                   	pop    %esp
c0103507:	cf                   	iret   

c0103508 <interrupt_19>:
c0103508:	54                   	push   %esp
c0103509:	60                   	pusha  
c010350a:	1e                   	push   %ds
c010350b:	06                   	push   %es
c010350c:	0f a0                	push   %fs
c010350e:	0f a8                	push   %gs
c0103510:	54                   	push   %esp
c0103511:	b8 10 00 00 00       	mov    $0x10,%eax
c0103516:	8e d8                	mov    %eax,%ds
c0103518:	8e c0                	mov    %eax,%es
c010351a:	b8 01 00 00 00       	mov    $0x1,%eax
c010351f:	50                   	push   %eax
c0103520:	b8 13 00 00 00       	mov    $0x13,%eax
c0103525:	50                   	push   %eax
c0103526:	fc                   	cld    
c0103527:	e8 f4 07 00 00       	call   c0103d20 <interrupt_default_handler>
c010352c:	58                   	pop    %eax
c010352d:	58                   	pop    %eax
c010352e:	83 c4 04             	add    $0x4,%esp
c0103531:	0f a9                	pop    %gs
c0103533:	0f a1                	pop    %fs
c0103535:	07                   	pop    %es
c0103536:	1f                   	pop    %ds
c0103537:	61                   	popa   
c0103538:	5c                   	pop    %esp
c0103539:	cf                   	iret   
c010353a:	66 90                	xchg   %ax,%ax
c010353c:	66 90                	xchg   %ax,%ax
c010353e:	66 90                	xchg   %ax,%ax

c0103540 <interrupts_initalize>:
c0103540:	55                   	push   %ebp
c0103541:	89 e5                	mov    %esp,%ebp
c0103543:	57                   	push   %edi
c0103544:	56                   	push   %esi
c0103545:	53                   	push   %ebx
c0103546:	83 ec 28             	sub    $0x28,%esp
c0103549:	6a 01                	push   $0x1
c010354b:	e8 40 31 00 00       	call   c0106690 <set_debug_output>
c0103550:	83 c4 0c             	add    $0xc,%esp
c0103553:	6a 12                	push   $0x12
c0103555:	68 04 74 10 c0       	push   $0xc0107404
c010355a:	68 c3 74 10 c0       	push   $0xc01074c3
c010355f:	e8 3c e2 ff ff       	call   c01017a0 <printf_>
c0103564:	c7 04 24 e0 74 10 c0 	movl   $0xc01074e0,(%esp)
c010356b:	e8 30 e2 ff ff       	call   c01017a0 <printf_>
c0103570:	c7 04 24 00 00 00 00 	movl   $0x0,(%esp)
c0103577:	e8 14 31 00 00       	call   c0106690 <set_debug_output>
c010357c:	b9 21 00 00 00       	mov    $0x21,%ecx
c0103581:	89 ca                	mov    %ecx,%edx
c0103583:	ec                   	in     (%dx),%al
c0103584:	bb a1 00 00 00       	mov    $0xa1,%ebx
c0103589:	89 c7                	mov    %eax,%edi
c010358b:	89 da                	mov    %ebx,%edx
c010358d:	ec                   	in     (%dx),%al
c010358e:	be 20 00 00 00       	mov    $0x20,%esi
c0103593:	88 45 e7             	mov    %al,-0x19(%ebp)
c0103596:	ba 20 00 00 00       	mov    $0x20,%edx
c010359b:	89 f0                	mov    %esi,%eax
c010359d:	ee                   	out    %al,(%dx)
c010359e:	b8 11 00 00 00       	mov    $0x11,%eax
c01035a3:	ee                   	out    %al,(%dx)
c01035a4:	ba a0 00 00 00       	mov    $0xa0,%edx
c01035a9:	ee                   	out    %al,(%dx)
c01035aa:	89 ca                	mov    %ecx,%edx
c01035ac:	89 f0                	mov    %esi,%eax
c01035ae:	ee                   	out    %al,(%dx)
c01035af:	b8 28 00 00 00       	mov    $0x28,%eax
c01035b4:	89 da                	mov    %ebx,%edx
c01035b6:	ee                   	out    %al,(%dx)
c01035b7:	b8 04 00 00 00       	mov    $0x4,%eax
c01035bc:	89 ca                	mov    %ecx,%edx
c01035be:	ee                   	out    %al,(%dx)
c01035bf:	b8 02 00 00 00       	mov    $0x2,%eax
c01035c4:	89 da                	mov    %ebx,%edx
c01035c6:	ee                   	out    %al,(%dx)
c01035c7:	b8 01 00 00 00       	mov    $0x1,%eax
c01035cc:	89 ca                	mov    %ecx,%edx
c01035ce:	ee                   	out    %al,(%dx)
c01035cf:	89 da                	mov    %ebx,%edx
c01035d1:	ee                   	out    %al,(%dx)
c01035d2:	89 ca                	mov    %ecx,%edx
c01035d4:	89 f8                	mov    %edi,%eax
c01035d6:	ee                   	out    %al,(%dx)
c01035d7:	0f b6 45 e7          	movzbl -0x19(%ebp),%eax
c01035db:	89 da                	mov    %ebx,%edx
c01035dd:	ee                   	out    %al,(%dx)
c01035de:	b8 84 31 10 c0       	mov    $0xc0103184,%eax
c01035e3:	66 8c ca             	mov    %cs,%dx
c01035e6:	66 a3 c0 10 11 c0    	mov    %ax,0xc01110c0
c01035ec:	c1 e8 10             	shr    $0x10,%eax
c01035ef:	66 89 15 c2 10 11 c0 	mov    %dx,0xc01110c2
c01035f6:	ba 00 8e ff ff       	mov    $0xffff8e00,%edx
c01035fb:	66 a3 c6 10 11 c0    	mov    %ax,0xc01110c6
c0103601:	b8 b6 31 10 c0       	mov    $0xc01031b6,%eax
c0103606:	66 89 15 c4 10 11 c0 	mov    %dx,0xc01110c4
c010360d:	66 8c ca             	mov    %cs,%dx
c0103610:	be 00 8e ff ff       	mov    $0xffff8e00,%esi
c0103615:	66 a3 c8 10 11 c0    	mov    %ax,0xc01110c8
c010361b:	c1 e8 10             	shr    $0x10,%eax
c010361e:	66 a3 ce 10 11 c0    	mov    %ax,0xc01110ce
c0103624:	b8 e8 31 10 c0       	mov    $0xc01031e8,%eax
c0103629:	66 89 15 ca 10 11 c0 	mov    %dx,0xc01110ca
c0103630:	66 89 35 cc 10 11 c0 	mov    %si,0xc01110cc
c0103637:	66 8c ca             	mov    %cs,%dx
c010363a:	bf 00 8e ff ff       	mov    $0xffff8e00,%edi
c010363f:	66 a3 d0 10 11 c0    	mov    %ax,0xc01110d0
c0103645:	c1 e8 10             	shr    $0x10,%eax
c0103648:	66 a3 d6 10 11 c0    	mov    %ax,0xc01110d6
c010364e:	b8 1a 32 10 c0       	mov    $0xc010321a,%eax
c0103653:	66 89 15 d2 10 11 c0 	mov    %dx,0xc01110d2
c010365a:	66 89 3d d4 10 11 c0 	mov    %di,0xc01110d4
c0103661:	66 8c ca             	mov    %cs,%dx
c0103664:	66 a3 d8 10 11 c0    	mov    %ax,0xc01110d8
c010366a:	c1 e8 10             	shr    $0x10,%eax
c010366d:	66 89 15 da 10 11 c0 	mov    %dx,0xc01110da
c0103674:	ba 00 8e ff ff       	mov    $0xffff8e00,%edx
c0103679:	66 a3 de 10 11 c0    	mov    %ax,0xc01110de
c010367f:	b8 4c 32 10 c0       	mov    $0xc010324c,%eax
c0103684:	66 89 15 dc 10 11 c0 	mov    %dx,0xc01110dc
c010368b:	66 8c ca             	mov    %cs,%dx
c010368e:	be 00 8e ff ff       	mov    $0xffff8e00,%esi
c0103693:	66 a3 e0 10 11 c0    	mov    %ax,0xc01110e0
c0103699:	c1 e8 10             	shr    $0x10,%eax
c010369c:	66 a3 e6 10 11 c0    	mov    %ax,0xc01110e6
c01036a2:	b8 7e 32 10 c0       	mov    $0xc010327e,%eax
c01036a7:	66 89 15 e2 10 11 c0 	mov    %dx,0xc01110e2
c01036ae:	66 89 35 e4 10 11 c0 	mov    %si,0xc01110e4
c01036b5:	66 8c ca             	mov    %cs,%dx
c01036b8:	bf 00 8e ff ff       	mov    $0xffff8e00,%edi
c01036bd:	66 a3 e8 10 11 c0    	mov    %ax,0xc01110e8
c01036c3:	c1 e8 10             	shr    $0x10,%eax
c01036c6:	66 a3 ee 10 11 c0    	mov    %ax,0xc01110ee
c01036cc:	b8 b0 32 10 c0       	mov    $0xc01032b0,%eax
c01036d1:	66 89 15 ea 10 11 c0 	mov    %dx,0xc01110ea
c01036d8:	66 89 3d ec 10 11 c0 	mov    %di,0xc01110ec
c01036df:	66 8c ca             	mov    %cs,%dx
c01036e2:	66 a3 f0 10 11 c0    	mov    %ax,0xc01110f0
c01036e8:	c1 e8 10             	shr    $0x10,%eax
c01036eb:	66 89 15 f2 10 11 c0 	mov    %dx,0xc01110f2
c01036f2:	ba 00 8e ff ff       	mov    $0xffff8e00,%edx
c01036f7:	66 a3 f6 10 11 c0    	mov    %ax,0xc01110f6
c01036fd:	b8 e2 32 10 c0       	mov    $0xc01032e2,%eax
c0103702:	66 89 15 f4 10 11 c0 	mov    %dx,0xc01110f4
c0103709:	66 8c ca             	mov    %cs,%dx
c010370c:	be 00 8e ff ff       	mov    $0xffff8e00,%esi
c0103711:	66 a3 f8 10 11 c0    	mov    %ax,0xc01110f8
c0103717:	c1 e8 10             	shr    $0x10,%eax
c010371a:	66 a3 fe 10 11 c0    	mov    %ax,0xc01110fe
c0103720:	b8 14 33 10 c0       	mov    $0xc0103314,%eax
c0103725:	66 89 15 fa 10 11 c0 	mov    %dx,0xc01110fa
c010372c:	66 89 35 fc 10 11 c0 	mov    %si,0xc01110fc
c0103733:	66 8c ca             	mov    %cs,%dx
c0103736:	bf 00 8e ff ff       	mov    $0xffff8e00,%edi
c010373b:	66 a3 00 11 11 c0    	mov    %ax,0xc0111100
c0103741:	c1 e8 10             	shr    $0x10,%eax
c0103744:	66 a3 06 11 11 c0    	mov    %ax,0xc0111106
c010374a:	b8 46 33 10 c0       	mov    $0xc0103346,%eax
c010374f:	66 89 15 02 11 11 c0 	mov    %dx,0xc0111102
c0103756:	66 89 3d 04 11 11 c0 	mov    %di,0xc0111104
c010375d:	66 8c ca             	mov    %cs,%dx
c0103760:	66 a3 08 11 11 c0    	mov    %ax,0xc0111108
c0103766:	c1 e8 10             	shr    $0x10,%eax
c0103769:	66 89 15 0a 11 11 c0 	mov    %dx,0xc011110a
c0103770:	ba 00 8e ff ff       	mov    $0xffff8e00,%edx
c0103775:	66 a3 0e 11 11 c0    	mov    %ax,0xc011110e
c010377b:	b8 78 33 10 c0       	mov    $0xc0103378,%eax
c0103780:	66 89 15 0c 11 11 c0 	mov    %dx,0xc011110c
c0103787:	66 8c ca             	mov    %cs,%dx
c010378a:	be 00 8e ff ff       	mov    $0xffff8e00,%esi
c010378f:	66 a3 10 11 11 c0    	mov    %ax,0xc0111110
c0103795:	c1 e8 10             	shr    $0x10,%eax
c0103798:	66 a3 16 11 11 c0    	mov    %ax,0xc0111116
c010379e:	b8 aa 33 10 c0       	mov    $0xc01033aa,%eax
c01037a3:	66 89 15 12 11 11 c0 	mov    %dx,0xc0111112
c01037aa:	66 89 35 14 11 11 c0 	mov    %si,0xc0111114
c01037b1:	66 8c ca             	mov    %cs,%dx
c01037b4:	bf 00 8e ff ff       	mov    $0xffff8e00,%edi
c01037b9:	66 a3 18 11 11 c0    	mov    %ax,0xc0111118
c01037bf:	c1 e8 10             	shr    $0x10,%eax
c01037c2:	66 a3 1e 11 11 c0    	mov    %ax,0xc011111e
c01037c8:	b8 dc 33 10 c0       	mov    $0xc01033dc,%eax
c01037cd:	66 89 15 1a 11 11 c0 	mov    %dx,0xc011111a
c01037d4:	66 89 3d 1c 11 11 c0 	mov    %di,0xc011111c
c01037db:	66 8c ca             	mov    %cs,%dx
c01037de:	66 a3 20 11 11 c0    	mov    %ax,0xc0111120
c01037e4:	c1 e8 10             	shr    $0x10,%eax
c01037e7:	66 89 15 22 11 11 c0 	mov    %dx,0xc0111122
c01037ee:	ba 00 8e ff ff       	mov    $0xffff8e00,%edx
c01037f3:	66 a3 26 11 11 c0    	mov    %ax,0xc0111126
c01037f9:	b8 0e 34 10 c0       	mov    $0xc010340e,%eax
c01037fe:	66 89 15 24 11 11 c0 	mov    %dx,0xc0111124
c0103805:	66 8c ca             	mov    %cs,%dx
c0103808:	be 00 8e ff ff       	mov    $0xffff8e00,%esi
c010380d:	66 a3 28 11 11 c0    	mov    %ax,0xc0111128
c0103813:	c1 e8 10             	shr    $0x10,%eax
c0103816:	66 a3 2e 11 11 c0    	mov    %ax,0xc011112e
c010381c:	b8 40 34 10 c0       	mov    $0xc0103440,%eax
c0103821:	66 89 15 2a 11 11 c0 	mov    %dx,0xc011112a
c0103828:	66 89 35 2c 11 11 c0 	mov    %si,0xc011112c
c010382f:	66 8c ca             	mov    %cs,%dx
c0103832:	bf 00 8e ff ff       	mov    $0xffff8e00,%edi
c0103837:	66 a3 30 11 11 c0    	mov    %ax,0xc0111130
c010383d:	c1 e8 10             	shr    $0x10,%eax
c0103840:	66 a3 36 11 11 c0    	mov    %ax,0xc0111136
c0103846:	b8 72 34 10 c0       	mov    $0xc0103472,%eax
c010384b:	66 89 15 32 11 11 c0 	mov    %dx,0xc0111132
c0103852:	66 89 3d 34 11 11 c0 	mov    %di,0xc0111134
c0103859:	66 8c ca             	mov    %cs,%dx
c010385c:	66 a3 40 11 11 c0    	mov    %ax,0xc0111140
c0103862:	c1 e8 10             	shr    $0x10,%eax
c0103865:	66 89 15 42 11 11 c0 	mov    %dx,0xc0111142
c010386c:	ba 00 8e ff ff       	mov    $0xffff8e00,%edx
c0103871:	66 a3 46 11 11 c0    	mov    %ax,0xc0111146
c0103877:	b8 a4 34 10 c0       	mov    $0xc01034a4,%eax
c010387c:	66 89 15 44 11 11 c0 	mov    %dx,0xc0111144
c0103883:	66 8c ca             	mov    %cs,%dx
c0103886:	be 00 8e ff ff       	mov    $0xffff8e00,%esi
c010388b:	66 a3 48 11 11 c0    	mov    %ax,0xc0111148
c0103891:	c1 e8 10             	shr    $0x10,%eax
c0103894:	66 a3 4e 11 11 c0    	mov    %ax,0xc011114e
c010389a:	b8 d6 34 10 c0       	mov    $0xc01034d6,%eax
c010389f:	66 89 15 4a 11 11 c0 	mov    %dx,0xc011114a
c01038a6:	66 89 35 4c 11 11 c0 	mov    %si,0xc011114c
c01038ad:	66 8c ca             	mov    %cs,%dx
c01038b0:	bf 00 8e ff ff       	mov    $0xffff8e00,%edi
c01038b5:	66 a3 50 11 11 c0    	mov    %ax,0xc0111150
c01038bb:	c1 e8 10             	shr    $0x10,%eax
c01038be:	66 a3 56 11 11 c0    	mov    %ax,0xc0111156
c01038c4:	b8 08 35 10 c0       	mov    $0xc0103508,%eax
c01038c9:	66 89 15 52 11 11 c0 	mov    %dx,0xc0111152
c01038d0:	66 89 3d 54 11 11 c0 	mov    %di,0xc0111154
c01038d7:	66 8c ca             	mov    %cs,%dx
c01038da:	66 a3 58 11 11 c0    	mov    %ax,0xc0111158
c01038e0:	c1 e8 10             	shr    $0x10,%eax
c01038e3:	66 89 15 5a 11 11 c0 	mov    %dx,0xc011115a
c01038ea:	ba 00 8e ff ff       	mov    $0xffff8e00,%edx
c01038ef:	66 a3 5e 11 11 c0    	mov    %ax,0xc011115e
c01038f5:	b8 10 2d 10 c0       	mov    $0xc0102d10,%eax
c01038fa:	66 89 15 5c 11 11 c0 	mov    %dx,0xc011115c
c0103901:	66 8c ca             	mov    %cs,%dx
c0103904:	be 00 8e ff ff       	mov    $0xffff8e00,%esi
c0103909:	66 a3 c0 11 11 c0    	mov    %ax,0xc01111c0
c010390f:	c1 e8 10             	shr    $0x10,%eax
c0103912:	66 a3 c6 11 11 c0    	mov    %ax,0xc01111c6
c0103918:	b8 49 2d 10 c0       	mov    $0xc0102d49,%eax
c010391d:	66 89 15 c2 11 11 c0 	mov    %dx,0xc01111c2
c0103924:	66 89 35 c4 11 11 c0 	mov    %si,0xc01111c4
c010392b:	66 8c ca             	mov    %cs,%dx
c010392e:	bf 00 8e ff ff       	mov    $0xffff8e00,%edi
c0103933:	66 a3 c8 11 11 c0    	mov    %ax,0xc01111c8
c0103939:	c1 e8 10             	shr    $0x10,%eax
c010393c:	66 a3 ce 11 11 c0    	mov    %ax,0xc01111ce
c0103942:	b8 82 2d 10 c0       	mov    $0xc0102d82,%eax
c0103947:	66 89 15 ca 11 11 c0 	mov    %dx,0xc01111ca
c010394e:	66 89 3d cc 11 11 c0 	mov    %di,0xc01111cc
c0103955:	66 8c ca             	mov    %cs,%dx
c0103958:	66 a3 d0 11 11 c0    	mov    %ax,0xc01111d0
c010395e:	c1 e8 10             	shr    $0x10,%eax
c0103961:	66 89 15 d2 11 11 c0 	mov    %dx,0xc01111d2
c0103968:	ba 00 8e ff ff       	mov    $0xffff8e00,%edx
c010396d:	66 a3 d6 11 11 c0    	mov    %ax,0xc01111d6
c0103973:	b8 bb 2d 10 c0       	mov    $0xc0102dbb,%eax
c0103978:	66 89 15 d4 11 11 c0 	mov    %dx,0xc01111d4
c010397f:	66 8c ca             	mov    %cs,%dx
c0103982:	be 00 8e ff ff       	mov    $0xffff8e00,%esi
c0103987:	66 a3 d8 11 11 c0    	mov    %ax,0xc01111d8
c010398d:	c1 e8 10             	shr    $0x10,%eax
c0103990:	66 a3 de 11 11 c0    	mov    %ax,0xc01111de
c0103996:	b8 f4 2d 10 c0       	mov    $0xc0102df4,%eax
c010399b:	66 89 15 da 11 11 c0 	mov    %dx,0xc01111da
c01039a2:	66 89 35 dc 11 11 c0 	mov    %si,0xc01111dc
c01039a9:	66 8c ca             	mov    %cs,%dx
c01039ac:	bf 00 8e ff ff       	mov    $0xffff8e00,%edi
c01039b1:	66 a3 e0 11 11 c0    	mov    %ax,0xc01111e0
c01039b7:	c1 e8 10             	shr    $0x10,%eax
c01039ba:	66 a3 e6 11 11 c0    	mov    %ax,0xc01111e6
c01039c0:	b8 2d 2e 10 c0       	mov    $0xc0102e2d,%eax
c01039c5:	66 89 15 e2 11 11 c0 	mov    %dx,0xc01111e2
c01039cc:	66 89 3d e4 11 11 c0 	mov    %di,0xc01111e4
c01039d3:	66 8c ca             	mov    %cs,%dx
c01039d6:	66 a3 e8 11 11 c0    	mov    %ax,0xc01111e8
c01039dc:	c1 e8 10             	shr    $0x10,%eax
c01039df:	66 89 15 ea 11 11 c0 	mov    %dx,0xc01111ea
c01039e6:	ba 00 8e ff ff       	mov    $0xffff8e00,%edx
c01039eb:	66 a3 ee 11 11 c0    	mov    %ax,0xc01111ee
c01039f1:	b8 66 2e 10 c0       	mov    $0xc0102e66,%eax
c01039f6:	66 89 15 ec 11 11 c0 	mov    %dx,0xc01111ec
c01039fd:	66 8c ca             	mov    %cs,%dx
c0103a00:	be 00 8e ff ff       	mov    $0xffff8e00,%esi
c0103a05:	66 a3 f0 11 11 c0    	mov    %ax,0xc01111f0
c0103a0b:	c1 e8 10             	shr    $0x10,%eax
c0103a0e:	66 a3 f6 11 11 c0    	mov    %ax,0xc01111f6
c0103a14:	b8 9f 2e 10 c0       	mov    $0xc0102e9f,%eax
c0103a19:	66 89 15 f2 11 11 c0 	mov    %dx,0xc01111f2
c0103a20:	66 89 35 f4 11 11 c0 	mov    %si,0xc01111f4
c0103a27:	66 8c ca             	mov    %cs,%dx
c0103a2a:	bf 00 8e ff ff       	mov    $0xffff8e00,%edi
c0103a2f:	66 a3 f8 11 11 c0    	mov    %ax,0xc01111f8
c0103a35:	c1 e8 10             	shr    $0x10,%eax
c0103a38:	66 a3 fe 11 11 c0    	mov    %ax,0xc01111fe
c0103a3e:	b8 d8 2e 10 c0       	mov    $0xc0102ed8,%eax
c0103a43:	66 89 15 fa 11 11 c0 	mov    %dx,0xc01111fa
c0103a4a:	66 89 3d fc 11 11 c0 	mov    %di,0xc01111fc
c0103a51:	66 8c ca             	mov    %cs,%dx
c0103a54:	66 a3 00 12 11 c0    	mov    %ax,0xc0111200
c0103a5a:	c1 e8 10             	shr    $0x10,%eax
c0103a5d:	66 89 15 02 12 11 c0 	mov    %dx,0xc0111202
c0103a64:	ba 00 8e ff ff       	mov    $0xffff8e00,%edx
c0103a69:	66 a3 06 12 11 c0    	mov    %ax,0xc0111206
c0103a6f:	b8 11 2f 10 c0       	mov    $0xc0102f11,%eax
c0103a74:	66 89 15 04 12 11 c0 	mov    %dx,0xc0111204
c0103a7b:	66 8c ca             	mov    %cs,%dx
c0103a7e:	be 00 8e ff ff       	mov    $0xffff8e00,%esi
c0103a83:	66 a3 08 12 11 c0    	mov    %ax,0xc0111208
c0103a89:	c1 e8 10             	shr    $0x10,%eax
c0103a8c:	66 a3 0e 12 11 c0    	mov    %ax,0xc011120e
c0103a92:	b8 4a 2f 10 c0       	mov    $0xc0102f4a,%eax
c0103a97:	66 89 15 0a 12 11 c0 	mov    %dx,0xc011120a
c0103a9e:	66 89 35 0c 12 11 c0 	mov    %si,0xc011120c
c0103aa5:	66 8c ca             	mov    %cs,%dx
c0103aa8:	bf 00 8e ff ff       	mov    $0xffff8e00,%edi
c0103aad:	66 a3 10 12 11 c0    	mov    %ax,0xc0111210
c0103ab3:	c1 e8 10             	shr    $0x10,%eax
c0103ab6:	66 a3 16 12 11 c0    	mov    %ax,0xc0111216
c0103abc:	b8 83 2f 10 c0       	mov    $0xc0102f83,%eax
c0103ac1:	66 89 15 12 12 11 c0 	mov    %dx,0xc0111212
c0103ac8:	66 89 3d 14 12 11 c0 	mov    %di,0xc0111214
c0103acf:	66 8c ca             	mov    %cs,%dx
c0103ad2:	66 a3 18 12 11 c0    	mov    %ax,0xc0111218
c0103ad8:	c1 e8 10             	shr    $0x10,%eax
c0103adb:	66 89 15 1a 12 11 c0 	mov    %dx,0xc011121a
c0103ae2:	ba 00 8e ff ff       	mov    $0xffff8e00,%edx
c0103ae7:	66 a3 1e 12 11 c0    	mov    %ax,0xc011121e
c0103aed:	b8 bc 2f 10 c0       	mov    $0xc0102fbc,%eax
c0103af2:	66 89 15 1c 12 11 c0 	mov    %dx,0xc011121c
c0103af9:	66 8c ca             	mov    %cs,%dx
c0103afc:	be 00 8e ff ff       	mov    $0xffff8e00,%esi
c0103b01:	66 a3 20 12 11 c0    	mov    %ax,0xc0111220
c0103b07:	c1 e8 10             	shr    $0x10,%eax
c0103b0a:	66 a3 26 12 11 c0    	mov    %ax,0xc0111226
c0103b10:	b8 f5 2f 10 c0       	mov    $0xc0102ff5,%eax
c0103b15:	66 89 15 22 12 11 c0 	mov    %dx,0xc0111222
c0103b1c:	66 89 35 24 12 11 c0 	mov    %si,0xc0111224
c0103b23:	66 8c ca             	mov    %cs,%dx
c0103b26:	bf 00 8e ff ff       	mov    $0xffff8e00,%edi
c0103b2b:	66 a3 28 12 11 c0    	mov    %ax,0xc0111228
c0103b31:	c1 e8 10             	shr    $0x10,%eax
c0103b34:	66 a3 2e 12 11 c0    	mov    %ax,0xc011122e
c0103b3a:	b8 2e 30 10 c0       	mov    $0xc010302e,%eax
c0103b3f:	66 89 15 2a 12 11 c0 	mov    %dx,0xc011122a
c0103b46:	66 89 3d 2c 12 11 c0 	mov    %di,0xc011122c
c0103b4d:	66 8c ca             	mov    %cs,%dx
c0103b50:	66 a3 30 12 11 c0    	mov    %ax,0xc0111230
c0103b56:	c1 e8 10             	shr    $0x10,%eax
c0103b59:	66 89 15 32 12 11 c0 	mov    %dx,0xc0111232
c0103b60:	ba 00 8e ff ff       	mov    $0xffff8e00,%edx
c0103b65:	66 a3 36 12 11 c0    	mov    %ax,0xc0111236
c0103b6b:	b8 67 30 10 c0       	mov    $0xc0103067,%eax
c0103b70:	66 89 15 34 12 11 c0 	mov    %dx,0xc0111234
c0103b77:	66 8c ca             	mov    %cs,%dx
c0103b7a:	be 00 8e ff ff       	mov    $0xffff8e00,%esi
c0103b7f:	66 a3 38 12 11 c0    	mov    %ax,0xc0111238
c0103b85:	c1 e8 10             	shr    $0x10,%eax
c0103b88:	66 a3 3e 12 11 c0    	mov    %ax,0xc011123e
c0103b8e:	b8 a0 30 10 c0       	mov    $0xc01030a0,%eax
c0103b93:	66 89 15 3a 12 11 c0 	mov    %dx,0xc011123a
c0103b9a:	66 89 35 3c 12 11 c0 	mov    %si,0xc011123c
c0103ba1:	66 8c ca             	mov    %cs,%dx
c0103ba4:	bf 00 8e ff ff       	mov    $0xffff8e00,%edi
c0103ba9:	66 a3 40 12 11 c0    	mov    %ax,0xc0111240
c0103baf:	c1 e8 10             	shr    $0x10,%eax
c0103bb2:	66 a3 46 12 11 c0    	mov    %ax,0xc0111246
c0103bb8:	b8 d9 30 10 c0       	mov    $0xc01030d9,%eax
c0103bbd:	66 89 15 42 12 11 c0 	mov    %dx,0xc0111242
c0103bc4:	66 89 3d 44 12 11 c0 	mov    %di,0xc0111244
c0103bcb:	66 8c ca             	mov    %cs,%dx
c0103bce:	66 a3 48 12 11 c0    	mov    %ax,0xc0111248
c0103bd4:	c1 e8 10             	shr    $0x10,%eax
c0103bd7:	66 89 15 4a 12 11 c0 	mov    %dx,0xc011124a
c0103bde:	ba 00 8e ff ff       	mov    $0xffff8e00,%edx
c0103be3:	66 a3 4e 12 11 c0    	mov    %ax,0xc011124e
c0103be9:	b8 12 31 10 c0       	mov    $0xc0103112,%eax
c0103bee:	66 89 15 4c 12 11 c0 	mov    %dx,0xc011124c
c0103bf5:	66 8c ca             	mov    %cs,%dx
c0103bf8:	be 00 8e ff ff       	mov    $0xffff8e00,%esi
c0103bfd:	66 a3 50 12 11 c0    	mov    %ax,0xc0111250
c0103c03:	c1 e8 10             	shr    $0x10,%eax
c0103c06:	66 a3 56 12 11 c0    	mov    %ax,0xc0111256
c0103c0c:	b8 4b 31 10 c0       	mov    $0xc010314b,%eax
c0103c11:	66 89 15 52 12 11 c0 	mov    %dx,0xc0111252
c0103c18:	66 89 35 54 12 11 c0 	mov    %si,0xc0111254
c0103c1f:	66 8c ca             	mov    %cs,%dx
c0103c22:	bf 00 8e ff ff       	mov    $0xffff8e00,%edi
c0103c27:	66 a3 88 15 11 c0    	mov    %ax,0xc0111588
c0103c2d:	c1 e8 10             	shr    $0x10,%eax
c0103c30:	66 89 15 8a 15 11 c0 	mov    %dx,0xc011158a
c0103c37:	89 ca                	mov    %ecx,%edx
c0103c39:	66 a3 8e 15 11 c0    	mov    %ax,0xc011158e
c0103c3f:	b8 ff ff ff ff       	mov    $0xffffffff,%eax
c0103c44:	66 89 3d 8c 15 11 c0 	mov    %di,0xc011158c
c0103c4b:	ee                   	out    %al,(%dx)
c0103c4c:	89 da                	mov    %ebx,%edx
c0103c4e:	ee                   	out    %al,(%dx)
c0103c4f:	ba 43 00 00 00       	mov    $0x43,%edx
c0103c54:	b8 36 00 00 00       	mov    $0x36,%eax
c0103c59:	ee                   	out    %al,(%dx)
c0103c5a:	ba 40 00 00 00       	mov    $0x40,%edx
c0103c5f:	b8 9b ff ff ff       	mov    $0xffffff9b,%eax
c0103c64:	ee                   	out    %al,(%dx)
c0103c65:	b8 2e 00 00 00       	mov    $0x2e,%eax
c0103c6a:	ee                   	out    %al,(%dx)
c0103c6b:	0f b6 1d b7 10 11 c0 	movzbl 0xc01110b7,%ebx
c0103c72:	89 ca                	mov    %ecx,%edx
c0103c74:	89 d8                	mov    %ebx,%eax
c0103c76:	83 f0 01             	xor    $0x1,%eax
c0103c79:	ee                   	out    %al,(%dx)
c0103c7a:	89 d8                	mov    %ebx,%eax
c0103c7c:	ee                   	out    %al,(%dx)
c0103c7d:	c7 05 c2 18 11 c0 c0 	movl   $0xc01110c0,0xc01118c2
c0103c84:	10 11 c0 
c0103c87:	b8 00 07 00 00       	mov    $0x700,%eax
c0103c8c:	66 a3 c0 18 11 c0    	mov    %ax,0xc01118c0
c0103c92:	b8 c0 18 11 c0       	mov    $0xc01118c0,%eax
c0103c97:	0f 01 18             	lidtl  (%eax)
c0103c9a:	fb                   	sti    
c0103c9b:	c7 04 24 01 00 00 00 	movl   $0x1,(%esp)
c0103ca2:	e8 e9 29 00 00       	call   c0106690 <set_debug_output>
c0103ca7:	83 c4 0c             	add    $0xc,%esp
c0103caa:	6a 50                	push   $0x50
c0103cac:	68 04 74 10 c0       	push   $0xc0107404
c0103cb1:	68 c3 74 10 c0       	push   $0xc01074c3
c0103cb6:	e8 e5 da ff ff       	call   c01017a0 <printf_>
c0103cbb:	c7 04 24 30 75 10 c0 	movl   $0xc0107530,(%esp)
c0103cc2:	e8 d9 da ff ff       	call   c01017a0 <printf_>
c0103cc7:	c7 04 24 00 00 00 00 	movl   $0x0,(%esp)
c0103cce:	e8 bd 29 00 00       	call   c0106690 <set_debug_output>
c0103cd3:	cd 30                	int    $0x30
c0103cd5:	c7 04 24 01 00 00 00 	movl   $0x1,(%esp)
c0103cdc:	e8 af 29 00 00       	call   c0106690 <set_debug_output>
c0103ce1:	83 c4 0c             	add    $0xc,%esp
c0103ce4:	6a 53                	push   $0x53
c0103ce6:	68 04 74 10 c0       	push   $0xc0107404
c0103ceb:	68 c3 74 10 c0       	push   $0xc01074c3
c0103cf0:	e8 ab da ff ff       	call   c01017a0 <printf_>
c0103cf5:	c7 04 24 e7 74 10 c0 	movl   $0xc01074e7,(%esp)
c0103cfc:	e8 9f da ff ff       	call   c01017a0 <printf_>
c0103d01:	c7 04 24 00 00 00 00 	movl   $0x0,(%esp)
c0103d08:	e8 83 29 00 00       	call   c0106690 <set_debug_output>
c0103d0d:	83 c4 10             	add    $0x10,%esp
c0103d10:	8d 65 f4             	lea    -0xc(%ebp),%esp
c0103d13:	5b                   	pop    %ebx
c0103d14:	5e                   	pop    %esi
c0103d15:	5f                   	pop    %edi
c0103d16:	5d                   	pop    %ebp
c0103d17:	c3                   	ret    
c0103d18:	8d b4 26 00 00 00 00 	lea    0x0(%esi,%eiz,1),%esi
c0103d1f:	90                   	nop

c0103d20 <interrupt_default_handler>:
c0103d20:	55                   	push   %ebp
c0103d21:	89 e5                	mov    %esp,%ebp
c0103d23:	57                   	push   %edi
c0103d24:	56                   	push   %esi
c0103d25:	53                   	push   %ebx
c0103d26:	83 ec 0c             	sub    $0xc,%esp
c0103d29:	8b 5d 10             	mov    0x10(%ebp),%ebx
c0103d2c:	8b 45 0c             	mov    0xc(%ebp),%eax
c0103d2f:	8b 7d 08             	mov    0x8(%ebp),%edi
c0103d32:	8b 33                	mov    (%ebx),%esi
c0103d34:	83 f8 01             	cmp    $0x1,%eax
c0103d37:	74 57                	je     c0103d90 <interrupt_default_handler+0x70>
c0103d39:	83 f8 02             	cmp    $0x2,%eax
c0103d3c:	0f 85 d0 01 00 00    	jne    c0103f12 <interrupt_default_handler+0x1f2>
c0103d42:	83 ff 31             	cmp    $0x31,%edi
c0103d45:	0f 84 a5 02 00 00    	je     c0103ff0 <interrupt_default_handler+0x2d0>
c0103d4b:	0f 86 cf 01 00 00    	jbe    c0103f20 <interrupt_default_handler+0x200>
c0103d51:	83 ff 32             	cmp    $0x32,%edi
c0103d54:	0f 84 56 02 00 00    	je     c0103fb0 <interrupt_default_handler+0x290>
c0103d5a:	81 ff 99 00 00 00    	cmp    $0x99,%edi
c0103d60:	75 0e                	jne    c0103d70 <interrupt_default_handler+0x50>
c0103d62:	83 ec 0c             	sub    $0xc,%esp
c0103d65:	53                   	push   %ebx
c0103d66:	e8 75 23 00 00       	call   c01060e0 <syscall_handler>
c0103d6b:	83 c4 10             	add    $0x10,%esp
c0103d6e:	66 90                	xchg   %ax,%ax
c0103d70:	ba a0 00 00 00       	mov    $0xa0,%edx
c0103d75:	b8 20 00 00 00       	mov    $0x20,%eax
c0103d7a:	ee                   	out    %al,(%dx)
c0103d7b:	ba 20 00 00 00       	mov    $0x20,%edx
c0103d80:	b8 20 00 00 00       	mov    $0x20,%eax
c0103d85:	ee                   	out    %al,(%dx)
c0103d86:	8d 65 f4             	lea    -0xc(%ebp),%esp
c0103d89:	5b                   	pop    %ebx
c0103d8a:	5e                   	pop    %esi
c0103d8b:	5f                   	pop    %edi
c0103d8c:	5d                   	pop    %ebp
c0103d8d:	c3                   	ret    
c0103d8e:	66 90                	xchg   %ax,%ax
c0103d90:	85 ff                	test   %edi,%edi
c0103d92:	0f 84 c8 01 00 00    	je     c0103f60 <interrupt_default_handler+0x240>
c0103d98:	83 ec 0c             	sub    $0xc,%esp
c0103d9b:	6a 01                	push   $0x1
c0103d9d:	e8 ee 28 00 00       	call   c0106690 <set_debug_output>
c0103da2:	59                   	pop    %ecx
c0103da3:	5b                   	pop    %ebx
c0103da4:	57                   	push   %edi
c0103da5:	68 ac 78 10 c0       	push   $0xc01078ac
c0103daa:	e8 f1 d9 ff ff       	call   c01017a0 <printf_>
c0103daf:	c7 04 24 00 00 00 00 	movl   $0x0,(%esp)
c0103db6:	e8 d5 28 00 00       	call   c0106690 <set_debug_output>
c0103dbb:	c7 04 24 01 00 00 00 	movl   $0x1,(%esp)
c0103dc2:	e8 c9 28 00 00       	call   c0106690 <set_debug_output>
c0103dc7:	58                   	pop    %eax
c0103dc8:	ff 76 24             	push   0x24(%esi)
c0103dcb:	ff 76 28             	push   0x28(%esi)
c0103dce:	ff 76 20             	push   0x20(%esi)
c0103dd1:	ff 76 2c             	push   0x2c(%esi)
c0103dd4:	68 d0 78 10 c0       	push   $0xc01078d0
c0103dd9:	e8 c2 d9 ff ff       	call   c01017a0 <printf_>
c0103dde:	83 c4 14             	add    $0x14,%esp
c0103de1:	6a 00                	push   $0x0
c0103de3:	e8 a8 28 00 00       	call   c0106690 <set_debug_output>
c0103de8:	c7 04 24 01 00 00 00 	movl   $0x1,(%esp)
c0103def:	e8 9c 28 00 00       	call   c0106690 <set_debug_output>
c0103df4:	58                   	pop    %eax
c0103df5:	ff 76 10             	push   0x10(%esi)
c0103df8:	ff 76 14             	push   0x14(%esi)
c0103dfb:	ff 76 18             	push   0x18(%esi)
c0103dfe:	ff 76 1c             	push   0x1c(%esi)
c0103e01:	68 0c 79 10 c0       	push   $0xc010790c
c0103e06:	e8 95 d9 ff ff       	call   c01017a0 <printf_>
c0103e0b:	83 c4 14             	add    $0x14,%esp
c0103e0e:	6a 00                	push   $0x0
c0103e10:	e8 7b 28 00 00       	call   c0106690 <set_debug_output>
c0103e15:	c7 04 24 01 00 00 00 	movl   $0x1,(%esp)
c0103e1c:	e8 6f 28 00 00       	call   c0106690 <set_debug_output>
c0103e21:	0f b7 06             	movzwl (%esi),%eax
c0103e24:	89 04 24             	mov    %eax,(%esp)
c0103e27:	0f b7 46 04          	movzwl 0x4(%esi),%eax
c0103e2b:	50                   	push   %eax
c0103e2c:	0f b7 46 08          	movzwl 0x8(%esi),%eax
c0103e30:	50                   	push   %eax
c0103e31:	0f b7 46 0c          	movzwl 0xc(%esi),%eax
c0103e35:	50                   	push   %eax
c0103e36:	68 48 79 10 c0       	push   $0xc0107948
c0103e3b:	e8 60 d9 ff ff       	call   c01017a0 <printf_>
c0103e40:	83 c4 14             	add    $0x14,%esp
c0103e43:	6a 00                	push   $0x0
c0103e45:	e8 46 28 00 00       	call   c0106690 <set_debug_output>
c0103e4a:	c7 04 24 01 00 00 00 	movl   $0x1,(%esp)
c0103e51:	e8 3a 28 00 00       	call   c0106690 <set_debug_output>
c0103e56:	58                   	pop    %eax
c0103e57:	0f b7 46 3c          	movzwl 0x3c(%esi),%eax
c0103e5b:	ff 76 34             	push   0x34(%esi)
c0103e5e:	ff 76 40             	push   0x40(%esi)
c0103e61:	50                   	push   %eax
c0103e62:	ff 76 30             	push   0x30(%esi)
c0103e65:	68 84 79 10 c0       	push   $0xc0107984
c0103e6a:	e8 31 d9 ff ff       	call   c01017a0 <printf_>
c0103e6f:	83 c4 14             	add    $0x14,%esp
c0103e72:	6a 00                	push   $0x0
c0103e74:	e8 17 28 00 00       	call   c0106690 <set_debug_output>
c0103e79:	c7 04 24 01 00 00 00 	movl   $0x1,(%esp)
c0103e80:	e8 0b 28 00 00       	call   c0106690 <set_debug_output>
c0103e85:	58                   	pop    %eax
c0103e86:	5a                   	pop    %edx
c0103e87:	ff 76 38             	push   0x38(%esi)
c0103e8a:	68 38 75 10 c0       	push   $0xc0107538
c0103e8f:	e8 0c d9 ff ff       	call   c01017a0 <printf_>
c0103e94:	c7 04 24 00 00 00 00 	movl   $0x0,(%esp)
c0103e9b:	e8 f0 27 00 00       	call   c0106690 <set_debug_output>
c0103ea0:	c7 04 24 01 00 00 00 	movl   $0x1,(%esp)
c0103ea7:	e8 e4 27 00 00       	call   c0106690 <set_debug_output>
c0103eac:	c7 04 24 c0 79 10 c0 	movl   $0xc01079c0,(%esp)
c0103eb3:	e8 e8 d8 ff ff       	call   c01017a0 <printf_>
c0103eb8:	c7 04 24 00 00 00 00 	movl   $0x0,(%esp)
c0103ebf:	e8 cc 27 00 00       	call   c0106690 <set_debug_output>
c0103ec4:	ba f4 00 00 00       	mov    $0xf4,%edx
c0103ec9:	31 c0                	xor    %eax,%eax
c0103ecb:	ee                   	out    %al,(%dx)
c0103ecc:	8d 5e d8             	lea    -0x28(%esi),%ebx
c0103ecf:	83 c4 10             	add    $0x10,%esp
c0103ed2:	83 c6 14             	add    $0x14,%esi
c0103ed5:	8d b4 26 00 00 00 00 	lea    0x0(%esi,%eiz,1),%esi
c0103edc:	8d 74 26 00          	lea    0x0(%esi,%eiz,1),%esi
c0103ee0:	83 ec 0c             	sub    $0xc,%esp
c0103ee3:	6a 01                	push   $0x1
c0103ee5:	e8 a6 27 00 00       	call   c0106690 <set_debug_output>
c0103eea:	83 c4 0c             	add    $0xc,%esp
c0103eed:	ff 33                	push   (%ebx)
c0103eef:	53                   	push   %ebx
c0103ef0:	83 c3 04             	add    $0x4,%ebx
c0103ef3:	68 48 75 10 c0       	push   $0xc0107548
c0103ef8:	e8 a3 d8 ff ff       	call   c01017a0 <printf_>
c0103efd:	c7 04 24 00 00 00 00 	movl   $0x0,(%esp)
c0103f04:	e8 87 27 00 00       	call   c0106690 <set_debug_output>
c0103f09:	83 c4 10             	add    $0x10,%esp
c0103f0c:	39 f3                	cmp    %esi,%ebx
c0103f0e:	75 d0                	jne    c0103ee0 <interrupt_default_handler+0x1c0>
c0103f10:	fa                   	cli    
c0103f11:	f4                   	hlt    
c0103f12:	83 ff 28             	cmp    $0x28,%edi
c0103f15:	0f 87 55 fe ff ff    	ja     c0103d70 <interrupt_default_handler+0x50>
c0103f1b:	e9 5b fe ff ff       	jmp    c0103d7b <interrupt_default_handler+0x5b>
c0103f20:	83 ff 20             	cmp    $0x20,%edi
c0103f23:	74 5b                	je     c0103f80 <interrupt_default_handler+0x260>
c0103f25:	83 ff 30             	cmp    $0x30,%edi
c0103f28:	75 e8                	jne    c0103f12 <interrupt_default_handler+0x1f2>
c0103f2a:	83 ec 0c             	sub    $0xc,%esp
c0103f2d:	6a 01                	push   $0x1
c0103f2f:	e8 5c 27 00 00       	call   c0106690 <set_debug_output>
c0103f34:	c7 04 24 5b 75 10 c0 	movl   $0xc010755b,(%esp)
c0103f3b:	e8 60 d8 ff ff       	call   c01017a0 <printf_>
c0103f40:	c7 04 24 00 00 00 00 	movl   $0x0,(%esp)
c0103f47:	e8 44 27 00 00       	call   c0106690 <set_debug_output>
c0103f4c:	83 c4 10             	add    $0x10,%esp
c0103f4f:	e9 1c fe ff ff       	jmp    c0103d70 <interrupt_default_handler+0x50>
c0103f54:	8d b4 26 00 00 00 00 	lea    0x0(%esi,%eiz,1),%esi
c0103f5b:	8d 74 26 00          	lea    0x0(%esi,%eiz,1),%esi
c0103f5f:	90                   	nop
c0103f60:	83 ec 0c             	sub    $0xc,%esp
c0103f63:	68 84 78 10 c0       	push   $0xc0107884
c0103f68:	e8 33 d8 ff ff       	call   c01017a0 <printf_>
c0103f6d:	83 c4 10             	add    $0x10,%esp
c0103f70:	e9 06 fe ff ff       	jmp    c0103d7b <interrupt_default_handler+0x5b>
c0103f75:	8d b4 26 00 00 00 00 	lea    0x0(%esi,%eiz,1),%esi
c0103f7c:	8d 74 26 00          	lea    0x0(%esi,%eiz,1),%esi
c0103f80:	8b 15 b0 10 11 c0    	mov    0xc01110b0,%edx
c0103f86:	83 05 ac 10 11 c0 01 	addl   $0x1,0xc01110ac
c0103f8d:	8d 42 01             	lea    0x1(%edx),%eax
c0103f90:	83 fa 65             	cmp    $0x65,%edx
c0103f93:	ba 00 00 00 00       	mov    $0x0,%edx
c0103f98:	0f 43 c2             	cmovae %edx,%eax
c0103f9b:	a3 b0 10 11 c0       	mov    %eax,0xc01110b0
c0103fa0:	e9 d6 fd ff ff       	jmp    c0103d7b <interrupt_default_handler+0x5b>
c0103fa5:	8d b4 26 00 00 00 00 	lea    0x0(%esi,%eiz,1),%esi
c0103fac:	8d 74 26 00          	lea    0x0(%esi,%eiz,1),%esi
c0103fb0:	e8 4b 1c 00 00       	call   c0105c00 <get_current_process>
c0103fb5:	8b 56 38             	mov    0x38(%esi),%edx
c0103fb8:	89 50 0c             	mov    %edx,0xc(%eax)
c0103fbb:	8b 13                	mov    (%ebx),%edx
c0103fbd:	89 50 14             	mov    %edx,0x14(%eax)
c0103fc0:	e8 5b 1c 00 00       	call   c0105c20 <switch_next_process>
c0103fc5:	8b 50 14             	mov    0x14(%eax),%edx
c0103fc8:	8b 48 0c             	mov    0xc(%eax),%ecx
c0103fcb:	89 13                	mov    %edx,(%ebx)
c0103fcd:	89 4a 38             	mov    %ecx,0x38(%edx)
c0103fd0:	8b 50 04             	mov    0x4(%eax),%edx
c0103fd3:	85 d2                	test   %edx,%edx
c0103fd5:	0f 84 95 fd ff ff    	je     c0103d70 <interrupt_default_handler+0x50>
c0103fdb:	83 ec 0c             	sub    $0xc,%esp
c0103fde:	ff 70 2c             	push   0x2c(%eax)
c0103fe1:	e8 da 02 00 00       	call   c01042c0 <set_process_pde>
c0103fe6:	83 c4 10             	add    $0x10,%esp
c0103fe9:	e9 82 fd ff ff       	jmp    c0103d70 <interrupt_default_handler+0x50>
c0103fee:	66 90                	xchg   %ax,%ax
c0103ff0:	83 ec 0c             	sub    $0xc,%esp
c0103ff3:	6a 01                	push   $0x1
c0103ff5:	e8 96 26 00 00       	call   c0106690 <set_debug_output>
c0103ffa:	c7 04 24 5e 75 10 c0 	movl   $0xc010755e,(%esp)
c0104001:	e8 9a d7 ff ff       	call   c01017a0 <printf_>
c0104006:	c7 04 24 00 00 00 00 	movl   $0x0,(%esp)
c010400d:	e8 7e 26 00 00       	call   c0106690 <set_debug_output>
c0104012:	83 c4 10             	add    $0x10,%esp
c0104015:	e9 56 fd ff ff       	jmp    c0103d70 <interrupt_default_handler+0x50>
c010401a:	8d b6 00 00 00 00    	lea    0x0(%esi),%esi

c0104020 <replace_stack_on_int_exit>:
c0104020:	55                   	push   %ebp
c0104021:	89 e5                	mov    %esp,%ebp
c0104023:	83 ec 0c             	sub    $0xc,%esp
c0104026:	6a 4c                	push   $0x4c
c0104028:	ff 75 08             	push   0x8(%ebp)
c010402b:	68 60 10 11 c0       	push   $0xc0111060
c0104030:	e8 6b dc ff ff       	call   c0101ca0 <memcpy>
c0104035:	c6 05 40 10 11 c0 01 	movb   $0x1,0xc0111040
c010403c:	83 c4 10             	add    $0x10,%esp
c010403f:	c9                   	leave  
c0104040:	c3                   	ret    
c0104041:	8d b4 26 00 00 00 00 	lea    0x0(%esi,%eiz,1),%esi
c0104048:	8d b4 26 00 00 00 00 	lea    0x0(%esi,%eiz,1),%esi
c010404f:	90                   	nop

c0104050 <get_timer_counter>:
c0104050:	a1 ac 10 11 c0       	mov    0xc01110ac,%eax
c0104055:	c3                   	ret    
c0104056:	8d b4 26 00 00 00 00 	lea    0x0(%esi,%eiz,1),%esi
c010405d:	8d 76 00             	lea    0x0(%esi),%esi

c0104060 <load_idtr>:
c0104060:	c7 05 c2 18 11 c0 c0 	movl   $0xc01110c0,0xc01118c2
c0104067:	10 11 c0 
c010406a:	b8 00 07 00 00       	mov    $0x700,%eax
c010406f:	66 a3 c0 18 11 c0    	mov    %ax,0xc01118c0
c0104075:	b8 c0 18 11 c0       	mov    $0xc01118c0,%eax
c010407a:	0f 01 18             	lidtl  (%eax)
c010407d:	c3                   	ret    
c010407e:	66 90                	xchg   %ax,%ax

c0104080 <remap_pic>:
c0104080:	55                   	push   %ebp
c0104081:	89 e5                	mov    %esp,%ebp
c0104083:	57                   	push   %edi
c0104084:	56                   	push   %esi
c0104085:	53                   	push   %ebx
c0104086:	bb 21 00 00 00       	mov    $0x21,%ebx
c010408b:	89 da                	mov    %ebx,%edx
c010408d:	ec                   	in     (%dx),%al
c010408e:	b9 a1 00 00 00       	mov    $0xa1,%ecx
c0104093:	89 c7                	mov    %eax,%edi
c0104095:	89 ca                	mov    %ecx,%edx
c0104097:	ec                   	in     (%dx),%al
c0104098:	ba 20 00 00 00       	mov    $0x20,%edx
c010409d:	89 c6                	mov    %eax,%esi
c010409f:	b8 20 00 00 00       	mov    $0x20,%eax
c01040a4:	ee                   	out    %al,(%dx)
c01040a5:	b8 11 00 00 00       	mov    $0x11,%eax
c01040aa:	ee                   	out    %al,(%dx)
c01040ab:	ba a0 00 00 00       	mov    $0xa0,%edx
c01040b0:	ee                   	out    %al,(%dx)
c01040b1:	8b 45 08             	mov    0x8(%ebp),%eax
c01040b4:	89 da                	mov    %ebx,%edx
c01040b6:	ee                   	out    %al,(%dx)
c01040b7:	8b 45 0c             	mov    0xc(%ebp),%eax
c01040ba:	89 ca                	mov    %ecx,%edx
c01040bc:	ee                   	out    %al,(%dx)
c01040bd:	b8 04 00 00 00       	mov    $0x4,%eax
c01040c2:	89 da                	mov    %ebx,%edx
c01040c4:	ee                   	out    %al,(%dx)
c01040c5:	b8 02 00 00 00       	mov    $0x2,%eax
c01040ca:	89 ca                	mov    %ecx,%edx
c01040cc:	ee                   	out    %al,(%dx)
c01040cd:	b8 01 00 00 00       	mov    $0x1,%eax
c01040d2:	89 da                	mov    %ebx,%edx
c01040d4:	ee                   	out    %al,(%dx)
c01040d5:	89 ca                	mov    %ecx,%edx
c01040d7:	ee                   	out    %al,(%dx)
c01040d8:	89 da                	mov    %ebx,%edx
c01040da:	89 f8                	mov    %edi,%eax
c01040dc:	ee                   	out    %al,(%dx)
c01040dd:	89 ca                	mov    %ecx,%edx
c01040df:	89 f0                	mov    %esi,%eax
c01040e1:	ee                   	out    %al,(%dx)
c01040e2:	5b                   	pop    %ebx
c01040e3:	5e                   	pop    %esi
c01040e4:	5f                   	pop    %edi
c01040e5:	5d                   	pop    %ebp
c01040e6:	c3                   	ret    
c01040e7:	8d b4 26 00 00 00 00 	lea    0x0(%esi,%eiz,1),%esi
c01040ee:	66 90                	xchg   %ax,%ax

c01040f0 <add_interrupt>:
c01040f0:	55                   	push   %ebp
c01040f1:	89 e5                	mov    %esp,%ebp
c01040f3:	56                   	push   %esi
c01040f4:	8b 45 08             	mov    0x8(%ebp),%eax
c01040f7:	8b 55 0c             	mov    0xc(%ebp),%edx
c01040fa:	53                   	push   %ebx
c01040fb:	8b 5d 10             	mov    0x10(%ebp),%ebx
c01040fe:	66 8c ce             	mov    %cs,%si
c0104101:	b9 00 8e ff ff       	mov    $0xffff8e00,%ecx
c0104106:	85 db                	test   %ebx,%ebx
c0104108:	74 0d                	je     c0104117 <add_interrupt+0x27>
c010410a:	83 eb 01             	sub    $0x1,%ebx
c010410d:	83 fb 03             	cmp    $0x3,%ebx
c0104110:	19 c9                	sbb    %ecx,%ecx
c0104112:	66 81 e1 00 ee       	and    $0xee00,%cx
c0104117:	66 89 14 c5 c0 10 11 	mov    %dx,-0x3feeef40(,%eax,8)
c010411e:	c0 
c010411f:	c1 ea 10             	shr    $0x10,%edx
c0104122:	5b                   	pop    %ebx
c0104123:	66 89 34 c5 c2 10 11 	mov    %si,-0x3feeef3e(,%eax,8)
c010412a:	c0 
c010412b:	5e                   	pop    %esi
c010412c:	66 89 0c c5 c4 10 11 	mov    %cx,-0x3feeef3c(,%eax,8)
c0104133:	c0 
c0104134:	5d                   	pop    %ebp
c0104135:	66 89 14 c5 c6 10 11 	mov    %dx,-0x3feeef3a(,%eax,8)
c010413c:	c0 
c010413d:	c3                   	ret    
c010413e:	66 90                	xchg   %ax,%ax

c0104140 <interrupt_mask_irq>:
c0104140:	55                   	push   %ebp
c0104141:	89 e5                	mov    %esp,%ebp
c0104143:	8b 4d 08             	mov    0x8(%ebp),%ecx
c0104146:	80 f9 ff             	cmp    $0xff,%cl
c0104149:	74 25                	je     c0104170 <interrupt_mask_irq+0x30>
c010414b:	b8 01 00 00 00       	mov    $0x1,%eax
c0104150:	d3 e0                	shl    %cl,%eax
c0104152:	09 c8                	or     %ecx,%eax
c0104154:	3c 07                	cmp    $0x7,%al
c0104156:	77 08                	ja     c0104160 <interrupt_mask_irq+0x20>
c0104158:	ba 21 00 00 00       	mov    $0x21,%edx
c010415d:	ee                   	out    %al,(%dx)
c010415e:	5d                   	pop    %ebp
c010415f:	c3                   	ret    
c0104160:	ba a1 00 00 00       	mov    $0xa1,%edx
c0104165:	31 c0                	xor    %eax,%eax
c0104167:	ee                   	out    %al,(%dx)
c0104168:	5d                   	pop    %ebp
c0104169:	c3                   	ret    
c010416a:	8d b6 00 00 00 00    	lea    0x0(%esi),%esi
c0104170:	89 c8                	mov    %ecx,%eax
c0104172:	ba 21 00 00 00       	mov    $0x21,%edx
c0104177:	ee                   	out    %al,(%dx)
c0104178:	ba a1 00 00 00       	mov    $0xa1,%edx
c010417d:	ee                   	out    %al,(%dx)
c010417e:	c6 05 b7 10 11 c0 ff 	movb   $0xff,0xc01110b7
c0104185:	5d                   	pop    %ebp
c0104186:	c6 05 b6 10 11 c0 ff 	movb   $0xff,0xc01110b6
c010418d:	c3                   	ret    
c010418e:	66 90                	xchg   %ax,%ax

c0104190 <interrupt_unmask_irq>:
c0104190:	55                   	push   %ebp
c0104191:	89 e5                	mov    %esp,%ebp
c0104193:	8b 4d 08             	mov    0x8(%ebp),%ecx
c0104196:	80 f9 ff             	cmp    $0xff,%cl
c0104199:	74 45                	je     c01041e0 <interrupt_unmask_irq+0x50>
c010419b:	b8 01 00 00 00       	mov    $0x1,%eax
c01041a0:	89 c2                	mov    %eax,%edx
c01041a2:	d3 e2                	shl    %cl,%edx
c01041a4:	21 d1                	and    %edx,%ecx
c01041a6:	d3 e0                	shl    %cl,%eax
c01041a8:	80 f9 07             	cmp    $0x7,%cl
c01041ab:	77 13                	ja     c01041c0 <interrupt_unmask_irq+0x30>
c01041ad:	32 05 b7 10 11 c0    	xor    0xc01110b7,%al
c01041b3:	ba 21 00 00 00       	mov    $0x21,%edx
c01041b8:	a2 b7 10 11 c0       	mov    %al,0xc01110b7
c01041bd:	ee                   	out    %al,(%dx)
c01041be:	5d                   	pop    %ebp
c01041bf:	c3                   	ret    
c01041c0:	32 05 b6 10 11 c0    	xor    0xc01110b6,%al
c01041c6:	ba a1 00 00 00       	mov    $0xa1,%edx
c01041cb:	a2 b6 10 11 c0       	mov    %al,0xc01110b6
c01041d0:	ee                   	out    %al,(%dx)
c01041d1:	5d                   	pop    %ebp
c01041d2:	c3                   	ret    
c01041d3:	8d b4 26 00 00 00 00 	lea    0x0(%esi,%eiz,1),%esi
c01041da:	8d b6 00 00 00 00    	lea    0x0(%esi),%esi
c01041e0:	31 c0                	xor    %eax,%eax
c01041e2:	ba 21 00 00 00       	mov    $0x21,%edx
c01041e7:	ee                   	out    %al,(%dx)
c01041e8:	ba a1 00 00 00       	mov    $0xa1,%edx
c01041ed:	ee                   	out    %al,(%dx)
c01041ee:	c6 05 b7 10 11 c0 00 	movb   $0x0,0xc01110b7
c01041f5:	5d                   	pop    %ebp
c01041f6:	c6 05 b6 10 11 c0 00 	movb   $0x0,0xc01110b6
c01041fd:	c3                   	ret    
c01041fe:	66 90                	xchg   %ax,%ax

c0104200 <kernel_main>:
c0104200:	55                   	push   %ebp
c0104201:	89 e5                	mov    %esp,%ebp
c0104203:	83 ec 10             	sub    $0x10,%esp
c0104206:	ff 75 0c             	push   0xc(%ebp)
c0104209:	ff 75 08             	push   0x8(%ebp)
c010420c:	e8 3f 13 00 00       	call   c0105550 <multiboot_initalize>
c0104211:	e8 ca 1f 00 00       	call   c01061e0 <term_initalize>
c0104216:	e8 95 1c 00 00       	call   c0105eb0 <initalize_serial>
c010421b:	c7 04 24 61 75 10 c0 	movl   $0xc0107561,(%esp)
c0104222:	e8 79 d5 ff ff       	call   c01017a0 <printf_>
c0104227:	c7 04 24 01 00 00 00 	movl   $0x1,(%esp)
c010422e:	e8 5d 24 00 00       	call   c0106690 <set_debug_output>
c0104233:	c7 04 24 e0 79 10 c0 	movl   $0xc01079e0,(%esp)
c010423a:	e8 61 d5 ff ff       	call   c01017a0 <printf_>
c010423f:	c7 04 24 00 00 00 00 	movl   $0x0,(%esp)
c0104246:	e8 45 24 00 00       	call   c0106690 <set_debug_output>
c010424b:	e8 60 07 00 00       	call   c01049b0 <memory_initalize>
c0104250:	c7 04 24 00 42 10 c0 	movl   $0xc0104200,(%esp)
c0104257:	e8 24 e3 ff ff       	call   c0102580 <elf_initalize>
c010425c:	e8 df f2 ff ff       	call   c0103540 <interrupts_initalize>
c0104261:	e8 7a 13 00 00       	call   c01055e0 <pci_initalize>
c0104266:	e8 45 e9 ff ff       	call   c0102bb0 <intel8254_initalize>
c010426b:	e8 40 d7 ff ff       	call   c01019b0 <ata_initalize>
c0104270:	e8 5b 16 00 00       	call   c01058d0 <process_initalize>
c0104275:	e8 16 11 00 00       	call   c0105390 <modules_initalize>
c010427a:	e8 b1 db ff ff       	call   c0101e30 <stack_trace_test_func_a>
c010427f:	83 c4 10             	add    $0x10,%esp
c0104282:	8d b4 26 00 00 00 00 	lea    0x0(%esi,%eiz,1),%esi
c0104289:	8d b4 26 00 00 00 00 	lea    0x0(%esi,%eiz,1),%esi
c0104290:	e8 9b 1b 00 00       	call   c0105e30 <sched_yield>
c0104295:	eb f9                	jmp    c0104290 <kernel_main+0x90>
c0104297:	8d b4 26 00 00 00 00 	lea    0x0(%esi,%eiz,1),%esi
c010429e:	66 90                	xchg   %ax,%ax

c01042a0 <register_io_device>:
c01042a0:	c3                   	ret    
c01042a1:	8d b4 26 00 00 00 00 	lea    0x0(%esi,%eiz,1),%esi
c01042a8:	8d b4 26 00 00 00 00 	lea    0x0(%esi,%eiz,1),%esi
c01042af:	90                   	nop

c01042b0 <write>:
c01042b0:	c3                   	ret    
c01042b1:	66 90                	xchg   %ax,%ax
c01042b3:	66 90                	xchg   %ax,%ax
c01042b5:	66 90                	xchg   %ax,%ax
c01042b7:	66 90                	xchg   %ax,%ax
c01042b9:	66 90                	xchg   %ax,%ax
c01042bb:	66 90                	xchg   %ax,%ax
c01042bd:	66 90                	xchg   %ax,%ax
c01042bf:	90                   	nop

c01042c0 <set_process_pde>:
c01042c0:	55                   	push   %ebp
c01042c1:	b8 00 30 11 00       	mov    $0x113000,%eax
c01042c6:	25 00 f8 ff 7f       	and    $0x7ffff800,%eax
c01042cb:	83 c8 03             	or     $0x3,%eax
c01042ce:	89 e5                	mov    %esp,%ebp
c01042d0:	83 ec 0c             	sub    $0xc,%esp
c01042d3:	8b 15 00 c0 10 c0    	mov    0xc010c000,%edx
c01042d9:	68 00 10 00 00       	push   $0x1000
c01042de:	ff 75 08             	push   0x8(%ebp)
c01042e1:	81 e2 fc 07 00 80    	and    $0x800007fc,%edx
c01042e7:	68 00 30 11 c0       	push   $0xc0113000
c01042ec:	09 d0                	or     %edx,%eax
c01042ee:	a3 00 c0 10 c0       	mov    %eax,0xc010c000
c01042f3:	e8 a8 d9 ff ff       	call   c0101ca0 <memcpy>
c01042f8:	83 c4 10             	add    $0x10,%esp
c01042fb:	c9                   	leave  
c01042fc:	e9 94 d8 ff ff       	jmp    c0101b95 <asm_refresh_cr3>
c0104301:	8d b4 26 00 00 00 00 	lea    0x0(%esi,%eiz,1),%esi
c0104308:	8d b4 26 00 00 00 00 	lea    0x0(%esi,%eiz,1),%esi
c010430f:	90                   	nop

c0104310 <page_map>:
c0104310:	55                   	push   %ebp
c0104311:	b8 00 50 11 00       	mov    $0x115000,%eax
c0104316:	25 00 f8 ff 7f       	and    $0x7ffff800,%eax
c010431b:	83 c8 03             	or     $0x3,%eax
c010431e:	89 e5                	mov    %esp,%ebp
c0104320:	56                   	push   %esi
c0104321:	8b 55 08             	mov    0x8(%ebp),%edx
c0104324:	53                   	push   %ebx
c0104325:	89 d1                	mov    %edx,%ecx
c0104327:	c1 e9 16             	shr    $0x16,%ecx
c010432a:	8b 1c 8d 00 c0 10 c0 	mov    -0x3fef4000(,%ecx,4),%ebx
c0104331:	81 e3 fc 07 00 80    	and    $0x800007fc,%ebx
c0104337:	09 d8                	or     %ebx,%eax
c0104339:	89 04 8d 00 c0 10 c0 	mov    %eax,-0x3fef4000(,%ecx,4)
c0104340:	89 d1                	mov    %edx,%ecx
c0104342:	8b 45 0c             	mov    0xc(%ebp),%eax
c0104345:	c1 e9 0c             	shr    $0xc,%ecx
c0104348:	81 e1 ff 3f 00 00    	and    $0x3fff,%ecx
c010434e:	25 00 f8 ff 7f       	and    $0x7ffff800,%eax
c0104353:	8b 34 8d 00 50 11 c0 	mov    -0x3feeb000(,%ecx,4),%esi
c010435a:	83 c8 03             	or     $0x3,%eax
c010435d:	8d 1c 8d 00 50 11 c0 	lea    -0x3feeb000(,%ecx,4),%ebx
c0104364:	81 e6 fc 07 00 80    	and    $0x800007fc,%esi
c010436a:	09 f0                	or     %esi,%eax
c010436c:	89 04 8d 00 50 11 c0 	mov    %eax,-0x3feeb000(,%ecx,4)
c0104373:	0f 01 3b             	invlpg (%ebx)
c0104376:	5b                   	pop    %ebx
c0104377:	89 d0                	mov    %edx,%eax
c0104379:	5e                   	pop    %esi
c010437a:	5d                   	pop    %ebp
c010437b:	c3                   	ret    
c010437c:	8d 74 26 00          	lea    0x0(%esi,%eiz,1),%esi

c0104380 <page_allocate>:
c0104380:	55                   	push   %ebp
c0104381:	89 e5                	mov    %esp,%ebp
c0104383:	57                   	push   %edi
c0104384:	56                   	push   %esi
c0104385:	53                   	push   %ebx
c0104386:	83 ec 04             	sub    $0x4,%esp
c0104389:	a1 7c 80 10 c0       	mov    0xc010807c,%eax
c010438e:	8b 55 08             	mov    0x8(%ebp),%edx
c0104391:	89 45 f0             	mov    %eax,-0x10(%ebp)
c0104394:	85 d2                	test   %edx,%edx
c0104396:	0f 84 99 00 00 00    	je     c0104435 <page_allocate+0xb5>
c010439c:	bb 00 50 11 00       	mov    $0x115000,%ebx
c01043a1:	8b 15 80 80 10 c0    	mov    0xc0108080,%edx
c01043a7:	31 c9                	xor    %ecx,%ecx
c01043a9:	81 e3 00 f8 ff 7f    	and    $0x7ffff800,%ebx
c01043af:	83 cb 03             	or     $0x3,%ebx
c01043b2:	8d b4 26 00 00 00 00 	lea    0x0(%esi,%eiz,1),%esi
c01043b9:	8d b4 26 00 00 00 00 	lea    0x0(%esi,%eiz,1),%esi
c01043c0:	89 c7                	mov    %eax,%edi
c01043c2:	c1 e8 0c             	shr    $0xc,%eax
c01043c5:	81 e2 00 f8 ff 7f    	and    $0x7ffff800,%edx
c01043cb:	c1 ef 16             	shr    $0x16,%edi
c01043ce:	25 ff 3f 00 00       	and    $0x3fff,%eax
c01043d3:	83 ca 03             	or     $0x3,%edx
c01043d6:	8b 34 bd 00 c0 10 c0 	mov    -0x3fef4000(,%edi,4),%esi
c01043dd:	81 e6 fc 07 00 80    	and    $0x800007fc,%esi
c01043e3:	09 de                	or     %ebx,%esi
c01043e5:	89 34 bd 00 c0 10 c0 	mov    %esi,-0x3fef4000(,%edi,4)
c01043ec:	8b 3c 85 00 50 11 c0 	mov    -0x3feeb000(,%eax,4),%edi
c01043f3:	8d 34 85 00 50 11 c0 	lea    -0x3feeb000(,%eax,4),%esi
c01043fa:	81 e7 fc 07 00 80    	and    $0x800007fc,%edi
c0104400:	09 fa                	or     %edi,%edx
c0104402:	89 14 85 00 50 11 c0 	mov    %edx,-0x3feeb000(,%eax,4)
c0104409:	0f 01 3e             	invlpg (%esi)
c010440c:	a1 7c 80 10 c0       	mov    0xc010807c,%eax
c0104411:	8b 35 80 80 10 c0    	mov    0xc0108080,%esi
c0104417:	83 c1 01             	add    $0x1,%ecx
c010441a:	05 00 10 00 00       	add    $0x1000,%eax
c010441f:	8d 96 00 10 00 00    	lea    0x1000(%esi),%edx
c0104425:	a3 7c 80 10 c0       	mov    %eax,0xc010807c
c010442a:	89 15 80 80 10 c0    	mov    %edx,0xc0108080
c0104430:	39 4d 08             	cmp    %ecx,0x8(%ebp)
c0104433:	75 8b                	jne    c01043c0 <page_allocate+0x40>
c0104435:	8b 45 f0             	mov    -0x10(%ebp),%eax
c0104438:	83 c4 04             	add    $0x4,%esp
c010443b:	5b                   	pop    %ebx
c010443c:	5e                   	pop    %esi
c010443d:	5f                   	pop    %edi
c010443e:	5d                   	pop    %ebp
c010443f:	c3                   	ret    

c0104440 <allocate_new_page>:
c0104440:	83 c0 30             	add    $0x30,%eax
c0104443:	55                   	push   %ebp
c0104444:	89 c2                	mov    %eax,%edx
c0104446:	25 ff 0f 00 00       	and    $0xfff,%eax
c010444b:	c1 ea 0c             	shr    $0xc,%edx
c010444e:	83 f8 01             	cmp    $0x1,%eax
c0104451:	b8 10 00 00 00       	mov    $0x10,%eax
c0104456:	83 da ff             	sbb    $0xffffffff,%edx
c0104459:	89 e5                	mov    %esp,%ebp
c010445b:	56                   	push   %esi
c010445c:	39 c2                	cmp    %eax,%edx
c010445e:	53                   	push   %ebx
c010445f:	0f 43 c2             	cmovae %edx,%eax
c0104462:	50                   	push   %eax
c0104463:	89 c3                	mov    %eax,%ebx
c0104465:	e8 16 ff ff ff       	call   c0104380 <page_allocate>
c010446a:	59                   	pop    %ecx
c010446b:	89 c6                	mov    %eax,%esi
c010446d:	85 c0                	test   %eax,%eax
c010446f:	74 3f                	je     c01044b0 <allocate_new_page+0x70>
c0104471:	c7 00 00 00 00 00    	movl   $0x0,(%eax)
c0104477:	31 d2                	xor    %edx,%edx
c0104479:	c7 40 04 00 00 00 00 	movl   $0x0,0x4(%eax)
c0104480:	89 58 08             	mov    %ebx,0x8(%eax)
c0104483:	89 d8                	mov    %ebx,%eax
c0104485:	c1 e0 0c             	shl    $0xc,%eax
c0104488:	01 05 20 60 11 c0    	add    %eax,0xc0116020
c010448e:	11 15 24 60 11 c0    	adc    %edx,0xc0116024
c0104494:	89 46 0c             	mov    %eax,0xc(%esi)
c0104497:	c7 46 10 18 00 00 00 	movl   $0x18,0x10(%esi)
c010449e:	c7 46 14 00 00 00 00 	movl   $0x0,0x14(%esi)
c01044a5:	8d 65 f8             	lea    -0x8(%ebp),%esp
c01044a8:	89 f0                	mov    %esi,%eax
c01044aa:	5b                   	pop    %ebx
c01044ab:	5e                   	pop    %esi
c01044ac:	5d                   	pop    %ebp
c01044ad:	c3                   	ret    
c01044ae:	66 90                	xchg   %ax,%ax
c01044b0:	83 05 10 60 11 c0 01 	addl   $0x1,0xc0116010
c01044b7:	83 15 14 60 11 c0 00 	adcl   $0x0,0xc0116014
c01044be:	83 ec 0c             	sub    $0xc,%esp
c01044c1:	6a 01                	push   $0x1
c01044c3:	e8 c8 21 00 00       	call   c0106690 <set_debug_output>
c01044c8:	58                   	pop    %eax
c01044c9:	5a                   	pop    %edx
c01044ca:	53                   	push   %ebx
c01044cb:	68 08 7a 10 c0       	push   $0xc0107a08
c01044d0:	e8 cb d2 ff ff       	call   c01017a0 <printf_>
c01044d5:	c7 04 24 00 00 00 00 	movl   $0x0,(%esp)
c01044dc:	e8 af 21 00 00       	call   c0106690 <set_debug_output>
c01044e1:	83 c4 10             	add    $0x10,%esp
c01044e4:	eb bf                	jmp    c01044a5 <allocate_new_page+0x65>
c01044e6:	8d b4 26 00 00 00 00 	lea    0x0(%esi,%eiz,1),%esi
c01044ed:	8d 76 00             	lea    0x0(%esi),%esi

c01044f0 <liballoc_dump>:
c01044f0:	55                   	push   %ebp
c01044f1:	89 e5                	mov    %esp,%ebp
c01044f3:	56                   	push   %esi
c01044f4:	8b 35 2c 60 11 c0    	mov    0xc011602c,%esi
c01044fa:	53                   	push   %ebx
c01044fb:	83 ec 0c             	sub    $0xc,%esp
c01044fe:	68 40 7a 10 c0       	push   $0xc0107a40
c0104503:	e8 98 d2 ff ff       	call   c01017a0 <printf_>
c0104508:	83 c4 0c             	add    $0xc,%esp
c010450b:	ff 35 24 60 11 c0    	push   0xc0116024
c0104511:	ff 35 20 60 11 c0    	push   0xc0116020
c0104517:	68 70 7a 10 c0       	push   $0xc0107a70
c010451c:	e8 7f d2 ff ff       	call   c01017a0 <printf_>
c0104521:	83 c4 0c             	add    $0xc,%esp
c0104524:	ff 35 1c 60 11 c0    	push   0xc011601c
c010452a:	ff 35 18 60 11 c0    	push   0xc0116018
c0104530:	68 a0 7a 10 c0       	push   $0xc0107aa0
c0104535:	e8 66 d2 ff ff       	call   c01017a0 <printf_>
c010453a:	83 c4 0c             	add    $0xc,%esp
c010453d:	ff 35 14 60 11 c0    	push   0xc0116014
c0104543:	ff 35 10 60 11 c0    	push   0xc0116010
c0104549:	68 7d 75 10 c0       	push   $0xc010757d
c010454e:	e8 4d d2 ff ff       	call   c01017a0 <printf_>
c0104553:	83 c4 0c             	add    $0xc,%esp
c0104556:	ff 35 0c 60 11 c0    	push   0xc011600c
c010455c:	ff 35 08 60 11 c0    	push   0xc0116008
c0104562:	68 9a 75 10 c0       	push   $0xc010759a
c0104567:	e8 34 d2 ff ff       	call   c01017a0 <printf_>
c010456c:	83 c4 0c             	add    $0xc,%esp
c010456f:	ff 35 04 60 11 c0    	push   0xc0116004
c0104575:	ff 35 00 60 11 c0    	push   0xc0116000
c010457b:	68 d0 7a 10 c0       	push   $0xc0107ad0
c0104580:	e8 1b d2 ff ff       	call   c01017a0 <printf_>
c0104585:	83 c4 10             	add    $0x10,%esp
c0104588:	85 f6                	test   %esi,%esi
c010458a:	74 46                	je     c01045d2 <liballoc_dump+0xe2>
c010458c:	8d 74 26 00          	lea    0x0(%esi,%eiz,1),%esi
c0104590:	ff 76 10             	push   0x10(%esi)
c0104593:	ff 76 0c             	push   0xc(%esi)
c0104596:	56                   	push   %esi
c0104597:	68 f4 7a 10 c0       	push   $0xc0107af4
c010459c:	e8 ff d1 ff ff       	call   c01017a0 <printf_>
c01045a1:	8b 5e 14             	mov    0x14(%esi),%ebx
c01045a4:	83 c4 10             	add    $0x10,%esp
c01045a7:	85 db                	test   %ebx,%ebx
c01045a9:	74 20                	je     c01045cb <liballoc_dump+0xdb>
c01045ab:	8d 74 26 00          	lea    0x0(%esi,%eiz,1),%esi
c01045af:	90                   	nop
c01045b0:	83 ec 04             	sub    $0x4,%esp
c01045b3:	ff 73 10             	push   0x10(%ebx)
c01045b6:	53                   	push   %ebx
c01045b7:	68 b5 75 10 c0       	push   $0xc01075b5
c01045bc:	e8 df d1 ff ff       	call   c01017a0 <printf_>
c01045c1:	8b 5b 04             	mov    0x4(%ebx),%ebx
c01045c4:	83 c4 10             	add    $0x10,%esp
c01045c7:	85 db                	test   %ebx,%ebx
c01045c9:	75 e5                	jne    c01045b0 <liballoc_dump+0xc0>
c01045cb:	8b 76 04             	mov    0x4(%esi),%esi
c01045ce:	85 f6                	test   %esi,%esi
c01045d0:	75 be                	jne    c0104590 <liballoc_dump+0xa0>
c01045d2:	8d 65 f8             	lea    -0x8(%ebp),%esp
c01045d5:	5b                   	pop    %ebx
c01045d6:	5e                   	pop    %esi
c01045d7:	5d                   	pop    %ebp
c01045d8:	c3                   	ret    
c01045d9:	8d b4 26 00 00 00 00 	lea    0x0(%esi,%eiz,1),%esi

c01045e0 <kmalloc>:
c01045e0:	55                   	push   %ebp
c01045e1:	89 e5                	mov    %esp,%ebp
c01045e3:	57                   	push   %edi
c01045e4:	56                   	push   %esi
c01045e5:	53                   	push   %ebx
c01045e6:	31 db                	xor    %ebx,%ebx
c01045e8:	83 ec 1c             	sub    $0x1c,%esp
c01045eb:	0f b6 0d 00 20 11 c0 	movzbl 0xc0112000,%ecx
c01045f2:	a1 10 60 11 c0       	mov    0xc0116010,%eax
c01045f7:	8b 15 14 60 11 c0    	mov    0xc0116014,%edx
c01045fd:	8b 7d 08             	mov    0x8(%ebp),%edi
c0104600:	eb 28                	jmp    c010462a <kmalloc+0x4a>
c0104602:	8d b4 26 00 00 00 00 	lea    0x0(%esi,%eiz,1),%esi
c0104609:	8d b4 26 00 00 00 00 	lea    0x0(%esi,%eiz,1),%esi
c0104610:	85 f6                	test   %esi,%esi
c0104612:	0f 85 78 01 00 00    	jne    c0104790 <kmalloc+0x1b0>
c0104618:	83 c0 01             	add    $0x1,%eax
c010461b:	bb 01 00 00 00       	mov    $0x1,%ebx
c0104620:	bf 01 00 00 00       	mov    $0x1,%edi
c0104625:	83 d2 00             	adc    $0x0,%edx
c0104628:	31 c9                	xor    %ecx,%ecx
c010462a:	8d 77 20             	lea    0x20(%edi),%esi
c010462d:	84 c9                	test   %cl,%cl
c010462f:	74 df                	je     c0104610 <kmalloc+0x30>
c0104631:	85 f6                	test   %esi,%esi
c0104633:	74 e3                	je     c0104618 <kmalloc+0x38>
c0104635:	89 75 d8             	mov    %esi,-0x28(%ebp)
c0104638:	89 7d 08             	mov    %edi,0x8(%ebp)
c010463b:	84 db                	test   %bl,%bl
c010463d:	74 16                	je     c0104655 <kmalloc+0x75>
c010463f:	a3 10 60 11 c0       	mov    %eax,0xc0116010
c0104644:	89 15 14 60 11 c0    	mov    %edx,0xc0116014
c010464a:	84 db                	test   %bl,%bl
c010464c:	74 07                	je     c0104655 <kmalloc+0x75>
c010464e:	c6 05 00 20 11 c0 01 	movb   $0x1,0xc0112000
c0104655:	8b 15 2c 60 11 c0    	mov    0xc011602c,%edx
c010465b:	85 d2                	test   %edx,%edx
c010465d:	0f 84 7f 02 00 00    	je     c01048e2 <kmalloc+0x302>
c0104663:	8b 45 08             	mov    0x8(%ebp),%eax
c0104666:	8b 1d 28 60 11 c0    	mov    0xc0116028,%ebx
c010466c:	8d 70 38             	lea    0x38(%eax),%esi
c010466f:	85 db                	test   %ebx,%ebx
c0104671:	0f 84 09 02 00 00    	je     c0104880 <kmalloc+0x2a0>
c0104677:	8b 4b 0c             	mov    0xc(%ebx),%ecx
c010467a:	8b 43 10             	mov    0x10(%ebx),%eax
c010467d:	c7 45 e4 00 00 00 00 	movl   $0x0,-0x1c(%ebp)
c0104684:	c7 45 dc 01 00 00 00 	movl   $0x1,-0x24(%ebp)
c010468b:	89 cf                	mov    %ecx,%edi
c010468d:	29 c7                	sub    %eax,%edi
c010468f:	89 7d e0             	mov    %edi,-0x20(%ebp)
c0104692:	39 f7                	cmp    %esi,%edi
c0104694:	0f 86 c6 01 00 00    	jbe    c0104860 <kmalloc+0x280>
c010469a:	8b 7d e4             	mov    -0x1c(%ebp),%edi
c010469d:	31 d2                	xor    %edx,%edx
c010469f:	29 c1                	sub    %eax,%ecx
c01046a1:	39 4d e0             	cmp    %ecx,-0x20(%ebp)
c01046a4:	19 d7                	sbb    %edx,%edi
c01046a6:	73 0c                	jae    c01046b4 <kmalloc+0xd4>
c01046a8:	89 1d 28 60 11 c0    	mov    %ebx,0xc0116028
c01046ae:	89 4d e0             	mov    %ecx,-0x20(%ebp)
c01046b1:	89 55 e4             	mov    %edx,-0x1c(%ebp)
c01046b4:	39 f1                	cmp    %esi,%ecx
c01046b6:	73 25                	jae    c01046dd <kmalloc+0xfd>
c01046b8:	8b 53 04             	mov    0x4(%ebx),%edx
c01046bb:	85 d2                	test   %edx,%edx
c01046bd:	0f 84 3d 01 00 00    	je     c0104800 <kmalloc+0x220>
c01046c3:	8b 4a 0c             	mov    0xc(%edx),%ecx
c01046c6:	8b 42 10             	mov    0x10(%edx),%eax
c01046c9:	89 d3                	mov    %edx,%ebx
c01046cb:	31 d2                	xor    %edx,%edx
c01046cd:	8b 7d e4             	mov    -0x1c(%ebp),%edi
c01046d0:	29 c1                	sub    %eax,%ecx
c01046d2:	39 4d e0             	cmp    %ecx,-0x20(%ebp)
c01046d5:	19 d7                	sbb    %edx,%edi
c01046d7:	72 cf                	jb     c01046a8 <kmalloc+0xc8>
c01046d9:	39 f1                	cmp    %esi,%ecx
c01046db:	72 db                	jb     c01046b8 <kmalloc+0xd8>
c01046dd:	8b 43 14             	mov    0x14(%ebx),%eax
c01046e0:	85 c0                	test   %eax,%eax
c01046e2:	0f 84 31 02 00 00    	je     c0104919 <kmalloc+0x339>
c01046e8:	89 c2                	mov    %eax,%edx
c01046ea:	29 da                	sub    %ebx,%edx
c01046ec:	83 ea 18             	sub    $0x18,%edx
c01046ef:	39 f2                	cmp    %esi,%edx
c01046f1:	0f 83 7e 02 00 00    	jae    c0104975 <kmalloc+0x395>
c01046f7:	8d b4 26 00 00 00 00 	lea    0x0(%esi,%eiz,1),%esi
c01046fe:	66 90                	xchg   %ax,%ax
c0104700:	89 c1                	mov    %eax,%ecx
c0104702:	8b 40 04             	mov    0x4(%eax),%eax
c0104705:	8b 79 10             	mov    0x10(%ecx),%edi
c0104708:	85 c0                	test   %eax,%eax
c010470a:	0f 84 a0 00 00 00    	je     c01047b0 <kmalloc+0x1d0>
c0104710:	89 c2                	mov    %eax,%edx
c0104712:	29 ca                	sub    %ecx,%edx
c0104714:	83 ea 18             	sub    $0x18,%edx
c0104717:	29 fa                	sub    %edi,%edx
c0104719:	39 f2                	cmp    %esi,%edx
c010471b:	72 e3                	jb     c0104700 <kmalloc+0x120>
c010471d:	01 cf                	add    %ecx,%edi
c010471f:	89 47 1c             	mov    %eax,0x1c(%edi)
c0104722:	8b 45 d8             	mov    -0x28(%ebp),%eax
c0104725:	8d 57 18             	lea    0x18(%edi),%edx
c0104728:	c7 47 24 de c0 01 c0 	movl   $0xc001c0de,0x24(%edi)
c010472f:	89 47 28             	mov    %eax,0x28(%edi)
c0104732:	8b 45 08             	mov    0x8(%ebp),%eax
c0104735:	89 4f 18             	mov    %ecx,0x18(%edi)
c0104738:	89 47 2c             	mov    %eax,0x2c(%edi)
c010473b:	8b 41 04             	mov    0x4(%ecx),%eax
c010473e:	89 5f 20             	mov    %ebx,0x20(%edi)
c0104741:	89 10                	mov    %edx,(%eax)
c0104743:	8b 45 d8             	mov    -0x28(%ebp),%eax
c0104746:	89 51 04             	mov    %edx,0x4(%ecx)
c0104749:	01 73 10             	add    %esi,0x10(%ebx)
c010474c:	31 d2                	xor    %edx,%edx
c010474e:	01 05 18 60 11 c0    	add    %eax,0xc0116018
c0104754:	11 15 1c 60 11 c0    	adc    %edx,0xc011601c
c010475a:	8d 57 40             	lea    0x40(%edi),%edx
c010475d:	83 e7 0f             	and    $0xf,%edi
c0104760:	0f 85 da 00 00 00    	jne    c0104840 <kmalloc+0x260>
c0104766:	89 d1                	mov    %edx,%ecx
c0104768:	b8 10 00 00 00       	mov    $0x10,%eax
c010476d:	88 42 f0             	mov    %al,-0x10(%edx)
c0104770:	80 3d 00 20 11 c0 00 	cmpb   $0x0,0xc0112000
c0104777:	74 07                	je     c0104780 <kmalloc+0x1a0>
c0104779:	c6 05 00 20 11 c0 00 	movb   $0x0,0xc0112000
c0104780:	83 c4 1c             	add    $0x1c,%esp
c0104783:	89 c8                	mov    %ecx,%eax
c0104785:	5b                   	pop    %ebx
c0104786:	5e                   	pop    %esi
c0104787:	5f                   	pop    %edi
c0104788:	5d                   	pop    %ebp
c0104789:	c3                   	ret    
c010478a:	8d b6 00 00 00 00    	lea    0x0(%esi),%esi
c0104790:	89 75 d8             	mov    %esi,-0x28(%ebp)
c0104793:	89 7d 08             	mov    %edi,0x8(%ebp)
c0104796:	84 db                	test   %bl,%bl
c0104798:	0f 85 a1 fe ff ff    	jne    c010463f <kmalloc+0x5f>
c010479e:	e9 ab fe ff ff       	jmp    c010464e <kmalloc+0x6e>
c01047a3:	8d b4 26 00 00 00 00 	lea    0x0(%esi,%eiz,1),%esi
c01047aa:	8d b6 00 00 00 00    	lea    0x0(%esi),%esi
c01047b0:	8b 43 0c             	mov    0xc(%ebx),%eax
c01047b3:	01 d8                	add    %ebx,%eax
c01047b5:	83 e8 18             	sub    $0x18,%eax
c01047b8:	29 c8                	sub    %ecx,%eax
c01047ba:	29 f8                	sub    %edi,%eax
c01047bc:	39 f0                	cmp    %esi,%eax
c01047be:	0f 83 ec 00 00 00    	jae    c01048b0 <kmalloc+0x2d0>
c01047c4:	8b 53 04             	mov    0x4(%ebx),%edx
c01047c7:	85 d2                	test   %edx,%edx
c01047c9:	0f 85 f4 fe ff ff    	jne    c01046c3 <kmalloc+0xe3>
c01047cf:	83 7d dc 01          	cmpl   $0x1,-0x24(%ebp)
c01047d3:	74 31                	je     c0104806 <kmalloc+0x226>
c01047d5:	8b 45 d8             	mov    -0x28(%ebp),%eax
c01047d8:	e8 63 fc ff ff       	call   c0104440 <allocate_new_page>
c01047dd:	89 43 04             	mov    %eax,0x4(%ebx)
c01047e0:	89 c2                	mov    %eax,%edx
c01047e2:	85 c0                	test   %eax,%eax
c01047e4:	0f 84 0f 01 00 00    	je     c01048f9 <kmalloc+0x319>
c01047ea:	89 18                	mov    %ebx,(%eax)
c01047ec:	e9 d2 fe ff ff       	jmp    c01046c3 <kmalloc+0xe3>
c01047f1:	8d b4 26 00 00 00 00 	lea    0x0(%esi,%eiz,1),%esi
c01047f8:	8d b4 26 00 00 00 00 	lea    0x0(%esi,%eiz,1),%esi
c01047ff:	90                   	nop
c0104800:	83 7d dc 01          	cmpl   $0x1,-0x24(%ebp)
c0104804:	75 1a                	jne    c0104820 <kmalloc+0x240>
c0104806:	8b 15 2c 60 11 c0    	mov    0xc011602c,%edx
c010480c:	85 d2                	test   %edx,%edx
c010480e:	0f 84 e5 00 00 00    	je     c01048f9 <kmalloc+0x319>
c0104814:	c7 45 dc 00 00 00 00 	movl   $0x0,-0x24(%ebp)
c010481b:	e9 a3 fe ff ff       	jmp    c01046c3 <kmalloc+0xe3>
c0104820:	8b 45 d8             	mov    -0x28(%ebp),%eax
c0104823:	e8 18 fc ff ff       	call   c0104440 <allocate_new_page>
c0104828:	89 43 04             	mov    %eax,0x4(%ebx)
c010482b:	85 c0                	test   %eax,%eax
c010482d:	0f 84 c6 00 00 00    	je     c01048f9 <kmalloc+0x319>
c0104833:	89 18                	mov    %ebx,(%eax)
c0104835:	89 c3                	mov    %eax,%ebx
c0104837:	e9 a1 fe ff ff       	jmp    c01046dd <kmalloc+0xfd>
c010483c:	8d 74 26 00          	lea    0x0(%esi,%eiz,1),%esi
c0104840:	b8 10 00 00 00       	mov    $0x10,%eax
c0104845:	29 f8                	sub    %edi,%eax
c0104847:	01 c2                	add    %eax,%edx
c0104849:	83 c0 10             	add    $0x10,%eax
c010484c:	89 d1                	mov    %edx,%ecx
c010484e:	e9 1a ff ff ff       	jmp    c010476d <kmalloc+0x18d>
c0104853:	8d b4 26 00 00 00 00 	lea    0x0(%esi,%eiz,1),%esi
c010485a:	8d b6 00 00 00 00    	lea    0x0(%esi),%esi
c0104860:	8b 4a 0c             	mov    0xc(%edx),%ecx
c0104863:	8b 42 10             	mov    0x10(%edx),%eax
c0104866:	c7 45 dc 00 00 00 00 	movl   $0x0,-0x24(%ebp)
c010486d:	89 d3                	mov    %edx,%ebx
c010486f:	e9 26 fe ff ff       	jmp    c010469a <kmalloc+0xba>
c0104874:	8d b4 26 00 00 00 00 	lea    0x0(%esi,%eiz,1),%esi
c010487b:	8d 74 26 00          	lea    0x0(%esi,%eiz,1),%esi
c010487f:	90                   	nop
c0104880:	8b 4a 0c             	mov    0xc(%edx),%ecx
c0104883:	8b 42 10             	mov    0x10(%edx),%eax
c0104886:	c7 45 e0 00 00 00 00 	movl   $0x0,-0x20(%ebp)
c010488d:	89 d3                	mov    %edx,%ebx
c010488f:	c7 45 e4 00 00 00 00 	movl   $0x0,-0x1c(%ebp)
c0104896:	c7 45 dc 00 00 00 00 	movl   $0x0,-0x24(%ebp)
c010489d:	e9 f8 fd ff ff       	jmp    c010469a <kmalloc+0xba>
c01048a2:	8d b4 26 00 00 00 00 	lea    0x0(%esi,%eiz,1),%esi
c01048a9:	8d b4 26 00 00 00 00 	lea    0x0(%esi,%eiz,1),%esi
c01048b0:	01 cf                	add    %ecx,%edi
c01048b2:	8b 55 08             	mov    0x8(%ebp),%edx
c01048b5:	8d 47 18             	lea    0x18(%edi),%eax
c01048b8:	89 41 04             	mov    %eax,0x4(%ecx)
c01048bb:	89 4f 18             	mov    %ecx,0x18(%edi)
c01048be:	8b 4d d8             	mov    -0x28(%ebp),%ecx
c01048c1:	c7 47 1c 00 00 00 00 	movl   $0x0,0x1c(%edi)
c01048c8:	c7 47 24 de c0 01 c0 	movl   $0xc001c0de,0x24(%edi)
c01048cf:	89 c8                	mov    %ecx,%eax
c01048d1:	89 5f 20             	mov    %ebx,0x20(%edi)
c01048d4:	89 4f 28             	mov    %ecx,0x28(%edi)
c01048d7:	89 57 2c             	mov    %edx,0x2c(%edi)
c01048da:	01 73 10             	add    %esi,0x10(%ebx)
c01048dd:	e9 6a fe ff ff       	jmp    c010474c <kmalloc+0x16c>
c01048e2:	8b 45 d8             	mov    -0x28(%ebp),%eax
c01048e5:	e8 56 fb ff ff       	call   c0104440 <allocate_new_page>
c01048ea:	a3 2c 60 11 c0       	mov    %eax,0xc011602c
c01048ef:	89 c2                	mov    %eax,%edx
c01048f1:	85 c0                	test   %eax,%eax
c01048f3:	0f 85 6a fd ff ff    	jne    c0104663 <kmalloc+0x83>
c01048f9:	80 3d 00 20 11 c0 00 	cmpb   $0x0,0xc0112000
c0104900:	75 0c                	jne    c010490e <kmalloc+0x32e>
c0104902:	31 c9                	xor    %ecx,%ecx
c0104904:	83 c4 1c             	add    $0x1c,%esp
c0104907:	89 c8                	mov    %ecx,%eax
c0104909:	5b                   	pop    %ebx
c010490a:	5e                   	pop    %esi
c010490b:	5f                   	pop    %edi
c010490c:	5d                   	pop    %ebp
c010490d:	c3                   	ret    
c010490e:	c6 05 00 20 11 c0 00 	movb   $0x0,0xc0112000
c0104915:	31 c9                	xor    %ecx,%ecx
c0104917:	eb eb                	jmp    c0104904 <kmalloc+0x324>
c0104919:	8b 7d d8             	mov    -0x28(%ebp),%edi
c010491c:	8b 4d 08             	mov    0x8(%ebp),%ecx
c010491f:	c7 43 24 de c0 01 c0 	movl   $0xc001c0de,0x24(%ebx)
c0104926:	8d 43 18             	lea    0x18(%ebx),%eax
c0104929:	01 73 10             	add    %esi,0x10(%ebx)
c010492c:	c7 43 18 00 00 00 00 	movl   $0x0,0x18(%ebx)
c0104933:	c7 43 1c 00 00 00 00 	movl   $0x0,0x1c(%ebx)
c010493a:	89 5b 20             	mov    %ebx,0x20(%ebx)
c010493d:	89 7b 28             	mov    %edi,0x28(%ebx)
c0104940:	89 4b 2c             	mov    %ecx,0x2c(%ebx)
c0104943:	89 43 14             	mov    %eax,0x14(%ebx)
c0104946:	89 f8                	mov    %edi,%eax
c0104948:	31 d2                	xor    %edx,%edx
c010494a:	01 05 18 60 11 c0    	add    %eax,0xc0116018
c0104950:	11 15 1c 60 11 c0    	adc    %edx,0xc011601c
c0104956:	8d 53 40             	lea    0x40(%ebx),%edx
c0104959:	83 e3 0f             	and    $0xf,%ebx
c010495c:	0f 84 04 fe ff ff    	je     c0104766 <kmalloc+0x186>
c0104962:	b8 10 00 00 00       	mov    $0x10,%eax
c0104967:	29 d8                	sub    %ebx,%eax
c0104969:	01 c2                	add    %eax,%edx
c010496b:	83 c0 10             	add    $0x10,%eax
c010496e:	89 d1                	mov    %edx,%ecx
c0104970:	e9 f8 fd ff ff       	jmp    c010476d <kmalloc+0x18d>
c0104975:	8d 53 18             	lea    0x18(%ebx),%edx
c0104978:	8b 7d 08             	mov    0x8(%ebp),%edi
c010497b:	89 10                	mov    %edx,(%eax)
c010497d:	89 43 1c             	mov    %eax,0x1c(%ebx)
c0104980:	8b 45 d8             	mov    -0x28(%ebp),%eax
c0104983:	01 73 10             	add    %esi,0x10(%ebx)
c0104986:	89 53 14             	mov    %edx,0x14(%ebx)
c0104989:	c7 43 24 de c0 01 c0 	movl   $0xc001c0de,0x24(%ebx)
c0104990:	c7 43 18 00 00 00 00 	movl   $0x0,0x18(%ebx)
c0104997:	89 5b 20             	mov    %ebx,0x20(%ebx)
c010499a:	89 43 28             	mov    %eax,0x28(%ebx)
c010499d:	89 7b 2c             	mov    %edi,0x2c(%ebx)
c01049a0:	eb a6                	jmp    c0104948 <kmalloc+0x368>
c01049a2:	8d b4 26 00 00 00 00 	lea    0x0(%esi,%eiz,1),%esi
c01049a9:	8d b4 26 00 00 00 00 	lea    0x0(%esi,%eiz,1),%esi

c01049b0 <memory_initalize>:
c01049b0:	55                   	push   %ebp
c01049b1:	89 e5                	mov    %esp,%ebp
c01049b3:	53                   	push   %ebx
c01049b4:	83 ec 10             	sub    $0x10,%esp
c01049b7:	6a 01                	push   $0x1
c01049b9:	e8 d2 1c 00 00       	call   c0106690 <set_debug_output>
c01049be:	83 c4 0c             	add    $0xc,%esp
c01049c1:	6a 15                	push   $0x15
c01049c3:	68 1c 74 10 c0       	push   $0xc010741c
c01049c8:	68 c3 74 10 c0       	push   $0xc01074c3
c01049cd:	e8 ce cd ff ff       	call   c01017a0 <printf_>
c01049d2:	c7 04 24 e0 74 10 c0 	movl   $0xc01074e0,(%esp)
c01049d9:	e8 c2 cd ff ff       	call   c01017a0 <printf_>
c01049de:	c7 04 24 00 00 00 00 	movl   $0x0,(%esp)
c01049e5:	e8 a6 1c 00 00       	call   c0106690 <set_debug_output>
c01049ea:	a1 7c 80 10 c0       	mov    0xc010807c,%eax
c01049ef:	ba 00 50 11 00       	mov    $0x115000,%edx
c01049f4:	81 e2 00 f8 ff 7f    	and    $0x7ffff800,%edx
c01049fa:	89 c1                	mov    %eax,%ecx
c01049fc:	83 ca 03             	or     $0x3,%edx
c01049ff:	c1 e8 0c             	shr    $0xc,%eax
c0104a02:	c1 e9 16             	shr    $0x16,%ecx
c0104a05:	25 ff 3f 00 00       	and    $0x3fff,%eax
c0104a0a:	8b 1c 8d 00 c0 10 c0 	mov    -0x3fef4000(,%ecx,4),%ebx
c0104a11:	81 e3 fc 07 00 80    	and    $0x800007fc,%ebx
c0104a17:	09 da                	or     %ebx,%edx
c0104a19:	8d 1c 85 00 50 11 c0 	lea    -0x3feeb000(,%eax,4),%ebx
c0104a20:	89 14 8d 00 c0 10 c0 	mov    %edx,-0x3fef4000(,%ecx,4)
c0104a27:	8b 15 80 80 10 c0    	mov    0xc0108080,%edx
c0104a2d:	8b 0c 85 00 50 11 c0 	mov    -0x3feeb000(,%eax,4),%ecx
c0104a34:	81 e2 00 f8 ff 7f    	and    $0x7ffff800,%edx
c0104a3a:	83 ca 03             	or     $0x3,%edx
c0104a3d:	81 e1 fc 07 00 80    	and    $0x800007fc,%ecx
c0104a43:	09 ca                	or     %ecx,%edx
c0104a45:	89 14 85 00 50 11 c0 	mov    %edx,-0x3feeb000(,%eax,4)
c0104a4c:	0f 01 3b             	invlpg (%ebx)
c0104a4f:	81 05 7c 80 10 c0 00 	addl   $0x1000,0xc010807c
c0104a56:	10 00 00 
c0104a59:	c7 04 24 00 10 00 00 	movl   $0x1000,(%esp)
c0104a60:	81 05 80 80 10 c0 00 	addl   $0x1000,0xc0108080
c0104a67:	10 00 00 
c0104a6a:	e8 71 fb ff ff       	call   c01045e0 <kmalloc>
c0104a6f:	8b 15 00 30 11 c0    	mov    0xc0113000,%edx
c0104a75:	89 c3                	mov    %eax,%ebx
c0104a77:	8d 80 c0 0f 40 66    	lea    0x66400fc0(%eax),%eax
c0104a7d:	25 00 f8 ff 7f       	and    $0x7ffff800,%eax
c0104a82:	81 e2 fc 07 00 80    	and    $0x800007fc,%edx
c0104a88:	83 c8 03             	or     $0x3,%eax
c0104a8b:	09 d0                	or     %edx,%eax
c0104a8d:	8b 15 00 c0 10 c0    	mov    0xc010c000,%edx
c0104a93:	a3 00 30 11 c0       	mov    %eax,0xc0113000
c0104a98:	b8 00 30 11 00       	mov    $0x113000,%eax
c0104a9d:	25 00 f8 ff 7f       	and    $0x7ffff800,%eax
c0104aa2:	81 e2 fc 07 00 80    	and    $0x800007fc,%edx
c0104aa8:	83 c8 03             	or     $0x3,%eax
c0104aab:	09 d0                	or     %edx,%eax
c0104aad:	a3 00 c0 10 c0       	mov    %eax,0xc010c000
c0104ab2:	e8 de d0 ff ff       	call   c0101b95 <asm_refresh_cr3>
c0104ab7:	c7 83 c4 0f 00 00 66 	movl   $0x666,0xfc4(%ebx)
c0104abe:	06 00 00 
c0104ac1:	c7 04 24 01 00 00 00 	movl   $0x1,(%esp)
c0104ac8:	e8 c3 1b 00 00       	call   c0106690 <set_debug_output>
c0104acd:	83 c4 0c             	add    $0xc,%esp
c0104ad0:	6a 59                	push   $0x59
c0104ad2:	68 1c 74 10 c0       	push   $0xc010741c
c0104ad7:	68 c3 74 10 c0       	push   $0xc01074c3
c0104adc:	e8 bf cc ff ff       	call   c01017a0 <printf_>
c0104ae1:	c7 04 24 e7 74 10 c0 	movl   $0xc01074e7,(%esp)
c0104ae8:	e8 b3 cc ff ff       	call   c01017a0 <printf_>
c0104aed:	c7 04 24 00 00 00 00 	movl   $0x0,(%esp)
c0104af4:	e8 97 1b 00 00       	call   c0106690 <set_debug_output>
c0104af9:	8b 5d fc             	mov    -0x4(%ebp),%ebx
c0104afc:	83 c4 10             	add    $0x10,%esp
c0104aff:	c9                   	leave  
c0104b00:	c3                   	ret    
c0104b01:	8d b4 26 00 00 00 00 	lea    0x0(%esi,%eiz,1),%esi
c0104b08:	8d b4 26 00 00 00 00 	lea    0x0(%esi,%eiz,1),%esi
c0104b0f:	90                   	nop

c0104b10 <memory_test>:
c0104b10:	55                   	push   %ebp
c0104b11:	89 e5                	mov    %esp,%ebp
c0104b13:	53                   	push   %ebx
c0104b14:	83 ec 10             	sub    $0x10,%esp
c0104b17:	a1 7c 80 10 c0       	mov    0xc010807c,%eax
c0104b1c:	0f b7 d0             	movzwl %ax,%edx
c0104b1f:	c1 e8 10             	shr    $0x10,%eax
c0104b22:	52                   	push   %edx
c0104b23:	50                   	push   %eax
c0104b24:	68 1c 7b 10 c0       	push   $0xc0107b1c
c0104b29:	6a 00                	push   $0x0
c0104b2b:	6a 03                	push   $0x3
c0104b2d:	e8 5e d7 ff ff       	call   c0102290 <k_log>
c0104b32:	83 c4 14             	add    $0x14,%esp
c0104b35:	68 56 02 00 00       	push   $0x256
c0104b3a:	e8 a1 fa ff ff       	call   c01045e0 <kmalloc>
c0104b3f:	83 c4 0c             	add    $0xc,%esp
c0104b42:	68 d0 75 10 c0       	push   $0xc01075d0
c0104b47:	89 c3                	mov    %eax,%ebx
c0104b49:	6a 00                	push   $0x0
c0104b4b:	6a 03                	push   $0x3
c0104b4d:	e8 3e d7 ff ff       	call   c0102290 <k_log>
c0104b52:	0f b7 c3             	movzwl %bx,%eax
c0104b55:	c1 eb 10             	shr    $0x10,%ebx
c0104b58:	89 04 24             	mov    %eax,(%esp)
c0104b5b:	53                   	push   %ebx
c0104b5c:	68 e7 75 10 c0       	push   $0xc01075e7
c0104b61:	6a 00                	push   $0x0
c0104b63:	6a 03                	push   $0x3
c0104b65:	e8 26 d7 ff ff       	call   c0102290 <k_log>
c0104b6a:	83 c4 1c             	add    $0x1c,%esp
c0104b6d:	68 f7 75 10 c0       	push   $0xc01075f7
c0104b72:	6a 00                	push   $0x0
c0104b74:	6a 03                	push   $0x3
c0104b76:	e8 15 d7 ff ff       	call   c0102290 <k_log>
c0104b7b:	c7 04 24 12 05 00 00 	movl   $0x512,(%esp)
c0104b82:	e8 59 fa ff ff       	call   c01045e0 <kmalloc>
c0104b87:	0f b7 d0             	movzwl %ax,%edx
c0104b8a:	c1 e8 10             	shr    $0x10,%eax
c0104b8d:	89 14 24             	mov    %edx,(%esp)
c0104b90:	50                   	push   %eax
c0104b91:	68 0e 76 10 c0       	push   $0xc010760e
c0104b96:	6a 00                	push   $0x0
c0104b98:	6a 03                	push   $0x3
c0104b9a:	e8 f1 d6 ff ff       	call   c0102290 <k_log>
c0104b9f:	83 c4 1c             	add    $0x1c,%esp
c0104ba2:	68 1e 76 10 c0       	push   $0xc010761e
c0104ba7:	6a 00                	push   $0x0
c0104ba9:	6a 03                	push   $0x3
c0104bab:	e8 e0 d6 ff ff       	call   c0102290 <k_log>
c0104bb0:	c7 04 24 00 10 01 00 	movl   $0x11000,(%esp)
c0104bb7:	e8 24 fa ff ff       	call   c01045e0 <kmalloc>
c0104bbc:	0f b7 d0             	movzwl %ax,%edx
c0104bbf:	c1 e8 10             	shr    $0x10,%eax
c0104bc2:	89 14 24             	mov    %edx,(%esp)
c0104bc5:	50                   	push   %eax
c0104bc6:	68 37 76 10 c0       	push   $0xc0107637
c0104bcb:	6a 00                	push   $0x0
c0104bcd:	6a 03                	push   $0x3
c0104bcf:	e8 bc d6 ff ff       	call   c0102290 <k_log>
c0104bd4:	83 c4 1c             	add    $0x1c,%esp
c0104bd7:	68 47 76 10 c0       	push   $0xc0107647
c0104bdc:	6a 00                	push   $0x0
c0104bde:	6a 03                	push   $0x3
c0104be0:	e8 ab d6 ff ff       	call   c0102290 <k_log>
c0104be5:	c7 04 24 00 10 01 00 	movl   $0x11000,(%esp)
c0104bec:	e8 ef f9 ff ff       	call   c01045e0 <kmalloc>
c0104bf1:	0f b7 d0             	movzwl %ax,%edx
c0104bf4:	c1 e8 10             	shr    $0x10,%eax
c0104bf7:	89 14 24             	mov    %edx,(%esp)
c0104bfa:	50                   	push   %eax
c0104bfb:	68 60 76 10 c0       	push   $0xc0107660
c0104c00:	6a 00                	push   $0x0
c0104c02:	6a 03                	push   $0x3
c0104c04:	e8 87 d6 ff ff       	call   c0102290 <k_log>
c0104c09:	a1 7c 80 10 c0       	mov    0xc010807c,%eax
c0104c0e:	83 c4 14             	add    $0x14,%esp
c0104c11:	0f b7 d0             	movzwl %ax,%edx
c0104c14:	c1 e8 10             	shr    $0x10,%eax
c0104c17:	52                   	push   %edx
c0104c18:	50                   	push   %eax
c0104c19:	68 1c 7b 10 c0       	push   $0xc0107b1c
c0104c1e:	6a 00                	push   $0x0
c0104c20:	6a 03                	push   $0x3
c0104c22:	e8 69 d6 ff ff       	call   c0102290 <k_log>
c0104c27:	8b 5d fc             	mov    -0x4(%ebp),%ebx
c0104c2a:	83 c4 20             	add    $0x20,%esp
c0104c2d:	c9                   	leave  
c0104c2e:	e9 bd f8 ff ff       	jmp    c01044f0 <liballoc_dump>
c0104c33:	8d b4 26 00 00 00 00 	lea    0x0(%esi,%eiz,1),%esi
c0104c3a:	8d b6 00 00 00 00    	lea    0x0(%esi),%esi

c0104c40 <kfree>:
c0104c40:	55                   	push   %ebp
c0104c41:	89 e5                	mov    %esp,%ebp
c0104c43:	57                   	push   %edi
c0104c44:	8b 55 08             	mov    0x8(%ebp),%edx
c0104c47:	56                   	push   %esi
c0104c48:	53                   	push   %ebx
c0104c49:	85 d2                	test   %edx,%edx
c0104c4b:	0f 84 ef 00 00 00    	je     c0104d40 <kfree+0x100>
c0104c51:	0f be 4a f0          	movsbl -0x10(%edx),%ecx
c0104c55:	89 d0                	mov    %edx,%eax
c0104c57:	29 c8                	sub    %ecx,%eax
c0104c59:	83 f9 20             	cmp    $0x20,%ecx
c0104c5c:	0f 43 c2             	cmovae %edx,%eax
c0104c5f:	80 3d 00 20 11 c0 00 	cmpb   $0x0,0xc0112000
c0104c66:	75 07                	jne    c0104c6f <kfree+0x2f>
c0104c68:	c6 05 00 20 11 c0 01 	movb   $0x1,0xc0112000
c0104c6f:	8b 50 f4             	mov    -0xc(%eax),%edx
c0104c72:	83 e8 18             	sub    $0x18,%eax
c0104c75:	81 fa de c0 01 c0    	cmp    $0xc001c0de,%edx
c0104c7b:	75 73                	jne    c0104cf0 <kfree+0xb0>
c0104c7d:	8b 58 08             	mov    0x8(%eax),%ebx
c0104c80:	8b 70 10             	mov    0x10(%eax),%esi
c0104c83:	31 ff                	xor    %edi,%edi
c0104c85:	8b 48 04             	mov    0x4(%eax),%ecx
c0104c88:	29 35 18 60 11 c0    	sub    %esi,0xc0116018
c0104c8e:	8b 53 10             	mov    0x10(%ebx),%edx
c0104c91:	19 3d 1c 60 11 c0    	sbb    %edi,0xc011601c
c0104c97:	2b 50 10             	sub    0x10(%eax),%edx
c0104c9a:	83 ea 18             	sub    $0x18,%edx
c0104c9d:	89 53 10             	mov    %edx,0x10(%ebx)
c0104ca0:	c7 40 0c ad de ad de 	movl   $0xdeaddead,0xc(%eax)
c0104ca7:	85 c9                	test   %ecx,%ecx
c0104ca9:	74 04                	je     c0104caf <kfree+0x6f>
c0104cab:	8b 30                	mov    (%eax),%esi
c0104cad:	89 31                	mov    %esi,(%ecx)
c0104caf:	8b 00                	mov    (%eax),%eax
c0104cb1:	85 c0                	test   %eax,%eax
c0104cb3:	0f 84 e7 00 00 00    	je     c0104da0 <kfree+0x160>
c0104cb9:	89 48 04             	mov    %ecx,0x4(%eax)
c0104cbc:	8b 4b 14             	mov    0x14(%ebx),%ecx
c0104cbf:	a1 28 60 11 c0       	mov    0xc0116028,%eax
c0104cc4:	85 c9                	test   %ecx,%ecx
c0104cc6:	0f 84 94 00 00 00    	je     c0104d60 <kfree+0x120>
c0104ccc:	85 c0                	test   %eax,%eax
c0104cce:	74 0f                	je     c0104cdf <kfree+0x9f>
c0104cd0:	8b 48 0c             	mov    0xc(%eax),%ecx
c0104cd3:	2b 48 10             	sub    0x10(%eax),%ecx
c0104cd6:	8b 43 0c             	mov    0xc(%ebx),%eax
c0104cd9:	29 d0                	sub    %edx,%eax
c0104cdb:	39 c1                	cmp    %eax,%ecx
c0104cdd:	7c 51                	jl     c0104d30 <kfree+0xf0>
c0104cdf:	5b                   	pop    %ebx
c0104ce0:	5e                   	pop    %esi
c0104ce1:	c6 05 00 20 11 c0 00 	movb   $0x0,0xc0112000
c0104ce8:	5f                   	pop    %edi
c0104ce9:	5d                   	pop    %ebp
c0104cea:	c3                   	ret    
c0104ceb:	8d 74 26 00          	lea    0x0(%esi,%eiz,1),%esi
c0104cef:	90                   	nop
c0104cf0:	89 d0                	mov    %edx,%eax
c0104cf2:	83 05 08 60 11 c0 01 	addl   $0x1,0xc0116008
c0104cf9:	83 15 0c 60 11 c0 00 	adcl   $0x0,0xc011600c
c0104d00:	25 ff ff ff 00       	and    $0xffffff,%eax
c0104d05:	3d de c0 01 00       	cmp    $0x1c0de,%eax
c0104d0a:	74 0c                	je     c0104d18 <kfree+0xd8>
c0104d0c:	66 81 fa de c0       	cmp    $0xc0de,%dx
c0104d11:	74 05                	je     c0104d18 <kfree+0xd8>
c0104d13:	80 fa de             	cmp    $0xde,%dl
c0104d16:	75 c7                	jne    c0104cdf <kfree+0x9f>
c0104d18:	83 05 00 60 11 c0 01 	addl   $0x1,0xc0116000
c0104d1f:	83 15 04 60 11 c0 00 	adcl   $0x0,0xc0116004
c0104d26:	eb b7                	jmp    c0104cdf <kfree+0x9f>
c0104d28:	8d b4 26 00 00 00 00 	lea    0x0(%esi,%eiz,1),%esi
c0104d2f:	90                   	nop
c0104d30:	89 1d 28 60 11 c0    	mov    %ebx,0xc0116028
c0104d36:	eb a7                	jmp    c0104cdf <kfree+0x9f>
c0104d38:	8d b4 26 00 00 00 00 	lea    0x0(%esi,%eiz,1),%esi
c0104d3f:	90                   	nop
c0104d40:	5b                   	pop    %ebx
c0104d41:	83 05 10 60 11 c0 01 	addl   $0x1,0xc0116010
c0104d48:	5e                   	pop    %esi
c0104d49:	83 15 14 60 11 c0 00 	adcl   $0x0,0xc0116014
c0104d50:	5f                   	pop    %edi
c0104d51:	5d                   	pop    %ebp
c0104d52:	c3                   	ret    
c0104d53:	8d b4 26 00 00 00 00 	lea    0x0(%esi,%eiz,1),%esi
c0104d5a:	8d b6 00 00 00 00    	lea    0x0(%esi),%esi
c0104d60:	8b 53 04             	mov    0x4(%ebx),%edx
c0104d63:	39 1d 2c 60 11 c0    	cmp    %ebx,0xc011602c
c0104d69:	74 45                	je     c0104db0 <kfree+0x170>
c0104d6b:	39 c3                	cmp    %eax,%ebx
c0104d6d:	74 51                	je     c0104dc0 <kfree+0x180>
c0104d6f:	8b 03                	mov    (%ebx),%eax
c0104d71:	85 c0                	test   %eax,%eax
c0104d73:	74 06                	je     c0104d7b <kfree+0x13b>
c0104d75:	89 50 04             	mov    %edx,0x4(%eax)
c0104d78:	8b 53 04             	mov    0x4(%ebx),%edx
c0104d7b:	85 d2                	test   %edx,%edx
c0104d7d:	74 02                	je     c0104d81 <kfree+0x141>
c0104d7f:	89 02                	mov    %eax,(%edx)
c0104d81:	31 d2                	xor    %edx,%edx
c0104d83:	8b 43 0c             	mov    0xc(%ebx),%eax
c0104d86:	29 05 20 60 11 c0    	sub    %eax,0xc0116020
c0104d8c:	19 15 24 60 11 c0    	sbb    %edx,0xc0116024
c0104d92:	e9 48 ff ff ff       	jmp    c0104cdf <kfree+0x9f>
c0104d97:	8d b4 26 00 00 00 00 	lea    0x0(%esi,%eiz,1),%esi
c0104d9e:	66 90                	xchg   %ax,%ax
c0104da0:	89 4b 14             	mov    %ecx,0x14(%ebx)
c0104da3:	e9 17 ff ff ff       	jmp    c0104cbf <kfree+0x7f>
c0104da8:	8d b4 26 00 00 00 00 	lea    0x0(%esi,%eiz,1),%esi
c0104daf:	90                   	nop
c0104db0:	89 15 2c 60 11 c0    	mov    %edx,0xc011602c
c0104db6:	eb b3                	jmp    c0104d6b <kfree+0x12b>
c0104db8:	8d b4 26 00 00 00 00 	lea    0x0(%esi,%eiz,1),%esi
c0104dbf:	90                   	nop
c0104dc0:	c7 05 28 60 11 c0 00 	movl   $0x0,0xc0116028
c0104dc7:	00 00 00 
c0104dca:	eb a3                	jmp    c0104d6f <kfree+0x12f>
c0104dcc:	8d 74 26 00          	lea    0x0(%esi,%eiz,1),%esi

c0104dd0 <kcalloc>:
c0104dd0:	55                   	push   %ebp
c0104dd1:	89 e5                	mov    %esp,%ebp
c0104dd3:	53                   	push   %ebx
c0104dd4:	83 ec 10             	sub    $0x10,%esp
c0104dd7:	8b 5d 0c             	mov    0xc(%ebp),%ebx
c0104dda:	0f af 5d 08          	imul   0x8(%ebp),%ebx
c0104dde:	53                   	push   %ebx
c0104ddf:	e8 fc f7 ff ff       	call   c01045e0 <kmalloc>
c0104de4:	83 c4 10             	add    $0x10,%esp
c0104de7:	85 db                	test   %ebx,%ebx
c0104de9:	74 0f                	je     c0104dfa <kcalloc+0x2a>
c0104deb:	89 c2                	mov    %eax,%edx
c0104ded:	8d 0c 03             	lea    (%ebx,%eax,1),%ecx
c0104df0:	c6 02 00             	movb   $0x0,(%edx)
c0104df3:	83 c2 01             	add    $0x1,%edx
c0104df6:	39 ca                	cmp    %ecx,%edx
c0104df8:	75 f6                	jne    c0104df0 <kcalloc+0x20>
c0104dfa:	8b 5d fc             	mov    -0x4(%ebp),%ebx
c0104dfd:	c9                   	leave  
c0104dfe:	c3                   	ret    
c0104dff:	90                   	nop

c0104e00 <krealloc>:
c0104e00:	55                   	push   %ebp
c0104e01:	89 e5                	mov    %esp,%ebp
c0104e03:	57                   	push   %edi
c0104e04:	56                   	push   %esi
c0104e05:	53                   	push   %ebx
c0104e06:	83 ec 1c             	sub    $0x1c,%esp
c0104e09:	8b 4d 0c             	mov    0xc(%ebp),%ecx
c0104e0c:	8b 5d 08             	mov    0x8(%ebp),%ebx
c0104e0f:	85 c9                	test   %ecx,%ecx
c0104e11:	0f 84 59 01 00 00    	je     c0104f70 <krealloc+0x170>
c0104e17:	85 db                	test   %ebx,%ebx
c0104e19:	0f 84 71 01 00 00    	je     c0104f90 <krealloc+0x190>
c0104e1f:	0f be 53 f0          	movsbl -0x10(%ebx),%edx
c0104e23:	89 d8                	mov    %ebx,%eax
c0104e25:	29 d0                	sub    %edx,%eax
c0104e27:	83 fa 20             	cmp    $0x20,%edx
c0104e2a:	0f 43 c3             	cmovae %ebx,%eax
c0104e2d:	80 3d 00 20 11 c0 00 	cmpb   $0x0,0xc0112000
c0104e34:	0f 85 a6 00 00 00    	jne    c0104ee0 <krealloc+0xe0>
c0104e3a:	8b 50 f4             	mov    -0xc(%eax),%edx
c0104e3d:	83 e8 18             	sub    $0x18,%eax
c0104e40:	c6 05 00 20 11 c0 01 	movb   $0x1,0xc0112000
c0104e47:	81 fa de c0 01 c0    	cmp    $0xc001c0de,%edx
c0104e4d:	0f 85 9f 00 00 00    	jne    c0104ef2 <krealloc+0xf2>
c0104e53:	8b 50 14             	mov    0x14(%eax),%edx
c0104e56:	39 d1                	cmp    %edx,%ecx
c0104e58:	0f 86 e2 00 00 00    	jbe    c0104f40 <krealloc+0x140>
c0104e5e:	83 ec 0c             	sub    $0xc,%esp
c0104e61:	89 55 e0             	mov    %edx,-0x20(%ebp)
c0104e64:	51                   	push   %ecx
c0104e65:	c6 05 00 20 11 c0 00 	movb   $0x0,0xc0112000
c0104e6c:	e8 6f f7 ff ff       	call   c01045e0 <kmalloc>
c0104e71:	8b 55 e0             	mov    -0x20(%ebp),%edx
c0104e74:	83 c4 10             	add    $0x10,%esp
c0104e77:	89 45 e4             	mov    %eax,-0x1c(%ebp)
c0104e7a:	89 c7                	mov    %eax,%edi
c0104e7c:	83 fa 03             	cmp    $0x3,%edx
c0104e7f:	0f 86 1b 01 00 00    	jbe    c0104fa0 <krealloc+0x1a0>
c0104e85:	8d 42 fc             	lea    -0x4(%edx),%eax
c0104e88:	89 de                	mov    %ebx,%esi
c0104e8a:	c1 e8 02             	shr    $0x2,%eax
c0104e8d:	8d 0c 85 04 00 00 00 	lea    0x4(,%eax,4),%ecx
c0104e94:	8d 04 0b             	lea    (%ebx,%ecx,1),%eax
c0104e97:	8d b4 26 00 00 00 00 	lea    0x0(%esi,%eiz,1),%esi
c0104e9e:	66 90                	xchg   %ax,%ax
c0104ea0:	a5                   	movsl  %ds:(%esi),%es:(%edi)
c0104ea1:	39 c6                	cmp    %eax,%esi
c0104ea3:	75 fb                	jne    c0104ea0 <krealloc+0xa0>
c0104ea5:	8b 7d e4             	mov    -0x1c(%ebp),%edi
c0104ea8:	83 e2 03             	and    $0x3,%edx
c0104eab:	01 cf                	add    %ecx,%edi
c0104ead:	8d 0c 10             	lea    (%eax,%edx,1),%ecx
c0104eb0:	89 c6                	mov    %eax,%esi
c0104eb2:	85 d2                	test   %edx,%edx
c0104eb4:	74 05                	je     c0104ebb <krealloc+0xbb>
c0104eb6:	a4                   	movsb  %ds:(%esi),%es:(%edi)
c0104eb7:	39 f1                	cmp    %esi,%ecx
c0104eb9:	75 fb                	jne    c0104eb6 <krealloc+0xb6>
c0104ebb:	83 ec 0c             	sub    $0xc,%esp
c0104ebe:	53                   	push   %ebx
c0104ebf:	e8 7c fd ff ff       	call   c0104c40 <kfree>
c0104ec4:	83 c4 10             	add    $0x10,%esp
c0104ec7:	8b 45 e4             	mov    -0x1c(%ebp),%eax
c0104eca:	8d 65 f4             	lea    -0xc(%ebp),%esp
c0104ecd:	5b                   	pop    %ebx
c0104ece:	5e                   	pop    %esi
c0104ecf:	5f                   	pop    %edi
c0104ed0:	5d                   	pop    %ebp
c0104ed1:	c3                   	ret    
c0104ed2:	8d b4 26 00 00 00 00 	lea    0x0(%esi,%eiz,1),%esi
c0104ed9:	8d b4 26 00 00 00 00 	lea    0x0(%esi,%eiz,1),%esi
c0104ee0:	8b 50 f4             	mov    -0xc(%eax),%edx
c0104ee3:	83 e8 18             	sub    $0x18,%eax
c0104ee6:	81 fa de c0 01 c0    	cmp    $0xc001c0de,%edx
c0104eec:	0f 84 61 ff ff ff    	je     c0104e53 <krealloc+0x53>
c0104ef2:	89 d0                	mov    %edx,%eax
c0104ef4:	83 05 08 60 11 c0 01 	addl   $0x1,0xc0116008
c0104efb:	83 15 0c 60 11 c0 00 	adcl   $0x0,0xc011600c
c0104f02:	25 ff ff ff 00       	and    $0xffffff,%eax
c0104f07:	3d de c0 01 00       	cmp    $0x1c0de,%eax
c0104f0c:	74 52                	je     c0104f60 <krealloc+0x160>
c0104f0e:	66 81 fa de c0       	cmp    $0xc0de,%dx
c0104f13:	74 4b                	je     c0104f60 <krealloc+0x160>
c0104f15:	80 fa de             	cmp    $0xde,%dl
c0104f18:	74 46                	je     c0104f60 <krealloc+0x160>
c0104f1a:	c7 45 e4 00 00 00 00 	movl   $0x0,-0x1c(%ebp)
c0104f21:	8b 45 e4             	mov    -0x1c(%ebp),%eax
c0104f24:	c6 05 00 20 11 c0 00 	movb   $0x0,0xc0112000
c0104f2b:	8d 65 f4             	lea    -0xc(%ebp),%esp
c0104f2e:	5b                   	pop    %ebx
c0104f2f:	5e                   	pop    %esi
c0104f30:	5f                   	pop    %edi
c0104f31:	5d                   	pop    %ebp
c0104f32:	c3                   	ret    
c0104f33:	8d b4 26 00 00 00 00 	lea    0x0(%esi,%eiz,1),%esi
c0104f3a:	8d b6 00 00 00 00    	lea    0x0(%esi),%esi
c0104f40:	89 48 14             	mov    %ecx,0x14(%eax)
c0104f43:	89 5d e4             	mov    %ebx,-0x1c(%ebp)
c0104f46:	8b 45 e4             	mov    -0x1c(%ebp),%eax
c0104f49:	c6 05 00 20 11 c0 00 	movb   $0x0,0xc0112000
c0104f50:	8d 65 f4             	lea    -0xc(%ebp),%esp
c0104f53:	5b                   	pop    %ebx
c0104f54:	5e                   	pop    %esi
c0104f55:	5f                   	pop    %edi
c0104f56:	5d                   	pop    %ebp
c0104f57:	c3                   	ret    
c0104f58:	8d b4 26 00 00 00 00 	lea    0x0(%esi,%eiz,1),%esi
c0104f5f:	90                   	nop
c0104f60:	83 05 00 60 11 c0 01 	addl   $0x1,0xc0116000
c0104f67:	83 15 04 60 11 c0 00 	adcl   $0x0,0xc0116004
c0104f6e:	eb aa                	jmp    c0104f1a <krealloc+0x11a>
c0104f70:	83 ec 0c             	sub    $0xc,%esp
c0104f73:	53                   	push   %ebx
c0104f74:	e8 c7 fc ff ff       	call   c0104c40 <kfree>
c0104f79:	c7 45 e4 00 00 00 00 	movl   $0x0,-0x1c(%ebp)
c0104f80:	83 c4 10             	add    $0x10,%esp
c0104f83:	e9 3f ff ff ff       	jmp    c0104ec7 <krealloc+0xc7>
c0104f88:	8d b4 26 00 00 00 00 	lea    0x0(%esi,%eiz,1),%esi
c0104f8f:	90                   	nop
c0104f90:	89 4d 08             	mov    %ecx,0x8(%ebp)
c0104f93:	8d 65 f4             	lea    -0xc(%ebp),%esp
c0104f96:	5b                   	pop    %ebx
c0104f97:	5e                   	pop    %esi
c0104f98:	5f                   	pop    %edi
c0104f99:	5d                   	pop    %ebp
c0104f9a:	e9 41 f6 ff ff       	jmp    c01045e0 <kmalloc>
c0104f9f:	90                   	nop
c0104fa0:	8b 7d e4             	mov    -0x1c(%ebp),%edi
c0104fa3:	89 d8                	mov    %ebx,%eax
c0104fa5:	e9 03 ff ff ff       	jmp    c0104ead <krealloc+0xad>
c0104faa:	8d b6 00 00 00 00    	lea    0x0(%esi),%esi

c0104fb0 <memset>:
c0104fb0:	55                   	push   %ebp
c0104fb1:	89 e5                	mov    %esp,%ebp
c0104fb3:	57                   	push   %edi
c0104fb4:	56                   	push   %esi
c0104fb5:	53                   	push   %ebx
c0104fb6:	83 ec 04             	sub    $0x4,%esp
c0104fb9:	8b 5d 10             	mov    0x10(%ebp),%ebx
c0104fbc:	8b 4d 08             	mov    0x8(%ebp),%ecx
c0104fbf:	8b 45 0c             	mov    0xc(%ebp),%eax
c0104fc2:	85 db                	test   %ebx,%ebx
c0104fc4:	74 63                	je     c0105029 <memset+0x79>
c0104fc6:	88 44 19 ff          	mov    %al,-0x1(%ecx,%ebx,1)
c0104fca:	88 01                	mov    %al,(%ecx)
c0104fcc:	83 fb 02             	cmp    $0x2,%ebx
c0104fcf:	76 58                	jbe    c0105029 <memset+0x79>
c0104fd1:	88 44 19 fe          	mov    %al,-0x2(%ecx,%ebx,1)
c0104fd5:	88 41 01             	mov    %al,0x1(%ecx)
c0104fd8:	88 44 19 fd          	mov    %al,-0x3(%ecx,%ebx,1)
c0104fdc:	88 41 02             	mov    %al,0x2(%ecx)
c0104fdf:	83 fb 06             	cmp    $0x6,%ebx
c0104fe2:	76 45                	jbe    c0105029 <memset+0x79>
c0104fe4:	88 44 19 fc          	mov    %al,-0x4(%ecx,%ebx,1)
c0104fe8:	88 41 03             	mov    %al,0x3(%ecx)
c0104feb:	83 fb 08             	cmp    $0x8,%ebx
c0104fee:	76 39                	jbe    c0105029 <memset+0x79>
c0104ff0:	89 ce                	mov    %ecx,%esi
c0104ff2:	f7 de                	neg    %esi
c0104ff4:	83 e6 03             	and    $0x3,%esi
c0104ff7:	29 f3                	sub    %esi,%ebx
c0104ff9:	8d 14 31             	lea    (%ecx,%esi,1),%edx
c0104ffc:	0f b6 f0             	movzbl %al,%esi
c0104fff:	c1 e0 18             	shl    $0x18,%eax
c0105002:	89 f7                	mov    %esi,%edi
c0105004:	89 5d f0             	mov    %ebx,-0x10(%ebp)
c0105007:	c1 e7 08             	shl    $0x8,%edi
c010500a:	89 fb                	mov    %edi,%ebx
c010500c:	89 f7                	mov    %esi,%edi
c010500e:	c1 e7 10             	shl    $0x10,%edi
c0105011:	09 fb                	or     %edi,%ebx
c0105013:	09 f3                	or     %esi,%ebx
c0105015:	8b 75 f0             	mov    -0x10(%ebp),%esi
c0105018:	09 d8                	or     %ebx,%eax
c010501a:	83 e6 fc             	and    $0xfffffffc,%esi
c010501d:	01 d6                	add    %edx,%esi
c010501f:	90                   	nop
c0105020:	89 02                	mov    %eax,(%edx)
c0105022:	83 c2 04             	add    $0x4,%edx
c0105025:	39 d6                	cmp    %edx,%esi
c0105027:	75 f7                	jne    c0105020 <memset+0x70>
c0105029:	83 c4 04             	add    $0x4,%esp
c010502c:	89 c8                	mov    %ecx,%eax
c010502e:	5b                   	pop    %ebx
c010502f:	5e                   	pop    %esi
c0105030:	5f                   	pop    %edi
c0105031:	5d                   	pop    %ebp
c0105032:	c3                   	ret    
c0105033:	8d b4 26 00 00 00 00 	lea    0x0(%esi,%eiz,1),%esi
c010503a:	8d b6 00 00 00 00    	lea    0x0(%esi),%esi

c0105040 <liballoc_lock>:
c0105040:	80 3d 00 20 11 c0 00 	cmpb   $0x0,0xc0112000
c0105047:	b8 01 00 00 00       	mov    $0x1,%eax
c010504c:	75 09                	jne    c0105057 <liballoc_lock+0x17>
c010504e:	c6 05 00 20 11 c0 01 	movb   $0x1,0xc0112000
c0105055:	31 c0                	xor    %eax,%eax
c0105057:	c3                   	ret    
c0105058:	8d b4 26 00 00 00 00 	lea    0x0(%esi,%eiz,1),%esi
c010505f:	90                   	nop

c0105060 <liballoc_unlock>:
c0105060:	80 3d 00 20 11 c0 00 	cmpb   $0x0,0xc0112000
c0105067:	b8 01 00 00 00       	mov    $0x1,%eax
c010506c:	75 02                	jne    c0105070 <liballoc_unlock+0x10>
c010506e:	c3                   	ret    
c010506f:	90                   	nop
c0105070:	c6 05 00 20 11 c0 00 	movb   $0x0,0xc0112000
c0105077:	31 c0                	xor    %eax,%eax
c0105079:	c3                   	ret    
c010507a:	8d b6 00 00 00 00    	lea    0x0(%esi),%esi

c0105080 <liballoc_alloc>:
c0105080:	e9 fb f2 ff ff       	jmp    c0104380 <page_allocate>
c0105085:	8d b4 26 00 00 00 00 	lea    0x0(%esi,%eiz,1),%esi
c010508c:	8d 74 26 00          	lea    0x0(%esi,%eiz,1),%esi

c0105090 <liballoc_free>:
c0105090:	31 c0                	xor    %eax,%eax
c0105092:	c3                   	ret    
c0105093:	66 90                	xchg   %ax,%ax
c0105095:	66 90                	xchg   %ax,%ax
c0105097:	66 90                	xchg   %ax,%ax
c0105099:	66 90                	xchg   %ax,%ax
c010509b:	66 90                	xchg   %ax,%ax
c010509d:	66 90                	xchg   %ax,%ax
c010509f:	90                   	nop

c01050a0 <load_module_elf_image>:
c01050a0:	55                   	push   %ebp
c01050a1:	89 e5                	mov    %esp,%ebp
c01050a3:	57                   	push   %edi
c01050a4:	56                   	push   %esi
c01050a5:	53                   	push   %ebx
c01050a6:	83 ec 28             	sub    $0x28,%esp
c01050a9:	8b 75 08             	mov    0x8(%ebp),%esi
c01050ac:	6a 30                	push   $0x30
c01050ae:	e8 2d f5 ff ff       	call   c01045e0 <kmalloc>
c01050b3:	c7 04 24 04 00 00 00 	movl   $0x4,(%esp)
c01050ba:	89 c7                	mov    %eax,%edi
c01050bc:	e8 bf f2 ff ff       	call   c0104380 <page_allocate>
c01050c1:	89 47 20             	mov    %eax,0x20(%edi)
c01050c4:	05 00 00 00 60       	add    $0x60000000,%eax
c01050c9:	89 47 18             	mov    %eax,0x18(%edi)
c01050cc:	c7 04 24 01 00 00 00 	movl   $0x1,(%esp)
c01050d3:	e8 a8 f2 ff ff       	call   c0104380 <page_allocate>
c01050d8:	89 47 10             	mov    %eax,0x10(%edi)
c01050db:	8b 47 20             	mov    0x20(%edi),%eax
c01050de:	89 45 e0             	mov    %eax,-0x20(%ebp)
c01050e1:	58                   	pop    %eax
c01050e2:	5a                   	pop    %edx
c01050e3:	56                   	push   %esi
c01050e4:	56                   	push   %esi
c01050e5:	e8 e6 d6 ff ff       	call   c01027d0 <elf_find_rel_plt>
c01050ea:	83 c4 10             	add    $0x10,%esp
c01050ed:	89 45 e4             	mov    %eax,-0x1c(%ebp)
c01050f0:	85 c0                	test   %eax,%eax
c01050f2:	0f 84 c8 00 00 00    	je     c01051c0 <load_module_elf_image+0x120>
c01050f8:	83 ec 04             	sub    $0x4,%esp
c01050fb:	56                   	push   %esi
c01050fc:	ff 75 e0             	push   -0x20(%ebp)
c01050ff:	56                   	push   %esi
c0105100:	e8 5b d6 ff ff       	call   c0102760 <elf_load_program_headers>
c0105105:	58                   	pop    %eax
c0105106:	5a                   	pop    %edx
c0105107:	56                   	push   %esi
c0105108:	56                   	push   %esi
c0105109:	e8 72 d9 ff ff       	call   c0102a80 <elf_find_got_plt>
c010510e:	83 c4 10             	add    $0x10,%esp
c0105111:	8b 55 e4             	mov    -0x1c(%ebp),%edx
c0105114:	85 c0                	test   %eax,%eax
c0105116:	0f 84 54 01 00 00    	je     c0105270 <load_module_elf_image+0x1d0>
c010511c:	8b 46 18             	mov    0x18(%esi),%eax
c010511f:	89 47 28             	mov    %eax,0x28(%edi)
c0105122:	8b 42 14             	mov    0x14(%edx),%eax
c0105125:	c1 e8 03             	shr    $0x3,%eax
c0105128:	74 55                	je     c010517f <load_module_elf_image+0xdf>
c010512a:	89 7d dc             	mov    %edi,-0x24(%ebp)
c010512d:	31 db                	xor    %ebx,%ebx
c010512f:	89 d7                	mov    %edx,%edi
c0105131:	8d b4 26 00 00 00 00 	lea    0x0(%esi,%eiz,1),%esi
c0105138:	8d b4 26 00 00 00 00 	lea    0x0(%esi,%eiz,1),%esi
c010513f:	90                   	nop
c0105140:	8d 04 de             	lea    (%esi,%ebx,8),%eax
c0105143:	03 47 10             	add    0x10(%edi),%eax
c0105146:	8b 4d e0             	mov    -0x20(%ebp),%ecx
c0105149:	83 ec 04             	sub    $0x4,%esp
c010514c:	03 08                	add    (%eax),%ecx
c010514e:	8b 40 04             	mov    0x4(%eax),%eax
c0105151:	83 c3 01             	add    $0x1,%ebx
c0105154:	89 4d e4             	mov    %ecx,-0x1c(%ebp)
c0105157:	c1 e8 08             	shr    $0x8,%eax
c010515a:	50                   	push   %eax
c010515b:	56                   	push   %esi
c010515c:	56                   	push   %esi
c010515d:	e8 fe d9 ff ff       	call   c0102b60 <elf_get_sym_name_from_index>
c0105162:	89 04 24             	mov    %eax,(%esp)
c0105165:	e8 f6 cd ff ff       	call   c0101f60 <kdebug_get_symbol_addr>
c010516a:	8b 4d e4             	mov    -0x1c(%ebp),%ecx
c010516d:	83 c4 10             	add    $0x10,%esp
c0105170:	89 01                	mov    %eax,(%ecx)
c0105172:	8b 47 14             	mov    0x14(%edi),%eax
c0105175:	c1 e8 03             	shr    $0x3,%eax
c0105178:	39 d8                	cmp    %ebx,%eax
c010517a:	77 c4                	ja     c0105140 <load_module_elf_image+0xa0>
c010517c:	8b 7d dc             	mov    -0x24(%ebp),%edi
c010517f:	8b 47 28             	mov    0x28(%edi),%eax
c0105182:	89 47 0c             	mov    %eax,0xc(%edi)
c0105185:	ff 77 2c             	push   0x2c(%edi)
c0105188:	ff 77 28             	push   0x28(%edi)
c010518b:	ff 77 24             	push   0x24(%edi)
c010518e:	ff 77 20             	push   0x20(%edi)
c0105191:	ff 77 1c             	push   0x1c(%edi)
c0105194:	ff 77 18             	push   0x18(%edi)
c0105197:	ff 77 14             	push   0x14(%edi)
c010519a:	ff 77 10             	push   0x10(%edi)
c010519d:	ff 77 0c             	push   0xc(%edi)
c01051a0:	ff 77 08             	push   0x8(%edi)
c01051a3:	ff 77 04             	push   0x4(%edi)
c01051a6:	ff 37                	push   (%edi)
c01051a8:	e8 d3 08 00 00       	call   c0105a80 <add_process>
c01051ad:	8d 65 f4             	lea    -0xc(%ebp),%esp
c01051b0:	5b                   	pop    %ebx
c01051b1:	5e                   	pop    %esi
c01051b2:	5f                   	pop    %edi
c01051b3:	5d                   	pop    %ebp
c01051b4:	c3                   	ret    
c01051b5:	8d b4 26 00 00 00 00 	lea    0x0(%esi,%eiz,1),%esi
c01051bc:	8d 74 26 00          	lea    0x0(%esi,%eiz,1),%esi
c01051c0:	83 ec 0c             	sub    $0xc,%esp
c01051c3:	6a 01                	push   $0x1
c01051c5:	e8 c6 14 00 00       	call   c0106690 <set_debug_output>
c01051ca:	83 c4 0c             	add    $0xc,%esp
c01051cd:	6a 6d                	push   $0x6d
c01051cf:	68 30 74 10 c0       	push   $0xc0107430
c01051d4:	68 c3 74 10 c0       	push   $0xc01074c3
c01051d9:	e8 c2 c5 ff ff       	call   c01017a0 <printf_>
c01051de:	c7 04 24 44 7b 10 c0 	movl   $0xc0107b44,(%esp)
c01051e5:	e8 b6 c5 ff ff       	call   c01017a0 <printf_>
c01051ea:	c7 04 24 00 00 00 00 	movl   $0x0,(%esp)
c01051f1:	e8 9a 14 00 00       	call   c0106690 <set_debug_output>
c01051f6:	83 c4 0c             	add    $0xc,%esp
c01051f9:	56                   	push   %esi
c01051fa:	ff 75 e0             	push   -0x20(%ebp)
c01051fd:	56                   	push   %esi
c01051fe:	e8 5d d5 ff ff       	call   c0102760 <elf_load_program_headers>
c0105203:	59                   	pop    %ecx
c0105204:	5b                   	pop    %ebx
c0105205:	56                   	push   %esi
c0105206:	56                   	push   %esi
c0105207:	e8 74 d8 ff ff       	call   c0102a80 <elf_find_got_plt>
c010520c:	83 c4 10             	add    $0x10,%esp
c010520f:	8b 55 e4             	mov    -0x1c(%ebp),%edx
c0105212:	85 c0                	test   %eax,%eax
c0105214:	0f 84 ce 00 00 00    	je     c01052e8 <load_module_elf_image+0x248>
c010521a:	8b 46 18             	mov    0x18(%esi),%eax
c010521d:	83 ec 0c             	sub    $0xc,%esp
c0105220:	89 55 e4             	mov    %edx,-0x1c(%ebp)
c0105223:	89 47 28             	mov    %eax,0x28(%edi)
c0105226:	6a 01                	push   $0x1
c0105228:	e8 63 14 00 00       	call   c0106690 <set_debug_output>
c010522d:	83 c4 0c             	add    $0xc,%esp
c0105230:	68 8b 00 00 00       	push   $0x8b
c0105235:	68 30 74 10 c0       	push   $0xc0107430
c010523a:	68 c3 74 10 c0       	push   $0xc01074c3
c010523f:	e8 5c c5 ff ff       	call   c01017a0 <printf_>
c0105244:	c7 04 24 70 76 10 c0 	movl   $0xc0107670,(%esp)
c010524b:	e8 50 c5 ff ff       	call   c01017a0 <printf_>
c0105250:	c7 04 24 00 00 00 00 	movl   $0x0,(%esp)
c0105257:	e8 34 14 00 00       	call   c0106690 <set_debug_output>
c010525c:	8b 55 e4             	mov    -0x1c(%ebp),%edx
c010525f:	83 c4 10             	add    $0x10,%esp
c0105262:	e9 bb fe ff ff       	jmp    c0105122 <load_module_elf_image+0x82>
c0105267:	8d b4 26 00 00 00 00 	lea    0x0(%esi,%eiz,1),%esi
c010526e:	66 90                	xchg   %ax,%ax
c0105270:	83 ec 0c             	sub    $0xc,%esp
c0105273:	89 55 e4             	mov    %edx,-0x1c(%ebp)
c0105276:	6a 01                	push   $0x1
c0105278:	e8 13 14 00 00       	call   c0106690 <set_debug_output>
c010527d:	83 c4 0c             	add    $0xc,%esp
c0105280:	68 85 00 00 00       	push   $0x85
c0105285:	68 30 74 10 c0       	push   $0xc0107430
c010528a:	68 c3 74 10 c0       	push   $0xc01074c3
c010528f:	e8 0c c5 ff ff       	call   c01017a0 <printf_>
c0105294:	c7 04 24 68 7b 10 c0 	movl   $0xc0107b68,(%esp)
c010529b:	e8 00 c5 ff ff       	call   c01017a0 <printf_>
c01052a0:	c7 04 24 00 00 00 00 	movl   $0x0,(%esp)
c01052a7:	e8 e4 13 00 00       	call   c0106690 <set_debug_output>
c01052ac:	8b 46 18             	mov    0x18(%esi),%eax
c01052af:	8b 55 e4             	mov    -0x1c(%ebp),%edx
c01052b2:	83 c4 10             	add    $0x10,%esp
c01052b5:	89 47 28             	mov    %eax,0x28(%edi)
c01052b8:	83 ec 0c             	sub    $0xc,%esp
c01052bb:	89 55 e4             	mov    %edx,-0x1c(%ebp)
c01052be:	6a 01                	push   $0x1
c01052c0:	e8 cb 13 00 00       	call   c0106690 <set_debug_output>
c01052c5:	83 c4 0c             	add    $0xc,%esp
c01052c8:	68 8f 00 00 00       	push   $0x8f
c01052cd:	68 30 74 10 c0       	push   $0xc0107430
c01052d2:	68 c3 74 10 c0       	push   $0xc01074c3
c01052d7:	e8 c4 c4 ff ff       	call   c01017a0 <printf_>
c01052dc:	c7 04 24 82 76 10 c0 	movl   $0xc0107682,(%esp)
c01052e3:	e9 63 ff ff ff       	jmp    c010524b <load_module_elf_image+0x1ab>
c01052e8:	83 ec 0c             	sub    $0xc,%esp
c01052eb:	6a 01                	push   $0x1
c01052ed:	e8 9e 13 00 00       	call   c0106690 <set_debug_output>
c01052f2:	83 c4 0c             	add    $0xc,%esp
c01052f5:	68 85 00 00 00       	push   $0x85
c01052fa:	68 30 74 10 c0       	push   $0xc0107430
c01052ff:	68 c3 74 10 c0       	push   $0xc01074c3
c0105304:	e8 97 c4 ff ff       	call   c01017a0 <printf_>
c0105309:	c7 04 24 68 7b 10 c0 	movl   $0xc0107b68,(%esp)
c0105310:	e8 8b c4 ff ff       	call   c01017a0 <printf_>
c0105315:	c7 04 24 00 00 00 00 	movl   $0x0,(%esp)
c010531c:	e8 6f 13 00 00       	call   c0106690 <set_debug_output>
c0105321:	8b 46 18             	mov    0x18(%esi),%eax
c0105324:	89 47 28             	mov    %eax,0x28(%edi)
c0105327:	c7 04 24 01 00 00 00 	movl   $0x1,(%esp)
c010532e:	e8 5d 13 00 00       	call   c0106690 <set_debug_output>
c0105333:	83 c4 0c             	add    $0xc,%esp
c0105336:	68 8b 00 00 00       	push   $0x8b
c010533b:	68 30 74 10 c0       	push   $0xc0107430
c0105340:	68 c3 74 10 c0       	push   $0xc01074c3
c0105345:	e8 56 c4 ff ff       	call   c01017a0 <printf_>
c010534a:	c7 04 24 70 76 10 c0 	movl   $0xc0107670,(%esp)
c0105351:	e8 4a c4 ff ff       	call   c01017a0 <printf_>
c0105356:	c7 04 24 00 00 00 00 	movl   $0x0,(%esp)
c010535d:	e8 2e 13 00 00       	call   c0106690 <set_debug_output>
c0105362:	8b 55 e4             	mov    -0x1c(%ebp),%edx
c0105365:	83 c4 10             	add    $0x10,%esp
c0105368:	e9 4b ff ff ff       	jmp    c01052b8 <load_module_elf_image+0x218>
c010536d:	8d 76 00             	lea    0x0(%esi),%esi

c0105370 <load_module>:
c0105370:	55                   	push   %ebp
c0105371:	89 e5                	mov    %esp,%ebp
c0105373:	8b 45 08             	mov    0x8(%ebp),%eax
c0105376:	8b 00                	mov    (%eax),%eax
c0105378:	89 45 08             	mov    %eax,0x8(%ebp)
c010537b:	5d                   	pop    %ebp
c010537c:	e9 1f fd ff ff       	jmp    c01050a0 <load_module_elf_image>
c0105381:	8d b4 26 00 00 00 00 	lea    0x0(%esi,%eiz,1),%esi
c0105388:	8d b4 26 00 00 00 00 	lea    0x0(%esi,%eiz,1),%esi
c010538f:	90                   	nop

c0105390 <modules_initalize>:
c0105390:	55                   	push   %ebp
c0105391:	89 e5                	mov    %esp,%ebp
c0105393:	57                   	push   %edi
c0105394:	56                   	push   %esi
c0105395:	53                   	push   %ebx
c0105396:	8d 5d b6             	lea    -0x4a(%ebp),%ebx
c0105399:	83 ec 4c             	sub    $0x4c,%esp
c010539c:	e8 0f cb ff ff       	call   c0101eb0 <kdebug_get_symbol_array>
c01053a1:	83 ec 0c             	sub    $0xc,%esp
c01053a4:	68 e8 03 00 00       	push   $0x3e8
c01053a9:	89 c6                	mov    %eax,%esi
c01053ab:	8d 7e 04             	lea    0x4(%esi),%edi
c01053ae:	81 c6 04 30 00 00    	add    $0x3004,%esi
c01053b4:	e8 27 f2 ff ff       	call   c01045e0 <kmalloc>
c01053b9:	83 c4 10             	add    $0x10,%esp
c01053bc:	a3 30 60 11 c0       	mov    %eax,0xc0116030
c01053c1:	8d b4 26 00 00 00 00 	lea    0x0(%esi,%eiz,1),%esi
c01053c8:	8d b4 26 00 00 00 00 	lea    0x0(%esi,%eiz,1),%esi
c01053cf:	90                   	nop
c01053d0:	8b 47 fc             	mov    -0x4(%edi),%eax
c01053d3:	80 38 00             	cmpb   $0x0,(%eax)
c01053d6:	0f 84 24 01 00 00    	je     c0105500 <modules_initalize+0x170>
c01053dc:	83 ec 08             	sub    $0x8,%esp
c01053df:	50                   	push   %eax
c01053e0:	53                   	push   %ebx
c01053e1:	e8 ea c8 ff ff       	call   c0101cd0 <strcpy>
c01053e6:	59                   	pop    %ecx
c01053e7:	58                   	pop    %eax
c01053e8:	68 9b 76 10 c0       	push   $0xc010769b
c01053ed:	53                   	push   %ebx
c01053ee:	e8 7d 0c 00 00       	call   c0106070 <strstr>
c01053f3:	83 c4 10             	add    $0x10,%esp
c01053f6:	85 c0                	test   %eax,%eax
c01053f8:	0f 84 02 01 00 00    	je     c0105500 <modules_initalize+0x170>
c01053fe:	83 ec 08             	sub    $0x8,%esp
c0105401:	68 93 76 10 c0       	push   $0xc0107693
c0105406:	53                   	push   %ebx
c0105407:	e8 64 0c 00 00       	call   c0106070 <strstr>
c010540c:	83 c4 10             	add    $0x10,%esp
c010540f:	85 c0                	test   %eax,%eax
c0105411:	0f 84 e9 00 00 00    	je     c0105500 <modules_initalize+0x170>
c0105417:	83 ec 08             	sub    $0x8,%esp
c010541a:	c6 00 00             	movb   $0x0,(%eax)
c010541d:	8d 45 bf             	lea    -0x41(%ebp),%eax
c0105420:	50                   	push   %eax
c0105421:	a1 34 60 11 c0       	mov    0xc0116034,%eax
c0105426:	8d 0c 80             	lea    (%eax,%eax,4),%ecx
c0105429:	a1 30 60 11 c0       	mov    0xc0116030,%eax
c010542e:	8d 44 c8 08          	lea    0x8(%eax,%ecx,8),%eax
c0105432:	50                   	push   %eax
c0105433:	e8 98 c8 ff ff       	call   c0101cd0 <strcpy>
c0105438:	a1 34 60 11 c0       	mov    0xc0116034,%eax
c010543d:	8b 15 30 60 11 c0    	mov    0xc0116030,%edx
c0105443:	8b 0f                	mov    (%edi),%ecx
c0105445:	8d 04 80             	lea    (%eax,%eax,4),%eax
c0105448:	8d 04 c2             	lea    (%edx,%eax,8),%eax
c010544b:	89 08                	mov    %ecx,(%eax)
c010544d:	59                   	pop    %ecx
c010544e:	58                   	pop    %eax
c010544f:	8d 45 cf             	lea    -0x31(%ebp),%eax
c0105452:	68 9a 76 10 c0       	push   $0xc010769a
c0105457:	50                   	push   %eax
c0105458:	e8 73 c8 ff ff       	call   c0101cd0 <strcpy>
c010545d:	58                   	pop    %eax
c010545e:	8d 45 bf             	lea    -0x41(%ebp),%eax
c0105461:	5a                   	pop    %edx
c0105462:	50                   	push   %eax
c0105463:	8d 45 cf             	lea    -0x31(%ebp),%eax
c0105466:	50                   	push   %eax
c0105467:	e8 b4 0b 00 00       	call   c0106020 <strcat>
c010546c:	59                   	pop    %ecx
c010546d:	58                   	pop    %eax
c010546e:	8d 45 cf             	lea    -0x31(%ebp),%eax
c0105471:	68 a4 76 10 c0       	push   $0xc01076a4
c0105476:	50                   	push   %eax
c0105477:	e8 a4 0b 00 00       	call   c0106020 <strcat>
c010547c:	8d 45 cf             	lea    -0x31(%ebp),%eax
c010547f:	89 04 24             	mov    %eax,(%esp)
c0105482:	e8 89 ca ff ff       	call   c0101f10 <kdebug_get_symbol>
c0105487:	8b 15 30 60 11 c0    	mov    0xc0116030,%edx
c010548d:	89 c1                	mov    %eax,%ecx
c010548f:	a1 34 60 11 c0       	mov    0xc0116034,%eax
c0105494:	8b 49 04             	mov    0x4(%ecx),%ecx
c0105497:	2b 0f                	sub    (%edi),%ecx
c0105499:	8d 04 80             	lea    (%eax,%eax,4),%eax
c010549c:	8d 04 c2             	lea    (%edx,%eax,8),%eax
c010549f:	89 48 04             	mov    %ecx,0x4(%eax)
c01054a2:	c7 04 24 01 00 00 00 	movl   $0x1,(%esp)
c01054a9:	e8 e2 11 00 00       	call   c0106690 <set_debug_output>
c01054ae:	83 c4 0c             	add    $0xc,%esp
c01054b1:	6a 33                	push   $0x33
c01054b3:	68 48 74 10 c0       	push   $0xc0107448
c01054b8:	68 c3 74 10 c0       	push   $0xc01074c3
c01054bd:	e8 de c2 ff ff       	call   c01017a0 <printf_>
c01054c2:	a1 34 60 11 c0       	mov    0xc0116034,%eax
c01054c7:	8d 0c 80             	lea    (%eax,%eax,4),%ecx
c01054ca:	a1 30 60 11 c0       	mov    0xc0116030,%eax
c01054cf:	8d 04 c8             	lea    (%eax,%ecx,8),%eax
c01054d2:	ff 70 04             	push   0x4(%eax)
c01054d5:	83 c0 08             	add    $0x8,%eax
c01054d8:	ff 70 f8             	push   -0x8(%eax)
c01054db:	50                   	push   %eax
c01054dc:	68 8c 7b 10 c0       	push   $0xc0107b8c
c01054e1:	e8 ba c2 ff ff       	call   c01017a0 <printf_>
c01054e6:	83 c4 14             	add    $0x14,%esp
c01054e9:	6a 00                	push   $0x0
c01054eb:	e8 a0 11 00 00       	call   c0106690 <set_debug_output>
c01054f0:	83 05 34 60 11 c0 01 	addl   $0x1,0xc0116034
c01054f7:	83 c4 10             	add    $0x10,%esp
c01054fa:	8d b6 00 00 00 00    	lea    0x0(%esi),%esi
c0105500:	83 c7 0c             	add    $0xc,%edi
c0105503:	39 fe                	cmp    %edi,%esi
c0105505:	0f 85 c5 fe ff ff    	jne    c01053d0 <modules_initalize+0x40>
c010550b:	8b 0d 34 60 11 c0    	mov    0xc0116034,%ecx
c0105511:	85 c9                	test   %ecx,%ecx
c0105513:	74 2f                	je     c0105544 <modules_initalize+0x1b4>
c0105515:	31 db                	xor    %ebx,%ebx
c0105517:	8d b4 26 00 00 00 00 	lea    0x0(%esi,%eiz,1),%esi
c010551e:	66 90                	xchg   %ax,%ax
c0105520:	8b 15 30 60 11 c0    	mov    0xc0116030,%edx
c0105526:	8d 04 9b             	lea    (%ebx,%ebx,4),%eax
c0105529:	83 ec 0c             	sub    $0xc,%esp
c010552c:	83 c3 01             	add    $0x1,%ebx
c010552f:	8d 04 c2             	lea    (%edx,%eax,8),%eax
c0105532:	ff 30                	push   (%eax)
c0105534:	e8 67 fb ff ff       	call   c01050a0 <load_module_elf_image>
c0105539:	83 c4 10             	add    $0x10,%esp
c010553c:	39 1d 34 60 11 c0    	cmp    %ebx,0xc0116034
c0105542:	77 dc                	ja     c0105520 <modules_initalize+0x190>
c0105544:	8d 65 f4             	lea    -0xc(%ebp),%esp
c0105547:	5b                   	pop    %ebx
c0105548:	5e                   	pop    %esi
c0105549:	5f                   	pop    %edi
c010554a:	5d                   	pop    %ebp
c010554b:	c3                   	ret    
c010554c:	66 90                	xchg   %ax,%ax
c010554e:	66 90                	xchg   %ax,%ax

c0105550 <multiboot_initalize>:
c0105550:	55                   	push   %ebp
c0105551:	89 e5                	mov    %esp,%ebp
c0105553:	83 ec 0c             	sub    $0xc,%esp
c0105556:	6a 78                	push   $0x78
c0105558:	8b 45 08             	mov    0x8(%ebp),%eax
c010555b:	ff 75 0c             	push   0xc(%ebp)
c010555e:	68 60 60 11 c0       	push   $0xc0116060
c0105563:	a3 40 60 11 c0       	mov    %eax,0xc0116040
c0105568:	e8 33 c7 ff ff       	call   c0101ca0 <memcpy>
c010556d:	81 2d 70 60 11 c0 00 	subl   $0x40000000,0xc0116070
c0105574:	00 00 40 
c0105577:	81 2d 78 60 11 c0 00 	subl   $0x40000000,0xc0116078
c010557e:	00 00 40 
c0105581:	81 2d 84 60 11 c0 00 	subl   $0x40000000,0xc0116084
c0105588:	00 00 40 
c010558b:	81 2d 90 60 11 c0 00 	subl   $0x40000000,0xc0116090
c0105592:	00 00 40 
c0105595:	81 2d 98 60 11 c0 00 	subl   $0x40000000,0xc0116098
c010559c:	00 00 40 
c010559f:	81 2d a0 60 11 c0 00 	subl   $0x40000000,0xc01160a0
c01055a6:	00 00 40 
c01055a9:	81 05 b8 60 11 c0 00 	addl   $0xc0000000,0xc01160b8
c01055b0:	00 00 c0 
c01055b3:	83 15 bc 60 11 c0 00 	adcl   $0x0,0xc01160bc
c01055ba:	83 c4 10             	add    $0x10,%esp
c01055bd:	c9                   	leave  
c01055be:	c3                   	ret    
c01055bf:	90                   	nop

c01055c0 <get_multiboot_header>:
c01055c0:	b8 60 60 11 c0       	mov    $0xc0116060,%eax
c01055c5:	c3                   	ret    
c01055c6:	8d b4 26 00 00 00 00 	lea    0x0(%esi,%eiz,1),%esi
c01055cd:	8d 76 00             	lea    0x0(%esi),%esi

c01055d0 <multiboot_echo_to_serial>:
c01055d0:	c3                   	ret    
c01055d1:	66 90                	xchg   %ax,%ax
c01055d3:	66 90                	xchg   %ax,%ax
c01055d5:	66 90                	xchg   %ax,%ax
c01055d7:	66 90                	xchg   %ax,%ax
c01055d9:	66 90                	xchg   %ax,%ax
c01055db:	66 90                	xchg   %ax,%ax
c01055dd:	66 90                	xchg   %ax,%ax
c01055df:	90                   	nop

c01055e0 <pci_initalize>:
c01055e0:	55                   	push   %ebp
c01055e1:	89 e5                	mov    %esp,%ebp
c01055e3:	57                   	push   %edi
c01055e4:	56                   	push   %esi
c01055e5:	53                   	push   %ebx
c01055e6:	bb f8 0c 00 00       	mov    $0xcf8,%ebx
c01055eb:	83 ec 38             	sub    $0x38,%esp
c01055ee:	6a 01                	push   $0x1
c01055f0:	e8 9b 10 00 00       	call   c0106690 <set_debug_output>
c01055f5:	83 c4 0c             	add    $0xc,%esp
c01055f8:	6a 0a                	push   $0xa
c01055fa:	68 5c 74 10 c0       	push   $0xc010745c
c01055ff:	68 c3 74 10 c0       	push   $0xc01074c3
c0105604:	e8 97 c1 ff ff       	call   c01017a0 <printf_>
c0105609:	c7 04 24 e0 74 10 c0 	movl   $0xc01074e0,(%esp)
c0105610:	e8 8b c1 ff ff       	call   c01017a0 <printf_>
c0105615:	c7 04 24 00 00 00 00 	movl   $0x0,(%esp)
c010561c:	e8 6f 10 00 00       	call   c0106690 <set_debug_output>
c0105621:	c7 45 d4 00 00 00 00 	movl   $0x0,-0x2c(%ebp)
c0105628:	83 c4 10             	add    $0x10,%esp
c010562b:	31 c9                	xor    %ecx,%ecx
c010562d:	c7 05 e0 60 11 c0 00 	movl   $0x0,0xc01160e0
c0105634:	00 00 00 
c0105637:	c7 45 d8 00 00 00 00 	movl   $0x0,-0x28(%ebp)
c010563e:	c7 45 e0 00 00 00 00 	movl   $0x0,-0x20(%ebp)
c0105645:	8d b4 26 00 00 00 00 	lea    0x0(%esi,%eiz,1),%esi
c010564c:	8d 74 26 00          	lea    0x0(%esi,%eiz,1),%esi
c0105650:	8b 45 d4             	mov    -0x2c(%ebp),%eax
c0105653:	0b 45 e0             	or     -0x20(%ebp),%eax
c0105656:	89 da                	mov    %ebx,%edx
c0105658:	89 45 e4             	mov    %eax,-0x1c(%ebp)
c010565b:	0d 00 00 00 80       	or     $0x80000000,%eax
c0105660:	ef                   	out    %eax,(%dx)
c0105661:	ba fc 0c 00 00       	mov    $0xcfc,%edx
c0105666:	ed                   	in     (%dx),%eax
c0105667:	66 83 f8 ff          	cmp    $0xffff,%ax
c010566b:	74 4a                	je     c01056b7 <pci_initalize+0xd7>
c010566d:	8b 75 d8             	mov    -0x28(%ebp),%esi
c0105670:	31 c9                	xor    %ecx,%ecx
c0105672:	bf fc 0c 00 00       	mov    $0xcfc,%edi
c0105677:	c1 e6 06             	shl    $0x6,%esi
c010567a:	81 c6 00 61 11 c0    	add    $0xc0116100,%esi
c0105680:	8b 45 e4             	mov    -0x1c(%ebp),%eax
c0105683:	89 da                	mov    %ebx,%edx
c0105685:	09 c8                	or     %ecx,%eax
c0105687:	0d 00 00 00 80       	or     $0x80000000,%eax
c010568c:	ef                   	out    %eax,(%dx)
c010568d:	89 fa                	mov    %edi,%edx
c010568f:	ed                   	in     (%dx),%eax
c0105690:	89 04 0e             	mov    %eax,(%esi,%ecx,1)
c0105693:	83 c1 04             	add    $0x4,%ecx
c0105696:	83 f9 3c             	cmp    $0x3c,%ecx
c0105699:	75 e5                	jne    c0105680 <pci_initalize+0xa0>
c010569b:	8b 7d d8             	mov    -0x28(%ebp),%edi
c010569e:	b9 01 00 00 00       	mov    $0x1,%ecx
c01056a3:	89 f8                	mov    %edi,%eax
c01056a5:	83 c7 01             	add    $0x1,%edi
c01056a8:	c1 e0 06             	shl    $0x6,%eax
c01056ab:	89 7d d8             	mov    %edi,-0x28(%ebp)
c01056ae:	80 b8 0e 61 11 c0 80 	cmpb   $0x80,-0x3fee9ef2(%eax)
c01056b5:	74 73                	je     c010572a <pci_initalize+0x14a>
c01056b7:	81 45 e0 00 08 00 00 	addl   $0x800,-0x20(%ebp)
c01056be:	8b 45 e0             	mov    -0x20(%ebp),%eax
c01056c1:	3d 00 00 01 00       	cmp    $0x10000,%eax
c01056c6:	75 88                	jne    c0105650 <pci_initalize+0x70>
c01056c8:	81 45 d4 00 00 01 00 	addl   $0x10000,-0x2c(%ebp)
c01056cf:	8b 45 d4             	mov    -0x2c(%ebp),%eax
c01056d2:	3d 00 00 ff 00       	cmp    $0xff0000,%eax
c01056d7:	0f 85 61 ff ff ff    	jne    c010563e <pci_initalize+0x5e>
c01056dd:	84 c9                	test   %cl,%cl
c01056df:	74 08                	je     c01056e9 <pci_initalize+0x109>
c01056e1:	8b 45 d8             	mov    -0x28(%ebp),%eax
c01056e4:	a3 e0 60 11 c0       	mov    %eax,0xc01160e0
c01056e9:	83 ec 0c             	sub    $0xc,%esp
c01056ec:	6a 01                	push   $0x1
c01056ee:	e8 9d 0f 00 00       	call   c0106690 <set_debug_output>
c01056f3:	83 c4 0c             	add    $0xc,%esp
c01056f6:	6a 3b                	push   $0x3b
c01056f8:	68 5c 74 10 c0       	push   $0xc010745c
c01056fd:	68 c3 74 10 c0       	push   $0xc01074c3
c0105702:	e8 99 c0 ff ff       	call   c01017a0 <printf_>
c0105707:	c7 04 24 e7 74 10 c0 	movl   $0xc01074e7,(%esp)
c010570e:	e8 8d c0 ff ff       	call   c01017a0 <printf_>
c0105713:	c7 04 24 00 00 00 00 	movl   $0x0,(%esp)
c010571a:	e8 71 0f 00 00       	call   c0106690 <set_debug_output>
c010571f:	83 c4 10             	add    $0x10,%esp
c0105722:	8d 65 f4             	lea    -0xc(%ebp),%esp
c0105725:	5b                   	pop    %ebx
c0105726:	5e                   	pop    %esi
c0105727:	5f                   	pop    %edi
c0105728:	5d                   	pop    %ebp
c0105729:	c3                   	ret    
c010572a:	c7 45 dc 00 01 00 00 	movl   $0x100,-0x24(%ebp)
c0105731:	8d b4 26 00 00 00 00 	lea    0x0(%esi,%eiz,1),%esi
c0105738:	8d b4 26 00 00 00 00 	lea    0x0(%esi,%eiz,1),%esi
c010573f:	90                   	nop
c0105740:	8b 75 dc             	mov    -0x24(%ebp),%esi
c0105743:	0b 75 e4             	or     -0x1c(%ebp),%esi
c0105746:	89 da                	mov    %ebx,%edx
c0105748:	89 f0                	mov    %esi,%eax
c010574a:	0d 00 00 00 80       	or     $0x80000000,%eax
c010574f:	ef                   	out    %eax,(%dx)
c0105750:	ba fc 0c 00 00       	mov    $0xcfc,%edx
c0105755:	ed                   	in     (%dx),%eax
c0105756:	66 83 f8 ff          	cmp    $0xffff,%ax
c010575a:	74 35                	je     c0105791 <pci_initalize+0x1b1>
c010575c:	8b 7d d8             	mov    -0x28(%ebp),%edi
c010575f:	31 c9                	xor    %ecx,%ecx
c0105761:	c1 e7 06             	shl    $0x6,%edi
c0105764:	81 c7 00 61 11 c0    	add    $0xc0116100,%edi
c010576a:	8d b6 00 00 00 00    	lea    0x0(%esi),%esi
c0105770:	89 c8                	mov    %ecx,%eax
c0105772:	89 da                	mov    %ebx,%edx
c0105774:	09 f0                	or     %esi,%eax
c0105776:	0d 00 00 00 80       	or     $0x80000000,%eax
c010577b:	ef                   	out    %eax,(%dx)
c010577c:	ba fc 0c 00 00       	mov    $0xcfc,%edx
c0105781:	ed                   	in     (%dx),%eax
c0105782:	89 04 0f             	mov    %eax,(%edi,%ecx,1)
c0105785:	83 c1 04             	add    $0x4,%ecx
c0105788:	83 f9 3c             	cmp    $0x3c,%ecx
c010578b:	75 e3                	jne    c0105770 <pci_initalize+0x190>
c010578d:	83 45 d8 01          	addl   $0x1,-0x28(%ebp)
c0105791:	81 45 dc 00 01 00 00 	addl   $0x100,-0x24(%ebp)
c0105798:	8b 45 dc             	mov    -0x24(%ebp),%eax
c010579b:	3d 00 08 00 00       	cmp    $0x800,%eax
c01057a0:	75 9e                	jne    c0105740 <pci_initalize+0x160>
c01057a2:	b9 01 00 00 00       	mov    $0x1,%ecx
c01057a7:	e9 0b ff ff ff       	jmp    c01056b7 <pci_initalize+0xd7>
c01057ac:	8d 74 26 00          	lea    0x0(%esi,%eiz,1),%esi

c01057b0 <pci_config_read>:
c01057b0:	55                   	push   %ebp
c01057b1:	89 e5                	mov    %esp,%ebp
c01057b3:	8b 4d 14             	mov    0x14(%ebp),%ecx
c01057b6:	0f b6 45 08          	movzbl 0x8(%ebp),%eax
c01057ba:	89 ca                	mov    %ecx,%edx
c01057bc:	c1 e0 10             	shl    $0x10,%eax
c01057bf:	81 e2 fc 00 00 00    	and    $0xfc,%edx
c01057c5:	09 d0                	or     %edx,%eax
c01057c7:	0f b6 55 10          	movzbl 0x10(%ebp),%edx
c01057cb:	c1 e2 08             	shl    $0x8,%edx
c01057ce:	09 d0                	or     %edx,%eax
c01057d0:	0f b6 55 0c          	movzbl 0xc(%ebp),%edx
c01057d4:	c1 e2 0b             	shl    $0xb,%edx
c01057d7:	09 d0                	or     %edx,%eax
c01057d9:	ba f8 0c 00 00       	mov    $0xcf8,%edx
c01057de:	0d 00 00 00 80       	or     $0x80000000,%eax
c01057e3:	ef                   	out    %eax,(%dx)
c01057e4:	ba fc 0c 00 00       	mov    $0xcfc,%edx
c01057e9:	ed                   	in     (%dx),%eax
c01057ea:	83 e1 03             	and    $0x3,%ecx
c01057ed:	5d                   	pop    %ebp
c01057ee:	c1 e1 03             	shl    $0x3,%ecx
c01057f1:	d3 e8                	shr    %cl,%eax
c01057f3:	c3                   	ret    
c01057f4:	8d b4 26 00 00 00 00 	lea    0x0(%esi,%eiz,1),%esi
c01057fb:	8d 74 26 00          	lea    0x0(%esi,%eiz,1),%esi
c01057ff:	90                   	nop

c0105800 <pci_read_header>:
c0105800:	55                   	push   %ebp
c0105801:	31 c9                	xor    %ecx,%ecx
c0105803:	89 e5                	mov    %esp,%ebp
c0105805:	57                   	push   %edi
c0105806:	56                   	push   %esi
c0105807:	53                   	push   %ebx
c0105808:	83 ec 04             	sub    $0x4,%esp
c010580b:	0f b6 45 10          	movzbl 0x10(%ebp),%eax
c010580f:	0f b6 5d 0c          	movzbl 0xc(%ebp),%ebx
c0105813:	8b 75 08             	mov    0x8(%ebp),%esi
c0105816:	c1 e0 0b             	shl    $0xb,%eax
c0105819:	c1 e3 10             	shl    $0x10,%ebx
c010581c:	89 c7                	mov    %eax,%edi
c010581e:	0f b6 45 14          	movzbl 0x14(%ebp),%eax
c0105822:	c1 e0 08             	shl    $0x8,%eax
c0105825:	89 45 f0             	mov    %eax,-0x10(%ebp)
c0105828:	8d b4 26 00 00 00 00 	lea    0x0(%esi,%eiz,1),%esi
c010582f:	90                   	nop
c0105830:	8b 45 f0             	mov    -0x10(%ebp),%eax
c0105833:	ba f8 0c 00 00       	mov    $0xcf8,%edx
c0105838:	09 c8                	or     %ecx,%eax
c010583a:	09 f8                	or     %edi,%eax
c010583c:	09 d8                	or     %ebx,%eax
c010583e:	0d 00 00 00 80       	or     $0x80000000,%eax
c0105843:	ef                   	out    %eax,(%dx)
c0105844:	ba fc 0c 00 00       	mov    $0xcfc,%edx
c0105849:	ed                   	in     (%dx),%eax
c010584a:	89 04 0e             	mov    %eax,(%esi,%ecx,1)
c010584d:	83 c1 04             	add    $0x4,%ecx
c0105850:	83 f9 3c             	cmp    $0x3c,%ecx
c0105853:	75 db                	jne    c0105830 <pci_read_header+0x30>
c0105855:	83 c4 04             	add    $0x4,%esp
c0105858:	5b                   	pop    %ebx
c0105859:	5e                   	pop    %esi
c010585a:	5f                   	pop    %edi
c010585b:	5d                   	pop    %ebp
c010585c:	c3                   	ret    
c010585d:	8d 76 00             	lea    0x0(%esi),%esi

c0105860 <pci_get_header_by_device_id>:
c0105860:	55                   	push   %ebp
c0105861:	31 c0                	xor    %eax,%eax
c0105863:	89 e5                	mov    %esp,%ebp
c0105865:	57                   	push   %edi
c0105866:	56                   	push   %esi
c0105867:	53                   	push   %ebx
c0105868:	83 ec 04             	sub    $0x4,%esp
c010586b:	8b 3d e0 60 11 c0    	mov    0xc01160e0,%edi
c0105871:	8b 5d 08             	mov    0x8(%ebp),%ebx
c0105874:	85 ff                	test   %edi,%edi
c0105876:	74 4e                	je     c01058c6 <pci_get_header_by_device_id+0x66>
c0105878:	8d 4f 01             	lea    0x1(%edi),%ecx
c010587b:	31 f6                	xor    %esi,%esi
c010587d:	89 4d f0             	mov    %ecx,-0x10(%ebp)
c0105880:	eb 10                	jmp    c0105892 <pci_get_header_by_device_id+0x32>
c0105882:	8d b4 26 00 00 00 00 	lea    0x0(%esi,%eiz,1),%esi
c0105889:	8d b4 26 00 00 00 00 	lea    0x0(%esi,%eiz,1),%esi
c0105890:	89 d0                	mov    %edx,%eax
c0105892:	89 c2                	mov    %eax,%edx
c0105894:	c1 e2 06             	shl    $0x6,%edx
c0105897:	0f b7 8a 02 61 11 c0 	movzwl -0x3fee9efe(%edx),%ecx
c010589e:	89 c2                	mov    %eax,%edx
c01058a0:	39 d9                	cmp    %ebx,%ecx
c01058a2:	0f 44 55 f0          	cmove  -0x10(%ebp),%edx
c01058a6:	b9 01 00 00 00       	mov    $0x1,%ecx
c01058ab:	0f 44 f1             	cmove  %ecx,%esi
c01058ae:	83 c2 01             	add    $0x1,%edx
c01058b1:	39 fa                	cmp    %edi,%edx
c01058b3:	72 db                	jb     c0105890 <pci_get_header_by_device_id+0x30>
c01058b5:	c1 e0 06             	shl    $0x6,%eax
c01058b8:	89 f3                	mov    %esi,%ebx
c01058ba:	31 d2                	xor    %edx,%edx
c01058bc:	05 00 61 11 c0       	add    $0xc0116100,%eax
c01058c1:	84 db                	test   %bl,%bl
c01058c3:	0f 44 c2             	cmove  %edx,%eax
c01058c6:	83 c4 04             	add    $0x4,%esp
c01058c9:	5b                   	pop    %ebx
c01058ca:	5e                   	pop    %esi
c01058cb:	5f                   	pop    %edi
c01058cc:	5d                   	pop    %ebp
c01058cd:	c3                   	ret    
c01058ce:	66 90                	xchg   %ax,%ax

c01058d0 <process_initalize>:
c01058d0:	55                   	push   %ebp
c01058d1:	89 e5                	mov    %esp,%ebp
c01058d3:	83 ec 14             	sub    $0x14,%esp
c01058d6:	6a 01                	push   $0x1
c01058d8:	e8 b3 0d 00 00       	call   c0106690 <set_debug_output>
c01058dd:	83 c4 0c             	add    $0xc,%esp
c01058e0:	6a 0f                	push   $0xf
c01058e2:	68 80 74 10 c0       	push   $0xc0107480
c01058e7:	68 c3 74 10 c0       	push   $0xc01074c3
c01058ec:	e8 af be ff ff       	call   c01017a0 <printf_>
c01058f1:	c7 04 24 e0 74 10 c0 	movl   $0xc01074e0,(%esp)
c01058f8:	e8 a3 be ff ff       	call   c01017a0 <printf_>
c01058fd:	c7 04 24 00 00 00 00 	movl   $0x0,(%esp)
c0105904:	e8 87 0d 00 00       	call   c0106690 <set_debug_output>
c0105909:	c7 04 24 01 00 00 00 	movl   $0x1,(%esp)
c0105910:	e8 7b 0d 00 00       	call   c0106690 <set_debug_output>
c0105915:	83 c4 0c             	add    $0xc,%esp
c0105918:	6a 14                	push   $0x14
c010591a:	68 80 74 10 c0       	push   $0xc0107480
c010591f:	68 c3 74 10 c0       	push   $0xc01074c3
c0105924:	e8 77 be ff ff       	call   c01017a0 <printf_>
c0105929:	c7 04 24 a9 76 10 c0 	movl   $0xc01076a9,(%esp)
c0105930:	e8 6b be ff ff       	call   c01017a0 <printf_>
c0105935:	c7 04 24 00 00 00 00 	movl   $0x0,(%esp)
c010593c:	e8 4f 0d 00 00       	call   c0106690 <set_debug_output>
c0105941:	b8 c0 64 11 c0       	mov    $0xc01164c0,%eax
c0105946:	83 c4 10             	add    $0x10,%esp
c0105949:	8d b4 26 00 00 00 00 	lea    0x0(%esi,%eiz,1),%esi
c0105950:	c6 00 00             	movb   $0x0,(%eax)
c0105953:	83 c0 30             	add    $0x30,%eax
c0105956:	3d c0 94 11 c0       	cmp    $0xc01194c0,%eax
c010595b:	75 f3                	jne    c0105950 <process_initalize+0x80>
c010595d:	83 ec 0c             	sub    $0xc,%esp
c0105960:	c6 05 c0 64 11 c0 01 	movb   $0x1,0xc01164c0
c0105967:	6a 01                	push   $0x1
c0105969:	c7 05 c8 64 11 c0 01 	movl   $0x1,0xc01164c8
c0105970:	00 00 00 
c0105973:	c7 05 c4 64 11 c0 00 	movl   $0x0,0xc01164c4
c010597a:	00 00 00 
c010597d:	c7 05 d8 64 11 c0 00 	movl   $0x104200,0xc01164d8
c0105984:	42 10 00 
c0105987:	c7 05 e0 64 11 c0 00 	movl   $0xc0104200,0xc01164e0
c010598e:	42 10 c0 
c0105991:	c7 05 dc 64 11 c0 00 	movl   $0x6400000,0xc01164dc
c0105998:	00 40 06 
c010599b:	c7 05 e4 64 11 c0 00 	movl   $0xa0000000,0xc01164e4
c01059a2:	00 00 a0 
c01059a5:	c7 05 c8 94 11 c0 00 	movl   $0x0,0xc01194c8
c01059ac:	00 00 00 
c01059af:	c7 05 c4 94 11 c0 00 	movl   $0x0,0xc01194c4
c01059b6:	00 00 00 
c01059b9:	e8 d2 0c 00 00       	call   c0106690 <set_debug_output>
c01059be:	83 c4 0c             	add    $0xc,%esp
c01059c1:	6a 1f                	push   $0x1f
c01059c3:	68 80 74 10 c0       	push   $0xc0107480
c01059c8:	68 c3 74 10 c0       	push   $0xc01074c3
c01059cd:	e8 ce bd ff ff       	call   c01017a0 <printf_>
c01059d2:	c7 04 24 c3 76 10 c0 	movl   $0xc01076c3,(%esp)
c01059d9:	e8 c2 bd ff ff       	call   c01017a0 <printf_>
c01059de:	c7 04 24 00 00 00 00 	movl   $0x0,(%esp)
c01059e5:	e8 a6 0c 00 00       	call   c0106690 <set_debug_output>
c01059ea:	c7 04 24 01 00 00 00 	movl   $0x1,(%esp)
c01059f1:	e8 9a 0c 00 00       	call   c0106690 <set_debug_output>
c01059f6:	83 c4 0c             	add    $0xc,%esp
c01059f9:	6a 21                	push   $0x21
c01059fb:	68 80 74 10 c0       	push   $0xc0107480
c0105a00:	68 c3 74 10 c0       	push   $0xc01074c3
c0105a05:	e8 96 bd ff ff       	call   c01017a0 <printf_>
c0105a0a:	c7 04 24 e7 74 10 c0 	movl   $0xc01074e7,(%esp)
c0105a11:	e8 8a bd ff ff       	call   c01017a0 <printf_>
c0105a16:	c7 04 24 00 00 00 00 	movl   $0x0,(%esp)
c0105a1d:	e8 6e 0c 00 00       	call   c0106690 <set_debug_output>
c0105a22:	83 c4 10             	add    $0x10,%esp
c0105a25:	c9                   	leave  
c0105a26:	c3                   	ret    
c0105a27:	8d b4 26 00 00 00 00 	lea    0x0(%esi,%eiz,1),%esi
c0105a2e:	66 90                	xchg   %ax,%ax

c0105a30 <setup_kernel_process>:
c0105a30:	c6 05 c0 64 11 c0 01 	movb   $0x1,0xc01164c0
c0105a37:	c7 05 c8 64 11 c0 01 	movl   $0x1,0xc01164c8
c0105a3e:	00 00 00 
c0105a41:	c7 05 c4 64 11 c0 00 	movl   $0x0,0xc01164c4
c0105a48:	00 00 00 
c0105a4b:	c7 05 d8 64 11 c0 00 	movl   $0x104200,0xc01164d8
c0105a52:	42 10 00 
c0105a55:	c7 05 e0 64 11 c0 00 	movl   $0xc0104200,0xc01164e0
c0105a5c:	42 10 c0 
c0105a5f:	c7 05 dc 64 11 c0 00 	movl   $0x6400000,0xc01164dc
c0105a66:	00 40 06 
c0105a69:	c7 05 e4 64 11 c0 00 	movl   $0xa0000000,0xc01164e4
c0105a70:	00 00 a0 
c0105a73:	c3                   	ret    
c0105a74:	8d b4 26 00 00 00 00 	lea    0x0(%esi,%eiz,1),%esi
c0105a7b:	8d 74 26 00          	lea    0x0(%esi,%eiz,1),%esi
c0105a7f:	90                   	nop

c0105a80 <add_process>:
c0105a80:	55                   	push   %ebp
c0105a81:	b8 c0 64 11 c0       	mov    $0xc01164c0,%eax
c0105a86:	89 e5                	mov    %esp,%ebp
c0105a88:	57                   	push   %edi
c0105a89:	56                   	push   %esi
c0105a8a:	53                   	push   %ebx
c0105a8b:	31 db                	xor    %ebx,%ebx
c0105a8d:	83 ec 6c             	sub    $0x6c,%esp
c0105a90:	8b 75 18             	mov    0x18(%ebp),%esi
c0105a93:	8b 55 30             	mov    0x30(%ebp),%edx
c0105a96:	eb 1a                	jmp    c0105ab2 <add_process+0x32>
c0105a98:	8d b4 26 00 00 00 00 	lea    0x0(%esi,%eiz,1),%esi
c0105a9f:	90                   	nop
c0105aa0:	83 c3 01             	add    $0x1,%ebx
c0105aa3:	83 c0 30             	add    $0x30,%eax
c0105aa6:	81 fb 00 01 00 00    	cmp    $0x100,%ebx
c0105aac:	0f 84 3e 01 00 00    	je     c0105bf0 <add_process+0x170>
c0105ab2:	80 38 00             	cmpb   $0x0,(%eax)
c0105ab5:	75 e9                	jne    c0105aa0 <add_process+0x20>
c0105ab7:	89 df                	mov    %ebx,%edi
c0105ab9:	83 ec 04             	sub    $0x4,%esp
c0105abc:	8d 45 9c             	lea    -0x64(%ebp),%eax
c0105abf:	8d 4d cc             	lea    -0x34(%ebp),%ecx
c0105ac2:	89 55 d4             	mov    %edx,-0x2c(%ebp)
c0105ac5:	6a 4c                	push   $0x4c
c0105ac7:	50                   	push   %eax
c0105ac8:	56                   	push   %esi
c0105ac9:	89 55 94             	mov    %edx,-0x6c(%ebp)
c0105acc:	ba 08 00 00 00       	mov    $0x8,%edx
c0105ad1:	89 4d cc             	mov    %ecx,-0x34(%ebp)
c0105ad4:	89 75 b8             	mov    %esi,-0x48(%ebp)
c0105ad7:	66 89 55 d8          	mov    %dx,-0x28(%ebp)
c0105adb:	c7 45 9c 10 00 00 00 	movl   $0x10,-0x64(%ebp)
c0105ae2:	c7 45 a0 10 00 00 00 	movl   $0x10,-0x60(%ebp)
c0105ae9:	c7 45 a4 10 00 00 00 	movl   $0x10,-0x5c(%ebp)
c0105af0:	c7 45 a8 10 00 00 00 	movl   $0x10,-0x58(%ebp)
c0105af7:	c7 45 ac 00 00 00 00 	movl   $0x0,-0x54(%ebp)
c0105afe:	c7 45 b0 00 00 00 00 	movl   $0x0,-0x50(%ebp)
c0105b05:	c7 45 b4 00 00 00 00 	movl   $0x0,-0x4c(%ebp)
c0105b0c:	c7 45 bc 00 00 00 00 	movl   $0x0,-0x44(%ebp)
c0105b13:	c7 45 c0 00 00 00 00 	movl   $0x0,-0x40(%ebp)
c0105b1a:	c7 45 c4 00 00 00 00 	movl   $0x0,-0x3c(%ebp)
c0105b21:	c7 45 c8 00 00 00 00 	movl   $0x0,-0x38(%ebp)
c0105b28:	c7 45 dc 02 02 00 00 	movl   $0x202,-0x24(%ebp)
c0105b2f:	c7 45 e4 10 00 00 00 	movl   $0x10,-0x1c(%ebp)
c0105b36:	e8 65 c1 ff ff       	call   c0101ca0 <memcpy>
c0105b3b:	8d 04 5b             	lea    (%ebx,%ebx,2),%eax
c0105b3e:	8b 55 94             	mov    -0x6c(%ebp),%edx
c0105b41:	c1 e0 04             	shl    $0x4,%eax
c0105b44:	8d 98 c0 64 11 c0    	lea    -0x3fee9b40(%eax),%ebx
c0105b4a:	89 b8 c4 64 11 c0    	mov    %edi,-0x3fee9b3c(%eax)
c0105b50:	c6 80 c0 64 11 c0 01 	movb   $0x1,-0x3fee9b40(%eax)
c0105b57:	c7 80 c8 64 11 c0 00 	movl   $0x0,-0x3fee9b38(%eax)
c0105b5e:	00 00 00 
c0105b61:	8b 45 20             	mov    0x20(%ebp),%eax
c0105b64:	89 53 28             	mov    %edx,0x28(%ebx)
c0105b67:	89 43 18             	mov    %eax,0x18(%ebx)
c0105b6a:	8b 45 28             	mov    0x28(%ebp),%eax
c0105b6d:	89 53 0c             	mov    %edx,0xc(%ebx)
c0105b70:	8b 53 10             	mov    0x10(%ebx),%edx
c0105b73:	89 43 20             	mov    %eax,0x20(%ebx)
c0105b76:	8b 45 24             	mov    0x24(%ebp),%eax
c0105b79:	89 73 14             	mov    %esi,0x14(%ebx)
c0105b7c:	89 43 1c             	mov    %eax,0x1c(%ebx)
c0105b7f:	8b 45 2c             	mov    0x2c(%ebp),%eax
c0105b82:	89 43 24             	mov    %eax,0x24(%ebx)
c0105b85:	8d 44 16 30          	lea    0x30(%esi,%edx,1),%eax
c0105b89:	89 42 30             	mov    %eax,0x30(%edx)
c0105b8c:	89 45 cc             	mov    %eax,-0x34(%ebp)
c0105b8f:	c7 04 24 00 10 00 00 	movl   $0x1000,(%esp)
c0105b96:	e8 45 ea ff ff       	call   c01045e0 <kmalloc>
c0105b9b:	89 43 2c             	mov    %eax,0x2c(%ebx)
c0105b9e:	89 c2                	mov    %eax,%edx
c0105ba0:	8b 43 20             	mov    0x20(%ebx),%eax
c0105ba3:	8b 1a                	mov    (%edx),%ebx
c0105ba5:	8d 88 00 00 40 66    	lea    0x66400000(%eax),%ecx
c0105bab:	05 00 10 40 66       	add    $0x66401000,%eax
c0105bb0:	81 e1 00 f8 ff 7f    	and    $0x7ffff800,%ecx
c0105bb6:	81 e3 fc 07 00 80    	and    $0x800007fc,%ebx
c0105bbc:	25 00 f8 ff 7f       	and    $0x7ffff800,%eax
c0105bc1:	83 c9 03             	or     $0x3,%ecx
c0105bc4:	83 c8 03             	or     $0x3,%eax
c0105bc7:	09 d9                	or     %ebx,%ecx
c0105bc9:	89 0a                	mov    %ecx,(%edx)
c0105bcb:	8b 4a 04             	mov    0x4(%edx),%ecx
c0105bce:	81 e1 fc 07 00 80    	and    $0x800007fc,%ecx
c0105bd4:	09 c8                	or     %ecx,%eax
c0105bd6:	89 42 04             	mov    %eax,0x4(%edx)
c0105bd9:	8d 65 f4             	lea    -0xc(%ebp),%esp
c0105bdc:	89 f8                	mov    %edi,%eax
c0105bde:	5b                   	pop    %ebx
c0105bdf:	5e                   	pop    %esi
c0105be0:	5f                   	pop    %edi
c0105be1:	5d                   	pop    %ebp
c0105be2:	c3                   	ret    
c0105be3:	8d b4 26 00 00 00 00 	lea    0x0(%esi,%eiz,1),%esi
c0105bea:	8d b6 00 00 00 00    	lea    0x0(%esi),%esi
c0105bf0:	bf 00 01 00 00       	mov    $0x100,%edi
c0105bf5:	e9 bf fe ff ff       	jmp    c0105ab9 <add_process+0x39>
c0105bfa:	8d b6 00 00 00 00    	lea    0x0(%esi),%esi

c0105c00 <get_current_process>:
c0105c00:	a1 c8 94 11 c0       	mov    0xc01194c8,%eax
c0105c05:	8d 04 40             	lea    (%eax,%eax,2),%eax
c0105c08:	c1 e0 04             	shl    $0x4,%eax
c0105c0b:	05 c0 64 11 c0       	add    $0xc01164c0,%eax
c0105c10:	c3                   	ret    
c0105c11:	8d b4 26 00 00 00 00 	lea    0x0(%esi,%eiz,1),%esi
c0105c18:	8d b4 26 00 00 00 00 	lea    0x0(%esi,%eiz,1),%esi
c0105c1f:	90                   	nop

c0105c20 <switch_next_process>:
c0105c20:	55                   	push   %ebp
c0105c21:	89 e5                	mov    %esp,%ebp
c0105c23:	83 ec 08             	sub    $0x8,%esp
c0105c26:	a1 c8 94 11 c0       	mov    0xc01194c8,%eax
c0105c2b:	8d 48 01             	lea    0x1(%eax),%ecx
c0105c2e:	81 f9 ff 00 00 00    	cmp    $0xff,%ecx
c0105c34:	7f 5e                	jg     c0105c94 <switch_next_process+0x74>
c0105c36:	8d 14 49             	lea    (%ecx,%ecx,2),%edx
c0105c39:	89 c8                	mov    %ecx,%eax
c0105c3b:	c1 e2 04             	shl    $0x4,%edx
c0105c3e:	81 c2 c0 64 11 c0    	add    $0xc01164c0,%edx
c0105c44:	eb 17                	jmp    c0105c5d <switch_next_process+0x3d>
c0105c46:	8d b4 26 00 00 00 00 	lea    0x0(%esi,%eiz,1),%esi
c0105c4d:	8d 76 00             	lea    0x0(%esi),%esi
c0105c50:	83 c0 01             	add    $0x1,%eax
c0105c53:	83 c2 30             	add    $0x30,%edx
c0105c56:	3d 00 01 00 00       	cmp    $0x100,%eax
c0105c5b:	74 33                	je     c0105c90 <switch_next_process+0x70>
c0105c5d:	80 3a 00             	cmpb   $0x0,(%edx)
c0105c60:	74 ee                	je     c0105c50 <switch_next_process+0x30>
c0105c62:	83 f8 ff             	cmp    $0xffffffff,%eax
c0105c65:	74 29                	je     c0105c90 <switch_next_process+0x70>
c0105c67:	8b 0d c0 94 11 c0    	mov    0xc01194c0,%ecx
c0105c6d:	a3 c8 94 11 c0       	mov    %eax,0xc01194c8
c0105c72:	8d 51 01             	lea    0x1(%ecx),%edx
c0105c75:	89 15 c0 94 11 c0    	mov    %edx,0xc01194c0
c0105c7b:	81 fa a0 86 01 00    	cmp    $0x186a0,%edx
c0105c81:	77 7d                	ja     c0105d00 <switch_next_process+0xe0>
c0105c83:	c9                   	leave  
c0105c84:	8d 04 40             	lea    (%eax,%eax,2),%eax
c0105c87:	c1 e0 04             	shl    $0x4,%eax
c0105c8a:	05 c0 64 11 c0       	add    $0xc01164c0,%eax
c0105c8f:	c3                   	ret    
c0105c90:	85 c9                	test   %ecx,%ecx
c0105c92:	74 1b                	je     c0105caf <switch_next_process+0x8f>
c0105c94:	ba c0 64 11 c0       	mov    $0xc01164c0,%edx
c0105c99:	31 c0                	xor    %eax,%eax
c0105c9b:	8d 74 26 00          	lea    0x0(%esi,%eiz,1),%esi
c0105c9f:	90                   	nop
c0105ca0:	80 3a 00             	cmpb   $0x0,(%edx)
c0105ca3:	75 c2                	jne    c0105c67 <switch_next_process+0x47>
c0105ca5:	83 c0 01             	add    $0x1,%eax
c0105ca8:	83 c2 30             	add    $0x30,%edx
c0105cab:	39 c1                	cmp    %eax,%ecx
c0105cad:	75 f1                	jne    c0105ca0 <switch_next_process+0x80>
c0105caf:	83 ec 0c             	sub    $0xc,%esp
c0105cb2:	6a 01                	push   $0x1
c0105cb4:	e8 d7 09 00 00       	call   c0106690 <set_debug_output>
c0105cb9:	83 c4 0c             	add    $0xc,%esp
c0105cbc:	68 95 00 00 00       	push   $0x95
c0105cc1:	68 6c 74 10 c0       	push   $0xc010746c
c0105cc6:	68 c3 74 10 c0       	push   $0xc01074c3
c0105ccb:	e8 d0 ba ff ff       	call   c01017a0 <printf_>
c0105cd0:	c7 04 24 db 76 10 c0 	movl   $0xc01076db,(%esp)
c0105cd7:	e8 c4 ba ff ff       	call   c01017a0 <printf_>
c0105cdc:	c7 04 24 00 00 00 00 	movl   $0x0,(%esp)
c0105ce3:	e8 a8 09 00 00       	call   c0106690 <set_debug_output>
c0105ce8:	ba f4 00 00 00       	mov    $0xf4,%edx
c0105ced:	31 c0                	xor    %eax,%eax
c0105cef:	ee                   	out    %al,(%dx)
c0105cf0:	b8 ff ff ff ff       	mov    $0xffffffff,%eax
c0105cf5:	83 c4 10             	add    $0x10,%esp
c0105cf8:	e9 6a ff ff ff       	jmp    c0105c67 <switch_next_process+0x47>
c0105cfd:	8d 76 00             	lea    0x0(%esi),%esi
c0105d00:	83 ec 0c             	sub    $0xc,%esp
c0105d03:	6a 01                	push   $0x1
c0105d05:	e8 86 09 00 00       	call   c0106690 <set_debug_output>
c0105d0a:	83 c4 0c             	add    $0xc,%esp
c0105d0d:	68 9e 00 00 00       	push   $0x9e
c0105d12:	68 6c 74 10 c0       	push   $0xc010746c
c0105d17:	68 c3 74 10 c0       	push   $0xc01074c3
c0105d1c:	e8 7f ba ff ff       	call   c01017a0 <printf_>
c0105d21:	c7 04 24 b8 7b 10 c0 	movl   $0xc0107bb8,(%esp)
c0105d28:	e8 73 ba ff ff       	call   c01017a0 <printf_>
c0105d2d:	c7 04 24 00 00 00 00 	movl   $0x0,(%esp)
c0105d34:	e8 57 09 00 00       	call   c0106690 <set_debug_output>
c0105d39:	ba f4 00 00 00       	mov    $0xf4,%edx
c0105d3e:	31 c0                	xor    %eax,%eax
c0105d40:	ee                   	out    %al,(%dx)
c0105d41:	a1 c8 94 11 c0       	mov    0xc01194c8,%eax
c0105d46:	83 c4 10             	add    $0x10,%esp
c0105d49:	c9                   	leave  
c0105d4a:	8d 04 40             	lea    (%eax,%eax,2),%eax
c0105d4d:	c1 e0 04             	shl    $0x4,%eax
c0105d50:	05 c0 64 11 c0       	add    $0xc01164c0,%eax
c0105d55:	c3                   	ret    
c0105d56:	8d b4 26 00 00 00 00 	lea    0x0(%esi,%eiz,1),%esi
c0105d5d:	8d 76 00             	lea    0x0(%esi),%esi

c0105d60 <process_test_a>:
c0105d60:	55                   	push   %ebp
c0105d61:	89 e5                	mov    %esp,%ebp
c0105d63:	83 ec 14             	sub    $0x14,%esp
c0105d66:	6a 01                	push   $0x1
c0105d68:	e8 23 09 00 00       	call   c0106690 <set_debug_output>
c0105d6d:	c7 04 24 a9 74 10 c0 	movl   $0xc01074a9,(%esp)
c0105d74:	e8 27 ba ff ff       	call   c01017a0 <printf_>
c0105d79:	c7 04 24 00 00 00 00 	movl   $0x0,(%esp)
c0105d80:	e8 0b 09 00 00       	call   c0106690 <set_debug_output>
c0105d85:	83 c4 10             	add    $0x10,%esp
c0105d88:	c9                   	leave  
c0105d89:	e9 a2 00 00 00       	jmp    c0105e30 <sched_yield>
c0105d8e:	66 90                	xchg   %ax,%ax

c0105d90 <process_test_b>:
c0105d90:	55                   	push   %ebp
c0105d91:	89 e5                	mov    %esp,%ebp
c0105d93:	83 ec 14             	sub    $0x14,%esp
c0105d96:	6a 01                	push   $0x1
c0105d98:	e8 f3 08 00 00       	call   c0106690 <set_debug_output>
c0105d9d:	c7 04 24 b6 74 10 c0 	movl   $0xc01074b6,(%esp)
c0105da4:	e8 f7 b9 ff ff       	call   c01017a0 <printf_>
c0105da9:	c7 04 24 00 00 00 00 	movl   $0x0,(%esp)
c0105db0:	e8 db 08 00 00       	call   c0106690 <set_debug_output>
c0105db5:	83 c4 10             	add    $0x10,%esp
c0105db8:	c9                   	leave  
c0105db9:	e9 72 00 00 00       	jmp    c0105e30 <sched_yield>
c0105dbe:	66 90                	xchg   %ax,%ax

c0105dc0 <read>:
c0105dc0:	55                   	push   %ebp
c0105dc1:	89 e5                	mov    %esp,%ebp
c0105dc3:	57                   	push   %edi
c0105dc4:	56                   	push   %esi
c0105dc5:	53                   	push   %ebx
c0105dc6:	83 ec 38             	sub    $0x38,%esp
c0105dc9:	8b 7d 08             	mov    0x8(%ebp),%edi
c0105dcc:	8b 75 0c             	mov    0xc(%ebp),%esi
c0105dcf:	6a 01                	push   $0x1
c0105dd1:	8b 5d 10             	mov    0x10(%ebp),%ebx
c0105dd4:	e8 b7 08 00 00       	call   c0106690 <set_debug_output>
c0105dd9:	53                   	push   %ebx
c0105dda:	56                   	push   %esi
c0105ddb:	57                   	push   %edi
c0105ddc:	68 e8 7b 10 c0       	push   $0xc0107be8
c0105de1:	e8 ba b9 ff ff       	call   c01017a0 <printf_>
c0105de6:	83 c4 14             	add    $0x14,%esp
c0105de9:	6a 00                	push   $0x0
c0105deb:	e8 a0 08 00 00       	call   c0106690 <set_debug_output>
c0105df0:	83 c4 0c             	add    $0xc,%esp
c0105df3:	8d 45 d0             	lea    -0x30(%ebp),%eax
c0105df6:	89 7d d0             	mov    %edi,-0x30(%ebp)
c0105df9:	50                   	push   %eax
c0105dfa:	6a 03                	push   $0x3
c0105dfc:	6a 00                	push   $0x0
c0105dfe:	89 75 d4             	mov    %esi,-0x2c(%ebp)
c0105e01:	89 5d d8             	mov    %ebx,-0x28(%ebp)
c0105e04:	e8 67 03 00 00       	call   c0106170 <syscall>
c0105e09:	8d 65 f4             	lea    -0xc(%ebp),%esp
c0105e0c:	5b                   	pop    %ebx
c0105e0d:	5e                   	pop    %esi
c0105e0e:	5f                   	pop    %edi
c0105e0f:	5d                   	pop    %ebp
c0105e10:	c3                   	ret    
c0105e11:	8d b4 26 00 00 00 00 	lea    0x0(%esi,%eiz,1),%esi
c0105e18:	8d b4 26 00 00 00 00 	lea    0x0(%esi,%eiz,1),%esi
c0105e1f:	90                   	nop

c0105e20 <syscall_read>:
c0105e20:	31 c0                	xor    %eax,%eax
c0105e22:	c3                   	ret    
c0105e23:	66 90                	xchg   %ax,%ax
c0105e25:	66 90                	xchg   %ax,%ax
c0105e27:	66 90                	xchg   %ax,%ax
c0105e29:	66 90                	xchg   %ax,%ax
c0105e2b:	66 90                	xchg   %ax,%ax
c0105e2d:	66 90                	xchg   %ax,%ax
c0105e2f:	90                   	nop

c0105e30 <sched_yield>:
c0105e30:	55                   	push   %ebp
c0105e31:	89 e5                	mov    %esp,%ebp
c0105e33:	83 ec 2c             	sub    $0x2c,%esp
c0105e36:	8d 45 e0             	lea    -0x20(%ebp),%eax
c0105e39:	50                   	push   %eax
c0105e3a:	6a 00                	push   $0x0
c0105e3c:	6a 04                	push   $0x4
c0105e3e:	e8 2d 03 00 00       	call   c0106170 <syscall>
c0105e43:	c9                   	leave  
c0105e44:	c3                   	ret    
c0105e45:	8d b4 26 00 00 00 00 	lea    0x0(%esi,%eiz,1),%esi
c0105e4c:	8d 74 26 00          	lea    0x0(%esi,%eiz,1),%esi

c0105e50 <syscall_sched_yield>:
c0105e50:	55                   	push   %ebp
c0105e51:	89 e5                	mov    %esp,%ebp
c0105e53:	56                   	push   %esi
c0105e54:	53                   	push   %ebx
c0105e55:	8b 5d 08             	mov    0x8(%ebp),%ebx
c0105e58:	8b 33                	mov    (%ebx),%esi
c0105e5a:	e8 a1 fd ff ff       	call   c0105c00 <get_current_process>
c0105e5f:	8b 56 38             	mov    0x38(%esi),%edx
c0105e62:	89 50 0c             	mov    %edx,0xc(%eax)
c0105e65:	8b 13                	mov    (%ebx),%edx
c0105e67:	89 50 14             	mov    %edx,0x14(%eax)
c0105e6a:	e8 b1 fd ff ff       	call   c0105c20 <switch_next_process>
c0105e6f:	8b 50 14             	mov    0x14(%eax),%edx
c0105e72:	8b 48 0c             	mov    0xc(%eax),%ecx
c0105e75:	89 13                	mov    %edx,(%ebx)
c0105e77:	89 4a 38             	mov    %ecx,0x38(%edx)
c0105e7a:	8b 50 04             	mov    0x4(%eax),%edx
c0105e7d:	85 d2                	test   %edx,%edx
c0105e7f:	75 0f                	jne    c0105e90 <syscall_sched_yield+0x40>
c0105e81:	8d 65 f8             	lea    -0x8(%ebp),%esp
c0105e84:	31 c0                	xor    %eax,%eax
c0105e86:	5b                   	pop    %ebx
c0105e87:	5e                   	pop    %esi
c0105e88:	5d                   	pop    %ebp
c0105e89:	c3                   	ret    
c0105e8a:	8d b6 00 00 00 00    	lea    0x0(%esi),%esi
c0105e90:	83 ec 0c             	sub    $0xc,%esp
c0105e93:	ff 70 2c             	push   0x2c(%eax)
c0105e96:	e8 25 e4 ff ff       	call   c01042c0 <set_process_pde>
c0105e9b:	83 c4 10             	add    $0x10,%esp
c0105e9e:	8d 65 f8             	lea    -0x8(%ebp),%esp
c0105ea1:	31 c0                	xor    %eax,%eax
c0105ea3:	5b                   	pop    %ebx
c0105ea4:	5e                   	pop    %esi
c0105ea5:	5d                   	pop    %ebp
c0105ea6:	c3                   	ret    
c0105ea7:	66 90                	xchg   %ax,%ax
c0105ea9:	66 90                	xchg   %ax,%ax
c0105eab:	66 90                	xchg   %ax,%ax
c0105ead:	66 90                	xchg   %ax,%ax
c0105eaf:	90                   	nop

c0105eb0 <initalize_serial>:
c0105eb0:	55                   	push   %ebp
c0105eb1:	89 e5                	mov    %esp,%ebp
c0105eb3:	57                   	push   %edi
c0105eb4:	bf f9 03 00 00       	mov    $0x3f9,%edi
c0105eb9:	56                   	push   %esi
c0105eba:	89 fa                	mov    %edi,%edx
c0105ebc:	53                   	push   %ebx
c0105ebd:	31 db                	xor    %ebx,%ebx
c0105ebf:	89 d8                	mov    %ebx,%eax
c0105ec1:	ee                   	out    %al,(%dx)
c0105ec2:	be fb 03 00 00       	mov    $0x3fb,%esi
c0105ec7:	b8 80 ff ff ff       	mov    $0xffffff80,%eax
c0105ecc:	89 f2                	mov    %esi,%edx
c0105ece:	ee                   	out    %al,(%dx)
c0105ecf:	b9 03 00 00 00       	mov    $0x3,%ecx
c0105ed4:	ba f8 03 00 00       	mov    $0x3f8,%edx
c0105ed9:	89 c8                	mov    %ecx,%eax
c0105edb:	ee                   	out    %al,(%dx)
c0105edc:	89 fa                	mov    %edi,%edx
c0105ede:	89 d8                	mov    %ebx,%eax
c0105ee0:	ee                   	out    %al,(%dx)
c0105ee1:	89 f2                	mov    %esi,%edx
c0105ee3:	89 c8                	mov    %ecx,%eax
c0105ee5:	ee                   	out    %al,(%dx)
c0105ee6:	ba fa 03 00 00       	mov    $0x3fa,%edx
c0105eeb:	b8 c7 ff ff ff       	mov    $0xffffffc7,%eax
c0105ef0:	ee                   	out    %al,(%dx)
c0105ef1:	ba fc 03 00 00       	mov    $0x3fc,%edx
c0105ef6:	b8 0b 00 00 00       	mov    $0xb,%eax
c0105efb:	ee                   	out    %al,(%dx)
c0105efc:	be f9 02 00 00       	mov    $0x2f9,%esi
c0105f01:	89 d8                	mov    %ebx,%eax
c0105f03:	89 f2                	mov    %esi,%edx
c0105f05:	ee                   	out    %al,(%dx)
c0105f06:	bf fb 02 00 00       	mov    $0x2fb,%edi
c0105f0b:	b8 80 ff ff ff       	mov    $0xffffff80,%eax
c0105f10:	89 fa                	mov    %edi,%edx
c0105f12:	ee                   	out    %al,(%dx)
c0105f13:	ba f8 02 00 00       	mov    $0x2f8,%edx
c0105f18:	89 c8                	mov    %ecx,%eax
c0105f1a:	ee                   	out    %al,(%dx)
c0105f1b:	89 f2                	mov    %esi,%edx
c0105f1d:	89 d8                	mov    %ebx,%eax
c0105f1f:	ee                   	out    %al,(%dx)
c0105f20:	89 fa                	mov    %edi,%edx
c0105f22:	89 c8                	mov    %ecx,%eax
c0105f24:	ee                   	out    %al,(%dx)
c0105f25:	ba fa 02 00 00       	mov    $0x2fa,%edx
c0105f2a:	b8 c7 ff ff ff       	mov    $0xffffffc7,%eax
c0105f2f:	ee                   	out    %al,(%dx)
c0105f30:	ba fc 02 00 00       	mov    $0x2fc,%edx
c0105f35:	b8 0b 00 00 00       	mov    $0xb,%eax
c0105f3a:	ee                   	out    %al,(%dx)
c0105f3b:	c7 05 cc 94 11 c0 f8 	movl   $0x3f8,0xc01194cc
c0105f42:	03 00 00 
c0105f45:	5b                   	pop    %ebx
c0105f46:	5e                   	pop    %esi
c0105f47:	5f                   	pop    %edi
c0105f48:	5d                   	pop    %ebp
c0105f49:	c3                   	ret    
c0105f4a:	8d b6 00 00 00 00    	lea    0x0(%esi),%esi

c0105f50 <serial_setup_port>:
c0105f50:	55                   	push   %ebp
c0105f51:	89 e5                	mov    %esp,%ebp
c0105f53:	57                   	push   %edi
c0105f54:	31 ff                	xor    %edi,%edi
c0105f56:	56                   	push   %esi
c0105f57:	89 f8                	mov    %edi,%eax
c0105f59:	53                   	push   %ebx
c0105f5a:	83 ec 04             	sub    $0x4,%esp
c0105f5d:	8b 4d 08             	mov    0x8(%ebp),%ecx
c0105f60:	8d 71 01             	lea    0x1(%ecx),%esi
c0105f63:	89 f2                	mov    %esi,%edx
c0105f65:	ee                   	out    %al,(%dx)
c0105f66:	8d 51 03             	lea    0x3(%ecx),%edx
c0105f69:	b8 80 ff ff ff       	mov    $0xffffff80,%eax
c0105f6e:	89 55 f0             	mov    %edx,-0x10(%ebp)
c0105f71:	ee                   	out    %al,(%dx)
c0105f72:	bb 03 00 00 00       	mov    $0x3,%ebx
c0105f77:	89 ca                	mov    %ecx,%edx
c0105f79:	89 d8                	mov    %ebx,%eax
c0105f7b:	ee                   	out    %al,(%dx)
c0105f7c:	89 f2                	mov    %esi,%edx
c0105f7e:	89 f8                	mov    %edi,%eax
c0105f80:	ee                   	out    %al,(%dx)
c0105f81:	8b 55 f0             	mov    -0x10(%ebp),%edx
c0105f84:	89 d8                	mov    %ebx,%eax
c0105f86:	ee                   	out    %al,(%dx)
c0105f87:	b8 c7 ff ff ff       	mov    $0xffffffc7,%eax
c0105f8c:	8d 51 02             	lea    0x2(%ecx),%edx
c0105f8f:	ee                   	out    %al,(%dx)
c0105f90:	b8 0b 00 00 00       	mov    $0xb,%eax
c0105f95:	8d 51 04             	lea    0x4(%ecx),%edx
c0105f98:	ee                   	out    %al,(%dx)
c0105f99:	83 c4 04             	add    $0x4,%esp
c0105f9c:	5b                   	pop    %ebx
c0105f9d:	5e                   	pop    %esi
c0105f9e:	5f                   	pop    %edi
c0105f9f:	5d                   	pop    %ebp
c0105fa0:	c3                   	ret    
c0105fa1:	8d b4 26 00 00 00 00 	lea    0x0(%esi,%eiz,1),%esi
c0105fa8:	8d b4 26 00 00 00 00 	lea    0x0(%esi,%eiz,1),%esi
c0105faf:	90                   	nop

c0105fb0 <serial_set_default_port>:
c0105fb0:	55                   	push   %ebp
c0105fb1:	89 e5                	mov    %esp,%ebp
c0105fb3:	8b 45 08             	mov    0x8(%ebp),%eax
c0105fb6:	5d                   	pop    %ebp
c0105fb7:	a3 cc 94 11 c0       	mov    %eax,0xc01194cc
c0105fbc:	c3                   	ret    
c0105fbd:	8d 76 00             	lea    0x0(%esi),%esi

c0105fc0 <serial_write_port>:
c0105fc0:	55                   	push   %ebp
c0105fc1:	89 e5                	mov    %esp,%ebp
c0105fc3:	53                   	push   %ebx
c0105fc4:	8b 4d 0c             	mov    0xc(%ebp),%ecx
c0105fc7:	0f b6 5d 08          	movzbl 0x8(%ebp),%ebx
c0105fcb:	85 c9                	test   %ecx,%ecx
c0105fcd:	0f 44 0d cc 94 11 c0 	cmove  0xc01194cc,%ecx
c0105fd4:	8d 51 05             	lea    0x5(%ecx),%edx
c0105fd7:	8d b4 26 00 00 00 00 	lea    0x0(%esi,%eiz,1),%esi
c0105fde:	66 90                	xchg   %ax,%ax
c0105fe0:	ec                   	in     (%dx),%al
c0105fe1:	a8 20                	test   $0x20,%al
c0105fe3:	74 fb                	je     c0105fe0 <serial_write_port+0x20>
c0105fe5:	89 ca                	mov    %ecx,%edx
c0105fe7:	89 d8                	mov    %ebx,%eax
c0105fe9:	ee                   	out    %al,(%dx)
c0105fea:	8b 5d fc             	mov    -0x4(%ebp),%ebx
c0105fed:	c9                   	leave  
c0105fee:	c3                   	ret    
c0105fef:	90                   	nop

c0105ff0 <serial_read_port>:
c0105ff0:	55                   	push   %ebp
c0105ff1:	89 e5                	mov    %esp,%ebp
c0105ff3:	8b 4d 08             	mov    0x8(%ebp),%ecx
c0105ff6:	85 c9                	test   %ecx,%ecx
c0105ff8:	0f 44 0d cc 94 11 c0 	cmove  0xc01194cc,%ecx
c0105fff:	8d 51 05             	lea    0x5(%ecx),%edx
c0106002:	8d b4 26 00 00 00 00 	lea    0x0(%esi,%eiz,1),%esi
c0106009:	8d b4 26 00 00 00 00 	lea    0x0(%esi,%eiz,1),%esi
c0106010:	ec                   	in     (%dx),%al
c0106011:	a8 01                	test   $0x1,%al
c0106013:	74 fb                	je     c0106010 <serial_read_port+0x20>
c0106015:	89 ca                	mov    %ecx,%edx
c0106017:	ec                   	in     (%dx),%al
c0106018:	5d                   	pop    %ebp
c0106019:	c3                   	ret    
c010601a:	66 90                	xchg   %ax,%ax
c010601c:	66 90                	xchg   %ax,%ax
c010601e:	66 90                	xchg   %ax,%ax

c0106020 <strcat>:
c0106020:	55                   	push   %ebp
c0106021:	89 e5                	mov    %esp,%ebp
c0106023:	56                   	push   %esi
c0106024:	8b 75 08             	mov    0x8(%ebp),%esi
c0106027:	53                   	push   %ebx
c0106028:	8b 5d 0c             	mov    0xc(%ebp),%ebx
c010602b:	80 3e 00             	cmpb   $0x0,(%esi)
c010602e:	89 f2                	mov    %esi,%edx
c0106030:	74 16                	je     c0106048 <strcat+0x28>
c0106032:	8d b4 26 00 00 00 00 	lea    0x0(%esi,%eiz,1),%esi
c0106039:	8d b4 26 00 00 00 00 	lea    0x0(%esi,%eiz,1),%esi
c0106040:	83 c2 01             	add    $0x1,%edx
c0106043:	80 3a 00             	cmpb   $0x0,(%edx)
c0106046:	75 f8                	jne    c0106040 <strcat+0x20>
c0106048:	31 c0                	xor    %eax,%eax
c010604a:	8d b6 00 00 00 00    	lea    0x0(%esi),%esi
c0106050:	0f b6 0c 03          	movzbl (%ebx,%eax,1),%ecx
c0106054:	88 0c 02             	mov    %cl,(%edx,%eax,1)
c0106057:	83 c0 01             	add    $0x1,%eax
c010605a:	84 c9                	test   %cl,%cl
c010605c:	75 f2                	jne    c0106050 <strcat+0x30>
c010605e:	89 f0                	mov    %esi,%eax
c0106060:	5b                   	pop    %ebx
c0106061:	5e                   	pop    %esi
c0106062:	5d                   	pop    %ebp
c0106063:	c3                   	ret    
c0106064:	8d b4 26 00 00 00 00 	lea    0x0(%esi,%eiz,1),%esi
c010606b:	8d 74 26 00          	lea    0x0(%esi,%eiz,1),%esi
c010606f:	90                   	nop

c0106070 <strstr>:
c0106070:	55                   	push   %ebp
c0106071:	89 e5                	mov    %esp,%ebp
c0106073:	56                   	push   %esi
c0106074:	53                   	push   %ebx
c0106075:	8b 5d 0c             	mov    0xc(%ebp),%ebx
c0106078:	8b 4d 08             	mov    0x8(%ebp),%ecx
c010607b:	0f b6 33             	movzbl (%ebx),%esi
c010607e:	89 c8                	mov    %ecx,%eax
c0106080:	89 f2                	mov    %esi,%edx
c0106082:	84 d2                	test   %dl,%dl
c0106084:	75 0d                	jne    c0106093 <strstr+0x23>
c0106086:	eb 3a                	jmp    c01060c2 <strstr+0x52>
c0106088:	8d b4 26 00 00 00 00 	lea    0x0(%esi,%eiz,1),%esi
c010608f:	90                   	nop
c0106090:	83 c1 01             	add    $0x1,%ecx
c0106093:	0f b6 01             	movzbl (%ecx),%eax
c0106096:	84 c0                	test   %al,%al
c0106098:	74 36                	je     c01060d0 <strstr+0x60>
c010609a:	89 f2                	mov    %esi,%edx
c010609c:	38 c2                	cmp    %al,%dl
c010609e:	75 f0                	jne    c0106090 <strstr+0x20>
c01060a0:	31 c0                	xor    %eax,%eax
c01060a2:	8d b4 26 00 00 00 00 	lea    0x0(%esi,%eiz,1),%esi
c01060a9:	8d b4 26 00 00 00 00 	lea    0x0(%esi,%eiz,1),%esi
c01060b0:	38 14 01             	cmp    %dl,(%ecx,%eax,1)
c01060b3:	75 db                	jne    c0106090 <strstr+0x20>
c01060b5:	83 c0 01             	add    $0x1,%eax
c01060b8:	0f b6 14 03          	movzbl (%ebx,%eax,1),%edx
c01060bc:	84 d2                	test   %dl,%dl
c01060be:	75 f0                	jne    c01060b0 <strstr+0x40>
c01060c0:	89 c8                	mov    %ecx,%eax
c01060c2:	5b                   	pop    %ebx
c01060c3:	5e                   	pop    %esi
c01060c4:	5d                   	pop    %ebp
c01060c5:	c3                   	ret    
c01060c6:	8d b4 26 00 00 00 00 	lea    0x0(%esi,%eiz,1),%esi
c01060cd:	8d 76 00             	lea    0x0(%esi),%esi
c01060d0:	5b                   	pop    %ebx
c01060d1:	31 c0                	xor    %eax,%eax
c01060d3:	5e                   	pop    %esi
c01060d4:	5d                   	pop    %ebp
c01060d5:	c3                   	ret    
c01060d6:	66 90                	xchg   %ax,%ax
c01060d8:	66 90                	xchg   %ax,%ax
c01060da:	66 90                	xchg   %ax,%ax
c01060dc:	66 90                	xchg   %ax,%ax
c01060de:	66 90                	xchg   %ax,%ax

c01060e0 <syscall_handler>:
c01060e0:	55                   	push   %ebp
c01060e1:	89 e5                	mov    %esp,%ebp
c01060e3:	53                   	push   %ebx
c01060e4:	83 ec 04             	sub    $0x4,%esp
c01060e7:	8b 55 08             	mov    0x8(%ebp),%edx
c01060ea:	8b 1a                	mov    (%edx),%ebx
c01060ec:	8b 43 2c             	mov    0x2c(%ebx),%eax
c01060ef:	83 f8 01             	cmp    $0x1,%eax
c01060f2:	74 31                	je     c0106125 <syscall_handler+0x45>
c01060f4:	83 f8 04             	cmp    $0x4,%eax
c01060f7:	74 37                	je     c0106130 <syscall_handler+0x50>
c01060f9:	85 c0                	test   %eax,%eax
c01060fb:	74 53                	je     c0106150 <syscall_handler+0x70>
c01060fd:	83 ec 0c             	sub    $0xc,%esp
c0106100:	6a 01                	push   $0x1
c0106102:	e8 89 05 00 00       	call   c0106690 <set_debug_output>
c0106107:	58                   	pop    %eax
c0106108:	5a                   	pop    %edx
c0106109:	ff 73 2c             	push   0x2c(%ebx)
c010610c:	68 f2 76 10 c0       	push   $0xc01076f2
c0106111:	e8 8a b6 ff ff       	call   c01017a0 <printf_>
c0106116:	c7 04 24 00 00 00 00 	movl   $0x0,(%esp)
c010611d:	e8 6e 05 00 00       	call   c0106690 <set_debug_output>
c0106122:	83 c4 10             	add    $0x10,%esp
c0106125:	8b 5d fc             	mov    -0x4(%ebp),%ebx
c0106128:	31 c0                	xor    %eax,%eax
c010612a:	c9                   	leave  
c010612b:	c3                   	ret    
c010612c:	8d 74 26 00          	lea    0x0(%esi,%eiz,1),%esi
c0106130:	83 ec 0c             	sub    $0xc,%esp
c0106133:	52                   	push   %edx
c0106134:	e8 17 fd ff ff       	call   c0105e50 <syscall_sched_yield>
c0106139:	8b 5d fc             	mov    -0x4(%ebp),%ebx
c010613c:	83 c4 10             	add    $0x10,%esp
c010613f:	31 c0                	xor    %eax,%eax
c0106141:	c9                   	leave  
c0106142:	c3                   	ret    
c0106143:	8d b4 26 00 00 00 00 	lea    0x0(%esi,%eiz,1),%esi
c010614a:	8d b6 00 00 00 00    	lea    0x0(%esi),%esi
c0106150:	83 ec 04             	sub    $0x4,%esp
c0106153:	ff 73 24             	push   0x24(%ebx)
c0106156:	ff 73 14             	push   0x14(%ebx)
c0106159:	ff 73 10             	push   0x10(%ebx)
c010615c:	e8 bf fc ff ff       	call   c0105e20 <syscall_read>
c0106161:	8b 5d fc             	mov    -0x4(%ebp),%ebx
c0106164:	83 c4 10             	add    $0x10,%esp
c0106167:	31 c0                	xor    %eax,%eax
c0106169:	c9                   	leave  
c010616a:	c3                   	ret    
c010616b:	8d 74 26 00          	lea    0x0(%esi,%eiz,1),%esi
c010616f:	90                   	nop

c0106170 <syscall>:
c0106170:	55                   	push   %ebp
c0106171:	89 e5                	mov    %esp,%ebp
c0106173:	83 ec 08             	sub    $0x8,%esp
c0106176:	8b 45 0c             	mov    0xc(%ebp),%eax
c0106179:	83 f8 02             	cmp    $0x2,%eax
c010617c:	76 22                	jbe    c01061a0 <syscall+0x30>
c010617e:	83 e8 03             	sub    $0x3,%eax
c0106181:	83 f8 03             	cmp    $0x3,%eax
c0106184:	77 2a                	ja     c01061b0 <syscall+0x40>
c0106186:	8b 4d 10             	mov    0x10(%ebp),%ecx
c0106189:	8b 55 08             	mov    0x8(%ebp),%edx
c010618c:	89 d0                	mov    %edx,%eax
c010618e:	8b 39                	mov    (%ecx),%edi
c0106190:	8b 71 04             	mov    0x4(%ecx),%esi
c0106193:	8b 51 08             	mov    0x8(%ecx),%edx
c0106196:	cd 99                	int    $0x99
c0106198:	89 c2                	mov    %eax,%edx
c010619a:	c9                   	leave  
c010619b:	c3                   	ret    
c010619c:	8d 74 26 00          	lea    0x0(%esi,%eiz,1),%esi
c01061a0:	8b 4d 08             	mov    0x8(%ebp),%ecx
c01061a3:	89 c8                	mov    %ecx,%eax
c01061a5:	cd 99                	int    $0x99
c01061a7:	89 c2                	mov    %eax,%edx
c01061a9:	c9                   	leave  
c01061aa:	c3                   	ret    
c01061ab:	8d 74 26 00          	lea    0x0(%esi,%eiz,1),%esi
c01061af:	90                   	nop
c01061b0:	83 ec 0c             	sub    $0xc,%esp
c01061b3:	6a 01                	push   $0x1
c01061b5:	e8 d6 04 00 00       	call   c0106690 <set_debug_output>
c01061ba:	c7 04 24 28 7c 10 c0 	movl   $0xc0107c28,(%esp)
c01061c1:	e8 da b5 ff ff       	call   c01017a0 <printf_>
c01061c6:	c7 04 24 00 00 00 00 	movl   $0x0,(%esp)
c01061cd:	e8 be 04 00 00       	call   c0106690 <set_debug_output>
c01061d2:	83 c4 10             	add    $0x10,%esp
c01061d5:	c9                   	leave  
c01061d6:	c3                   	ret    
c01061d7:	66 90                	xchg   %ax,%ax
c01061d9:	66 90                	xchg   %ax,%ax
c01061db:	66 90                	xchg   %ax,%ax
c01061dd:	66 90                	xchg   %ax,%ax
c01061df:	90                   	nop

c01061e0 <term_initalize>:
c01061e0:	55                   	push   %ebp
c01061e1:	89 e5                	mov    %esp,%ebp
c01061e3:	57                   	push   %edi
c01061e4:	56                   	push   %esi
c01061e5:	53                   	push   %ebx
c01061e6:	83 ec 08             	sub    $0x8,%esp
c01061e9:	a1 84 80 10 c0       	mov    0xc0108084,%eax
c01061ee:	c7 05 08 95 11 c0 00 	movl   $0x0,0xc0119508
c01061f5:	00 00 00 
c01061f8:	c7 05 04 95 11 c0 00 	movl   $0x0,0xc0119504
c01061ff:	00 00 00 
c0106202:	c7 05 d4 94 11 c0 00 	movl   $0x0,0xc01194d4
c0106209:	00 00 00 
c010620c:	c6 05 00 95 11 c0 0f 	movb   $0xf,0xc0119500
c0106213:	c7 05 fc 94 11 c0 00 	movl   $0xc00b8000,0xc01194fc
c010621a:	80 0b c0 
c010621d:	89 45 f0             	mov    %eax,-0x10(%ebp)
c0106220:	85 c0                	test   %eax,%eax
c0106222:	74 51                	je     c0106275 <term_initalize+0x95>
c0106224:	8b 3d 88 80 10 c0    	mov    0xc0108088,%edi
c010622a:	31 f6                	xor    %esi,%esi
c010622c:	31 db                	xor    %ebx,%ebx
c010622e:	8d 04 3f             	lea    (%edi,%edi,1),%eax
c0106231:	89 45 ec             	mov    %eax,-0x14(%ebp)
c0106234:	8d 88 00 80 0b c0    	lea    -0x3ff48000(%eax),%ecx
c010623a:	8d b6 00 00 00 00    	lea    0x0(%esi),%esi
c0106240:	8d 94 36 00 80 0b c0 	lea    -0x3ff48000(%esi,%esi,1),%edx
c0106247:	85 ff                	test   %edi,%edi
c0106249:	74 1d                	je     c0106268 <term_initalize+0x88>
c010624b:	8d 74 26 00          	lea    0x0(%esi,%eiz,1),%esi
c010624f:	90                   	nop
c0106250:	0f b6 05 00 95 11 c0 	movzbl 0xc0119500,%eax
c0106257:	83 c2 02             	add    $0x2,%edx
c010625a:	c1 e0 08             	shl    $0x8,%eax
c010625d:	83 c8 20             	or     $0x20,%eax
c0106260:	66 89 42 fe          	mov    %ax,-0x2(%edx)
c0106264:	39 d1                	cmp    %edx,%ecx
c0106266:	75 e8                	jne    c0106250 <term_initalize+0x70>
c0106268:	83 c3 01             	add    $0x1,%ebx
c010626b:	01 fe                	add    %edi,%esi
c010626d:	03 4d ec             	add    -0x14(%ebp),%ecx
c0106270:	3b 5d f0             	cmp    -0x10(%ebp),%ebx
c0106273:	75 cb                	jne    c0106240 <term_initalize+0x60>
c0106275:	83 c4 08             	add    $0x8,%esp
c0106278:	5b                   	pop    %ebx
c0106279:	5e                   	pop    %esi
c010627a:	5f                   	pop    %edi
c010627b:	5d                   	pop    %ebp
c010627c:	c3                   	ret    
c010627d:	8d 76 00             	lea    0x0(%esi),%esi

c0106280 <term_set_color>:
c0106280:	c6 05 00 95 11 c0 14 	movb   $0x14,0xc0119500
c0106287:	c3                   	ret    
c0106288:	8d b4 26 00 00 00 00 	lea    0x0(%esi,%eiz,1),%esi
c010628f:	90                   	nop

c0106290 <term_put_char_at>:
c0106290:	55                   	push   %ebp
c0106291:	89 e5                	mov    %esp,%ebp
c0106293:	8b 45 08             	mov    0x8(%ebp),%eax
c0106296:	3c 0a                	cmp    $0xa,%al
c0106298:	74 26                	je     c01062c0 <term_put_char_at+0x30>
c010629a:	0f b6 0d 00 95 11 c0 	movzbl 0xc0119500,%ecx
c01062a1:	0f b6 c0             	movzbl %al,%eax
c01062a4:	8b 55 14             	mov    0x14(%ebp),%edx
c01062a7:	0f af 15 88 80 10 c0 	imul   0xc0108088,%edx
c01062ae:	03 55 10             	add    0x10(%ebp),%edx
c01062b1:	c1 e1 08             	shl    $0x8,%ecx
c01062b4:	09 c8                	or     %ecx,%eax
c01062b6:	8b 0d fc 94 11 c0    	mov    0xc01194fc,%ecx
c01062bc:	66 89 04 51          	mov    %ax,(%ecx,%edx,2)
c01062c0:	5d                   	pop    %ebp
c01062c1:	c3                   	ret    
c01062c2:	8d b4 26 00 00 00 00 	lea    0x0(%esi,%eiz,1),%esi
c01062c9:	8d b4 26 00 00 00 00 	lea    0x0(%esi,%eiz,1),%esi

c01062d0 <term_put_char>:
c01062d0:	55                   	push   %ebp
c01062d1:	89 e5                	mov    %esp,%ebp
c01062d3:	57                   	push   %edi
c01062d4:	56                   	push   %esi
c01062d5:	53                   	push   %ebx
c01062d6:	83 ec 1c             	sub    $0x1c,%esp
c01062d9:	0f b6 15 d0 94 11 c0 	movzbl 0xc01194d0,%edx
c01062e0:	8b 45 08             	mov    0x8(%ebp),%eax
c01062e3:	84 d2                	test   %dl,%dl
c01062e5:	75 39                	jne    c0106320 <term_put_char+0x50>
c01062e7:	3c 1b                	cmp    $0x1b,%al
c01062e9:	0f 84 71 01 00 00    	je     c0106460 <term_put_char+0x190>
c01062ef:	80 3d dc 94 11 c0 00 	cmpb   $0x0,0xc01194dc
c01062f6:	74 66                	je     c010635e <term_put_char+0x8e>
c01062f8:	3c 6d                	cmp    $0x6d,%al
c01062fa:	0f 84 e0 01 00 00    	je     c01064e0 <term_put_char+0x210>
c0106300:	8b 15 d8 94 11 c0    	mov    0xc01194d8,%edx
c0106306:	88 82 e0 94 11 c0    	mov    %al,-0x3fee6b20(%edx)
c010630c:	83 c2 01             	add    $0x1,%edx
c010630f:	89 15 d8 94 11 c0    	mov    %edx,0xc01194d8
c0106315:	8d 65 f4             	lea    -0xc(%ebp),%esp
c0106318:	5b                   	pop    %ebx
c0106319:	5e                   	pop    %esi
c010631a:	5f                   	pop    %edi
c010631b:	5d                   	pop    %ebp
c010631c:	c3                   	ret    
c010631d:	8d 76 00             	lea    0x0(%esi),%esi
c0106320:	3c 1b                	cmp    $0x1b,%al
c0106322:	0f 84 98 01 00 00    	je     c01064c0 <term_put_char+0x1f0>
c0106328:	0f b6 15 dc 94 11 c0 	movzbl 0xc01194dc,%edx
c010632f:	84 d2                	test   %dl,%dl
c0106331:	0f 85 49 01 00 00    	jne    c0106480 <term_put_char+0x1b0>
c0106337:	83 ec 08             	sub    $0x8,%esp
c010633a:	0f be d8             	movsbl %al,%ebx
c010633d:	89 45 e4             	mov    %eax,-0x1c(%ebp)
c0106340:	68 f8 03 00 00       	push   $0x3f8
c0106345:	53                   	push   %ebx
c0106346:	e8 75 fc ff ff       	call   c0105fc0 <serial_write_port>
c010634b:	58                   	pop    %eax
c010634c:	5a                   	pop    %edx
c010634d:	68 f8 02 00 00       	push   $0x2f8
c0106352:	53                   	push   %ebx
c0106353:	e8 68 fc ff ff       	call   c0105fc0 <serial_write_port>
c0106358:	8b 45 e4             	mov    -0x1c(%ebp),%eax
c010635b:	83 c4 10             	add    $0x10,%esp
c010635e:	8b 1d 88 80 10 c0    	mov    0xc0108088,%ebx
c0106364:	3c 0a                	cmp    $0xa,%al
c0106366:	0f 85 a4 00 00 00    	jne    c0106410 <term_put_char+0x140>
c010636c:	a1 08 95 11 c0       	mov    0xc0119508,%eax
c0106371:	c7 05 04 95 11 c0 00 	movl   $0x0,0xc0119504
c0106378:	00 00 00 
c010637b:	89 45 e0             	mov    %eax,-0x20(%ebp)
c010637e:	83 c0 01             	add    $0x1,%eax
c0106381:	a3 08 95 11 c0       	mov    %eax,0xc0119508
c0106386:	3b 05 84 80 10 c0    	cmp    0xc0108084,%eax
c010638c:	75 87                	jne    c0106315 <term_put_char+0x45>
c010638e:	8b 7d e0             	mov    -0x20(%ebp),%edi
c0106391:	a1 d4 94 11 c0       	mov    0xc01194d4,%eax
c0106396:	89 3d 08 95 11 c0    	mov    %edi,0xc0119508
c010639c:	39 c7                	cmp    %eax,%edi
c010639e:	0f 86 dc 01 00 00    	jbe    c0106580 <term_put_char+0x2b0>
c01063a4:	8d 0c 1b             	lea    (%ebx,%ebx,1),%ecx
c01063a7:	8d 78 01             	lea    0x1(%eax),%edi
c01063aa:	83 c0 02             	add    $0x2,%eax
c01063ad:	8b 15 fc 94 11 c0    	mov    0xc01194fc,%edx
c01063b3:	0f af c1             	imul   %ecx,%eax
c01063b6:	89 fe                	mov    %edi,%esi
c01063b8:	89 4d dc             	mov    %ecx,-0x24(%ebp)
c01063bb:	89 d9                	mov    %ebx,%ecx
c01063bd:	0f af f3             	imul   %ebx,%esi
c01063c0:	89 55 d8             	mov    %edx,-0x28(%ebp)
c01063c3:	f7 d9                	neg    %ecx
c01063c5:	01 c2                	add    %eax,%edx
c01063c7:	8d b4 26 00 00 00 00 	lea    0x0(%esi,%eiz,1),%esi
c01063ce:	66 90                	xchg   %ax,%ax
c01063d0:	8b 45 d8             	mov    -0x28(%ebp),%eax
c01063d3:	8d 04 70             	lea    (%eax,%esi,2),%eax
c01063d6:	85 db                	test   %ebx,%ebx
c01063d8:	74 17                	je     c01063f1 <term_put_char+0x121>
c01063da:	89 5d e4             	mov    %ebx,-0x1c(%ebp)
c01063dd:	8d 76 00             	lea    0x0(%esi),%esi
c01063e0:	0f b7 18             	movzwl (%eax),%ebx
c01063e3:	66 89 1c 48          	mov    %bx,(%eax,%ecx,2)
c01063e7:	83 c0 02             	add    $0x2,%eax
c01063ea:	39 c2                	cmp    %eax,%edx
c01063ec:	75 f2                	jne    c01063e0 <term_put_char+0x110>
c01063ee:	8b 5d e4             	mov    -0x1c(%ebp),%ebx
c01063f1:	01 de                	add    %ebx,%esi
c01063f3:	03 55 dc             	add    -0x24(%ebp),%edx
c01063f6:	39 7d e0             	cmp    %edi,-0x20(%ebp)
c01063f9:	0f 84 81 01 00 00    	je     c0106580 <term_put_char+0x2b0>
c01063ff:	83 c7 01             	add    $0x1,%edi
c0106402:	eb cc                	jmp    c01063d0 <term_put_char+0x100>
c0106404:	8d b4 26 00 00 00 00 	lea    0x0(%esi,%eiz,1),%esi
c010640b:	8d 74 26 00          	lea    0x0(%esi,%eiz,1),%esi
c010640f:	90                   	nop
c0106410:	8b 0d 08 95 11 c0    	mov    0xc0119508,%ecx
c0106416:	0f b6 35 00 95 11 c0 	movzbl 0xc0119500,%esi
c010641d:	0f b6 c0             	movzbl %al,%eax
c0106420:	8b 15 04 95 11 c0    	mov    0xc0119504,%edx
c0106426:	0f af cb             	imul   %ebx,%ecx
c0106429:	c1 e6 08             	shl    $0x8,%esi
c010642c:	09 f0                	or     %esi,%eax
c010642e:	8b 35 fc 94 11 c0    	mov    0xc01194fc,%esi
c0106434:	01 d1                	add    %edx,%ecx
c0106436:	66 89 04 4e          	mov    %ax,(%esi,%ecx,2)
c010643a:	8d 42 01             	lea    0x1(%edx),%eax
c010643d:	39 d8                	cmp    %ebx,%eax
c010643f:	0f 84 27 ff ff ff    	je     c010636c <term_put_char+0x9c>
c0106445:	a3 04 95 11 c0       	mov    %eax,0xc0119504
c010644a:	8d 65 f4             	lea    -0xc(%ebp),%esp
c010644d:	5b                   	pop    %ebx
c010644e:	5e                   	pop    %esi
c010644f:	5f                   	pop    %edi
c0106450:	5d                   	pop    %ebp
c0106451:	c3                   	ret    
c0106452:	8d b4 26 00 00 00 00 	lea    0x0(%esi,%eiz,1),%esi
c0106459:	8d b4 26 00 00 00 00 	lea    0x0(%esi,%eiz,1),%esi
c0106460:	c6 05 dc 94 11 c0 01 	movb   $0x1,0xc01194dc
c0106467:	c7 05 d8 94 11 c0 00 	movl   $0x0,0xc01194d8
c010646e:	00 00 00 
c0106471:	8d 65 f4             	lea    -0xc(%ebp),%esp
c0106474:	5b                   	pop    %ebx
c0106475:	5e                   	pop    %esi
c0106476:	5f                   	pop    %edi
c0106477:	5d                   	pop    %ebp
c0106478:	c3                   	ret    
c0106479:	8d b4 26 00 00 00 00 	lea    0x0(%esi,%eiz,1),%esi
c0106480:	3c 6d                	cmp    $0x6d,%al
c0106482:	74 5c                	je     c01064e0 <term_put_char+0x210>
c0106484:	8b 15 d8 94 11 c0    	mov    0xc01194d8,%edx
c010648a:	88 82 e0 94 11 c0    	mov    %al,-0x3fee6b20(%edx)
c0106490:	83 c2 01             	add    $0x1,%edx
c0106493:	89 15 d8 94 11 c0    	mov    %edx,0xc01194d8
c0106499:	83 ec 08             	sub    $0x8,%esp
c010649c:	0f be c0             	movsbl %al,%eax
c010649f:	68 f8 02 00 00       	push   $0x2f8
c01064a4:	50                   	push   %eax
c01064a5:	e8 16 fb ff ff       	call   c0105fc0 <serial_write_port>
c01064aa:	83 c4 10             	add    $0x10,%esp
c01064ad:	8d 65 f4             	lea    -0xc(%ebp),%esp
c01064b0:	5b                   	pop    %ebx
c01064b1:	5e                   	pop    %esi
c01064b2:	5f                   	pop    %edi
c01064b3:	5d                   	pop    %ebp
c01064b4:	c3                   	ret    
c01064b5:	8d b4 26 00 00 00 00 	lea    0x0(%esi,%eiz,1),%esi
c01064bc:	8d 74 26 00          	lea    0x0(%esi,%eiz,1),%esi
c01064c0:	c6 05 dc 94 11 c0 01 	movb   $0x1,0xc01194dc
c01064c7:	c7 05 d8 94 11 c0 00 	movl   $0x0,0xc01194d8
c01064ce:	00 00 00 
c01064d1:	eb c6                	jmp    c0106499 <term_put_char+0x1c9>
c01064d3:	8d b4 26 00 00 00 00 	lea    0x0(%esi,%eiz,1),%esi
c01064da:	8d b6 00 00 00 00    	lea    0x0(%esi),%esi
c01064e0:	8b 0d d8 94 11 c0    	mov    0xc01194d8,%ecx
c01064e6:	c6 05 dc 94 11 c0 00 	movb   $0x0,0xc01194dc
c01064ed:	c7 05 d8 94 11 c0 00 	movl   $0x0,0xc01194d8
c01064f4:	00 00 00 
c01064f7:	c6 81 e0 94 11 c0 00 	movb   $0x0,-0x3fee6b20(%ecx)
c01064fe:	0f be 1d e3 94 11 c0 	movsbl 0xc01194e3,%ebx
c0106505:	66 0f be 3d e4 94 11 	movsbw 0xc01194e4,%di
c010650c:	c0 
c010650d:	0f be 0d e6 94 11 c0 	movsbl 0xc01194e6,%ecx
c0106514:	66 0f be 35 e7 94 11 	movsbw 0xc01194e7,%si
c010651b:	c0 
c010651c:	8d 9c 9b 10 ff ff ff 	lea    -0xf0(%ebx,%ebx,4),%ebx
c0106523:	8d 8c 89 10 ff ff ff 	lea    -0xf0(%ecx,%ecx,4),%ecx
c010652a:	8d 5c 5f b2          	lea    -0x4e(%edi,%ebx,2),%ebx
c010652e:	bf 0f 00 00 00       	mov    $0xf,%edi
c0106533:	01 c9                	add    %ecx,%ecx
c0106535:	83 ee 59             	sub    $0x59,%esi
c0106538:	66 83 fb 04          	cmp    $0x4,%bx
c010653c:	77 0b                	ja     c0106549 <term_put_char+0x279>
c010653e:	0f b7 db             	movzwl %bx,%ebx
c0106541:	0f b6 bc 1b 9c 74 10 	movzbl -0x3fef8b64(%ebx,%ebx,1),%edi
c0106548:	c0 
c0106549:	01 f1                	add    %esi,%ecx
c010654b:	66 83 f9 03          	cmp    $0x3,%cx
c010654f:	77 10                	ja     c0106561 <term_put_char+0x291>
c0106551:	0f b7 c9             	movzwl %cx,%ecx
c0106554:	0f b7 8c 09 94 74 10 	movzwl -0x3fef8b6c(%ecx,%ecx,1),%ecx
c010655b:	c0 
c010655c:	c1 e1 04             	shl    $0x4,%ecx
c010655f:	09 cf                	or     %ecx,%edi
c0106561:	89 fb                	mov    %edi,%ebx
c0106563:	88 1d 00 95 11 c0    	mov    %bl,0xc0119500
c0106569:	84 d2                	test   %dl,%dl
c010656b:	0f 84 a4 fd ff ff    	je     c0106315 <term_put_char+0x45>
c0106571:	e9 23 ff ff ff       	jmp    c0106499 <term_put_char+0x1c9>
c0106576:	8d b4 26 00 00 00 00 	lea    0x0(%esi,%eiz,1),%esi
c010657d:	8d 76 00             	lea    0x0(%esi),%esi
c0106580:	85 db                	test   %ebx,%ebx
c0106582:	0f 84 8d fd ff ff    	je     c0106315 <term_put_char+0x45>
c0106588:	8b 45 e0             	mov    -0x20(%ebp),%eax
c010658b:	8b 0d fc 94 11 c0    	mov    0xc01194fc,%ecx
c0106591:	0f af c3             	imul   %ebx,%eax
c0106594:	8d 14 41             	lea    (%ecx,%eax,2),%edx
c0106597:	01 d8                	add    %ebx,%eax
c0106599:	8d 0c 41             	lea    (%ecx,%eax,2),%ecx
c010659c:	8d 74 26 00          	lea    0x0(%esi,%eiz,1),%esi
c01065a0:	0f b6 05 00 95 11 c0 	movzbl 0xc0119500,%eax
c01065a7:	83 c2 02             	add    $0x2,%edx
c01065aa:	c1 e0 08             	shl    $0x8,%eax
c01065ad:	83 c8 20             	or     $0x20,%eax
c01065b0:	66 89 42 fe          	mov    %ax,-0x2(%edx)
c01065b4:	39 ca                	cmp    %ecx,%edx
c01065b6:	75 e8                	jne    c01065a0 <term_put_char+0x2d0>
c01065b8:	e9 58 fd ff ff       	jmp    c0106315 <term_put_char+0x45>
c01065bd:	8d 76 00             	lea    0x0(%esi),%esi

c01065c0 <term_clear_last_char>:
c01065c0:	a1 04 95 11 c0       	mov    0xc0119504,%eax
c01065c5:	83 e8 01             	sub    $0x1,%eax
c01065c8:	85 c0                	test   %eax,%eax
c01065ca:	7e 34                	jle    c0106600 <term_clear_last_char+0x40>
c01065cc:	8b 15 08 95 11 c0    	mov    0xc0119508,%edx
c01065d2:	0f b6 0d 00 95 11 c0 	movzbl 0xc0119500,%ecx
c01065d9:	55                   	push   %ebp
c01065da:	0f af 15 88 80 10 c0 	imul   0xc0108088,%edx
c01065e1:	c1 e1 08             	shl    $0x8,%ecx
c01065e4:	89 e5                	mov    %esp,%ebp
c01065e6:	53                   	push   %ebx
c01065e7:	8b 1d fc 94 11 c0    	mov    0xc01194fc,%ebx
c01065ed:	83 c9 20             	or     $0x20,%ecx
c01065f0:	01 c2                	add    %eax,%edx
c01065f2:	66 89 0c 53          	mov    %cx,(%ebx,%edx,2)
c01065f6:	8b 5d fc             	mov    -0x4(%ebp),%ebx
c01065f9:	a3 04 95 11 c0       	mov    %eax,0xc0119504
c01065fe:	c9                   	leave  
c01065ff:	c3                   	ret    
c0106600:	c3                   	ret    
c0106601:	8d b4 26 00 00 00 00 	lea    0x0(%esi,%eiz,1),%esi
c0106608:	8d b4 26 00 00 00 00 	lea    0x0(%esi,%eiz,1),%esi
c010660f:	90                   	nop

c0106610 <term_put_string>:
c0106610:	55                   	push   %ebp
c0106611:	89 e5                	mov    %esp,%ebp
c0106613:	56                   	push   %esi
c0106614:	8b 75 0c             	mov    0xc(%ebp),%esi
c0106617:	53                   	push   %ebx
c0106618:	85 f6                	test   %esi,%esi
c010661a:	74 2a                	je     c0106646 <term_put_string+0x36>
c010661c:	8b 5d 08             	mov    0x8(%ebp),%ebx
c010661f:	01 de                	add    %ebx,%esi
c0106621:	8d b4 26 00 00 00 00 	lea    0x0(%esi,%eiz,1),%esi
c0106628:	8d b4 26 00 00 00 00 	lea    0x0(%esi,%eiz,1),%esi
c010662f:	90                   	nop
c0106630:	0f be 03             	movsbl (%ebx),%eax
c0106633:	83 ec 0c             	sub    $0xc,%esp
c0106636:	83 c3 01             	add    $0x1,%ebx
c0106639:	50                   	push   %eax
c010663a:	e8 91 fc ff ff       	call   c01062d0 <term_put_char>
c010663f:	83 c4 10             	add    $0x10,%esp
c0106642:	39 f3                	cmp    %esi,%ebx
c0106644:	75 ea                	jne    c0106630 <term_put_string+0x20>
c0106646:	8d 65 f8             	lea    -0x8(%ebp),%esp
c0106649:	5b                   	pop    %ebx
c010664a:	5e                   	pop    %esi
c010664b:	5d                   	pop    %ebp
c010664c:	c3                   	ret    
c010664d:	8d 76 00             	lea    0x0(%esi),%esi

c0106650 <term_write_string>:
c0106650:	55                   	push   %ebp
c0106651:	89 e5                	mov    %esp,%ebp
c0106653:	56                   	push   %esi
c0106654:	53                   	push   %ebx
c0106655:	8b 5d 08             	mov    0x8(%ebp),%ebx
c0106658:	83 ec 0c             	sub    $0xc,%esp
c010665b:	53                   	push   %ebx
c010665c:	e8 3f b5 ff ff       	call   c0101ba0 <strlen>
c0106661:	83 c4 10             	add    $0x10,%esp
c0106664:	85 c0                	test   %eax,%eax
c0106666:	74 1e                	je     c0106686 <term_write_string+0x36>
c0106668:	8d 34 03             	lea    (%ebx,%eax,1),%esi
c010666b:	8d 74 26 00          	lea    0x0(%esi,%eiz,1),%esi
c010666f:	90                   	nop
c0106670:	0f be 03             	movsbl (%ebx),%eax
c0106673:	83 ec 0c             	sub    $0xc,%esp
c0106676:	83 c3 01             	add    $0x1,%ebx
c0106679:	50                   	push   %eax
c010667a:	e8 51 fc ff ff       	call   c01062d0 <term_put_char>
c010667f:	83 c4 10             	add    $0x10,%esp
c0106682:	39 f3                	cmp    %esi,%ebx
c0106684:	75 ea                	jne    c0106670 <term_write_string+0x20>
c0106686:	8d 65 f8             	lea    -0x8(%ebp),%esp
c0106689:	5b                   	pop    %ebx
c010668a:	5e                   	pop    %esi
c010668b:	5d                   	pop    %ebp
c010668c:	c3                   	ret    
c010668d:	8d 76 00             	lea    0x0(%esi),%esi

c0106690 <set_debug_output>:
c0106690:	55                   	push   %ebp
c0106691:	89 e5                	mov    %esp,%ebp
c0106693:	8b 45 08             	mov    0x8(%ebp),%eax
c0106696:	5d                   	pop    %ebp
c0106697:	a2 d0 94 11 c0       	mov    %al,0xc01194d0
c010669c:	c3                   	ret    
c010669d:	8d 76 00             	lea    0x0(%esi),%esi

c01066a0 <write_to_serial_port>:
c01066a0:	55                   	push   %ebp
c01066a1:	89 e5                	mov    %esp,%ebp
c01066a3:	53                   	push   %ebx
c01066a4:	83 ec 0c             	sub    $0xc,%esp
c01066a7:	0f be 5d 08          	movsbl 0x8(%ebp),%ebx
c01066ab:	68 f8 03 00 00       	push   $0x3f8
c01066b0:	53                   	push   %ebx
c01066b1:	e8 0a f9 ff ff       	call   c0105fc0 <serial_write_port>
c01066b6:	58                   	pop    %eax
c01066b7:	5a                   	pop    %edx
c01066b8:	68 f8 02 00 00       	push   $0x2f8
c01066bd:	53                   	push   %ebx
c01066be:	e8 fd f8 ff ff       	call   c0105fc0 <serial_write_port>
c01066c3:	8b 5d fc             	mov    -0x4(%ebp),%ebx
c01066c6:	83 c4 10             	add    $0x10,%esp
c01066c9:	c9                   	leave  
c01066ca:	c3                   	ret    
c01066cb:	66 90                	xchg   %ax,%ax
c01066cd:	66 90                	xchg   %ax,%ax
c01066cf:	90                   	nop

c01066d0 <my_list_iterator>:
c01066d0:	55                   	push   %ebp
c01066d1:	89 e5                	mov    %esp,%ebp
c01066d3:	53                   	push   %ebx
c01066d4:	83 ec 10             	sub    $0x10,%esp
c01066d7:	8b 5d 08             	mov    0x8(%ebp),%ebx
c01066da:	6a 01                	push   $0x1
c01066dc:	e8 af ff ff ff       	call   c0106690 <set_debug_output>
c01066e1:	58                   	pop    %eax
c01066e2:	5a                   	pop    %edx
c01066e3:	ff 73 08             	push   0x8(%ebx)
c01066e6:	68 36 77 10 c0       	push   $0xc0107736
c01066eb:	e8 b0 b0 ff ff       	call   c01017a0 <printf_>
c01066f0:	c7 45 08 00 00 00 00 	movl   $0x0,0x8(%ebp)
c01066f7:	8b 5d fc             	mov    -0x4(%ebp),%ebx
c01066fa:	83 c4 10             	add    $0x10,%esp
c01066fd:	c9                   	leave  
c01066fe:	e9 8d ff ff ff       	jmp    c0106690 <set_debug_output>
c0106703:	8d b4 26 00 00 00 00 	lea    0x0(%esi,%eiz,1),%esi
c010670a:	8d b6 00 00 00 00    	lea    0x0(%esi),%esi

c0106710 <vv_list_initalize>:
c0106710:	55                   	push   %ebp
c0106711:	89 e5                	mov    %esp,%ebp
c0106713:	83 ec 14             	sub    $0x14,%esp
c0106716:	6a 0c                	push   $0xc
c0106718:	e8 c3 de ff ff       	call   c01045e0 <kmalloc>
c010671d:	c7 00 00 00 00 00    	movl   $0x0,(%eax)
c0106723:	c7 40 04 00 00 00 00 	movl   $0x0,0x4(%eax)
c010672a:	c7 40 08 00 00 00 00 	movl   $0x0,0x8(%eax)
c0106731:	c9                   	leave  
c0106732:	c3                   	ret    
c0106733:	8d b4 26 00 00 00 00 	lea    0x0(%esi,%eiz,1),%esi
c010673a:	8d b6 00 00 00 00    	lea    0x0(%esi),%esi

c0106740 <vv_list_append>:
c0106740:	55                   	push   %ebp
c0106741:	89 e5                	mov    %esp,%ebp
c0106743:	53                   	push   %ebx
c0106744:	83 ec 10             	sub    $0x10,%esp
c0106747:	8b 5d 08             	mov    0x8(%ebp),%ebx
c010674a:	6a 0c                	push   $0xc
c010674c:	e8 8f de ff ff       	call   c01045e0 <kmalloc>
c0106751:	83 c4 10             	add    $0x10,%esp
c0106754:	85 db                	test   %ebx,%ebx
c0106756:	74 58                	je     c01067b0 <vv_list_append+0x70>
c0106758:	85 c0                	test   %eax,%eax
c010675a:	74 54                	je     c01067b0 <vv_list_append+0x70>
c010675c:	8b 13                	mov    (%ebx),%edx
c010675e:	85 d2                	test   %edx,%edx
c0106760:	74 2e                	je     c0106790 <vv_list_append+0x50>
c0106762:	8b 53 04             	mov    0x4(%ebx),%edx
c0106765:	c7 00 00 00 00 00    	movl   $0x0,(%eax)
c010676b:	89 50 04             	mov    %edx,0x4(%eax)
c010676e:	89 02                	mov    %eax,(%edx)
c0106770:	89 43 04             	mov    %eax,0x4(%ebx)
c0106773:	8b 55 0c             	mov    0xc(%ebp),%edx
c0106776:	89 50 08             	mov    %edx,0x8(%eax)
c0106779:	83 43 08 01          	addl   $0x1,0x8(%ebx)
c010677d:	8b 5d fc             	mov    -0x4(%ebp),%ebx
c0106780:	c9                   	leave  
c0106781:	c3                   	ret    
c0106782:	8d b4 26 00 00 00 00 	lea    0x0(%esi,%eiz,1),%esi
c0106789:	8d b4 26 00 00 00 00 	lea    0x0(%esi,%eiz,1),%esi
c0106790:	89 03                	mov    %eax,(%ebx)
c0106792:	89 43 04             	mov    %eax,0x4(%ebx)
c0106795:	c7 00 00 00 00 00    	movl   $0x0,(%eax)
c010679b:	c7 40 04 00 00 00 00 	movl   $0x0,0x4(%eax)
c01067a2:	eb cf                	jmp    c0106773 <vv_list_append+0x33>
c01067a4:	8d b4 26 00 00 00 00 	lea    0x0(%esi,%eiz,1),%esi
c01067ab:	8d 74 26 00          	lea    0x0(%esi,%eiz,1),%esi
c01067af:	90                   	nop
c01067b0:	8b 5d fc             	mov    -0x4(%ebp),%ebx
c01067b3:	31 c0                	xor    %eax,%eax
c01067b5:	c9                   	leave  
c01067b6:	c3                   	ret    
c01067b7:	8d b4 26 00 00 00 00 	lea    0x0(%esi,%eiz,1),%esi
c01067be:	66 90                	xchg   %ax,%ax

c01067c0 <vv_list_remove>:
c01067c0:	55                   	push   %ebp
c01067c1:	89 e5                	mov    %esp,%ebp
c01067c3:	53                   	push   %ebx
c01067c4:	8b 55 08             	mov    0x8(%ebp),%edx
c01067c7:	8b 45 0c             	mov    0xc(%ebp),%eax
c01067ca:	8b 1a                	mov    (%edx),%ebx
c01067cc:	39 42 04             	cmp    %eax,0x4(%edx)
c01067cf:	74 2f                	je     c0106800 <vv_list_remove+0x40>
c01067d1:	8b 08                	mov    (%eax),%ecx
c01067d3:	39 d8                	cmp    %ebx,%eax
c01067d5:	74 19                	je     c01067f0 <vv_list_remove+0x30>
c01067d7:	8b 40 04             	mov    0x4(%eax),%eax
c01067da:	89 08                	mov    %ecx,(%eax)
c01067dc:	89 41 04             	mov    %eax,0x4(%ecx)
c01067df:	90                   	nop
c01067e0:	8b 5d fc             	mov    -0x4(%ebp),%ebx
c01067e3:	c9                   	leave  
c01067e4:	c3                   	ret    
c01067e5:	8d b4 26 00 00 00 00 	lea    0x0(%esi,%eiz,1),%esi
c01067ec:	8d 74 26 00          	lea    0x0(%esi,%eiz,1),%esi
c01067f0:	89 0a                	mov    %ecx,(%edx)
c01067f2:	c7 41 04 00 00 00 00 	movl   $0x0,0x4(%ecx)
c01067f9:	eb e4                	jmp    c01067df <vv_list_remove+0x1f>
c01067fb:	8d 74 26 00          	lea    0x0(%esi,%eiz,1),%esi
c01067ff:	90                   	nop
c0106800:	39 d8                	cmp    %ebx,%eax
c0106802:	74 1c                	je     c0106820 <vv_list_remove+0x60>
c0106804:	8b 40 04             	mov    0x4(%eax),%eax
c0106807:	c7 00 00 00 00 00    	movl   $0x0,(%eax)
c010680d:	89 42 04             	mov    %eax,0x4(%edx)
c0106810:	eb cd                	jmp    c01067df <vv_list_remove+0x1f>
c0106812:	8d b4 26 00 00 00 00 	lea    0x0(%esi,%eiz,1),%esi
c0106819:	8d b4 26 00 00 00 00 	lea    0x0(%esi,%eiz,1),%esi
c0106820:	c7 42 04 00 00 00 00 	movl   $0x0,0x4(%edx)
c0106827:	c7 02 00 00 00 00    	movl   $0x0,(%edx)
c010682d:	eb b0                	jmp    c01067df <vv_list_remove+0x1f>
c010682f:	90                   	nop

c0106830 <main_vv_list>:
c0106830:	55                   	push   %ebp
c0106831:	89 e5                	mov    %esp,%ebp
c0106833:	57                   	push   %edi
c0106834:	56                   	push   %esi
c0106835:	53                   	push   %ebx
c0106836:	83 ec 28             	sub    $0x28,%esp
c0106839:	6a 0c                	push   $0xc
c010683b:	e8 a0 dd ff ff       	call   c01045e0 <kmalloc>
c0106840:	c7 00 00 00 00 00    	movl   $0x0,(%eax)
c0106846:	89 c3                	mov    %eax,%ebx
c0106848:	c7 40 04 00 00 00 00 	movl   $0x0,0x4(%eax)
c010684f:	c7 40 08 00 00 00 00 	movl   $0x0,0x8(%eax)
c0106856:	59                   	pop    %ecx
c0106857:	5e                   	pop    %esi
c0106858:	68 0f 77 10 c0       	push   $0xc010770f
c010685d:	50                   	push   %eax
c010685e:	e8 dd fe ff ff       	call   c0106740 <vv_list_append>
c0106863:	5f                   	pop    %edi
c0106864:	89 45 e4             	mov    %eax,-0x1c(%ebp)
c0106867:	58                   	pop    %eax
c0106868:	68 13 77 10 c0       	push   $0xc0107713
c010686d:	53                   	push   %ebx
c010686e:	e8 cd fe ff ff       	call   c0106740 <vv_list_append>
c0106873:	89 c6                	mov    %eax,%esi
c0106875:	58                   	pop    %eax
c0106876:	5a                   	pop    %edx
c0106877:	68 17 77 10 c0       	push   $0xc0107717
c010687c:	53                   	push   %ebx
c010687d:	e8 be fe ff ff       	call   c0106740 <vv_list_append>
c0106882:	59                   	pop    %ecx
c0106883:	5f                   	pop    %edi
c0106884:	68 1d 77 10 c0       	push   $0xc010771d
c0106889:	53                   	push   %ebx
c010688a:	89 45 e0             	mov    %eax,-0x20(%ebp)
c010688d:	e8 ae fe ff ff       	call   c0106740 <vv_list_append>
c0106892:	c7 04 24 01 00 00 00 	movl   $0x1,(%esp)
c0106899:	e8 f2 fd ff ff       	call   c0106690 <set_debug_output>
c010689e:	58                   	pop    %eax
c010689f:	5a                   	pop    %edx
c01068a0:	ff 73 08             	push   0x8(%ebx)
c01068a3:	68 22 77 10 c0       	push   $0xc0107722
c01068a8:	e8 f3 ae ff ff       	call   c01017a0 <printf_>
c01068ad:	c7 04 24 00 00 00 00 	movl   $0x0,(%esp)
c01068b4:	e8 d7 fd ff ff       	call   c0106690 <set_debug_output>
c01068b9:	8b 3b                	mov    (%ebx),%edi
c01068bb:	83 c4 10             	add    $0x10,%esp
c01068be:	85 ff                	test   %edi,%edi
c01068c0:	74 3c                	je     c01068fe <main_vv_list+0xce>
c01068c2:	8d b4 26 00 00 00 00 	lea    0x0(%esi,%eiz,1),%esi
c01068c9:	8d b4 26 00 00 00 00 	lea    0x0(%esi,%eiz,1),%esi
c01068d0:	83 ec 0c             	sub    $0xc,%esp
c01068d3:	6a 01                	push   $0x1
c01068d5:	e8 b6 fd ff ff       	call   c0106690 <set_debug_output>
c01068da:	58                   	pop    %eax
c01068db:	5a                   	pop    %edx
c01068dc:	ff 77 08             	push   0x8(%edi)
c01068df:	68 36 77 10 c0       	push   $0xc0107736
c01068e4:	e8 b7 ae ff ff       	call   c01017a0 <printf_>
c01068e9:	c7 04 24 00 00 00 00 	movl   $0x0,(%esp)
c01068f0:	e8 9b fd ff ff       	call   c0106690 <set_debug_output>
c01068f5:	8b 3f                	mov    (%edi),%edi
c01068f7:	83 c4 10             	add    $0x10,%esp
c01068fa:	85 ff                	test   %edi,%edi
c01068fc:	75 d2                	jne    c01068d0 <main_vv_list+0xa0>
c01068fe:	83 ec 0c             	sub    $0xc,%esp
c0106901:	8b 7b 04             	mov    0x4(%ebx),%edi
c0106904:	6a 01                	push   $0x1
c0106906:	e8 85 fd ff ff       	call   c0106690 <set_debug_output>
c010690b:	58                   	pop    %eax
c010690c:	5a                   	pop    %edx
c010690d:	ff 77 08             	push   0x8(%edi)
c0106910:	68 2c 77 10 c0       	push   $0xc010772c
c0106915:	e8 86 ae ff ff       	call   c01017a0 <printf_>
c010691a:	c7 04 24 00 00 00 00 	movl   $0x0,(%esp)
c0106921:	e8 6a fd ff ff       	call   c0106690 <set_debug_output>
c0106926:	59                   	pop    %ecx
c0106927:	58                   	pop    %eax
c0106928:	57                   	push   %edi
c0106929:	53                   	push   %ebx
c010692a:	e8 91 fe ff ff       	call   c01067c0 <vv_list_remove>
c010692f:	8b 3b                	mov    (%ebx),%edi
c0106931:	83 c4 10             	add    $0x10,%esp
c0106934:	85 ff                	test   %edi,%edi
c0106936:	74 36                	je     c010696e <main_vv_list+0x13e>
c0106938:	8d b4 26 00 00 00 00 	lea    0x0(%esi,%eiz,1),%esi
c010693f:	90                   	nop
c0106940:	83 ec 0c             	sub    $0xc,%esp
c0106943:	6a 01                	push   $0x1
c0106945:	e8 46 fd ff ff       	call   c0106690 <set_debug_output>
c010694a:	59                   	pop    %ecx
c010694b:	58                   	pop    %eax
c010694c:	ff 77 08             	push   0x8(%edi)
c010694f:	68 36 77 10 c0       	push   $0xc0107736
c0106954:	e8 47 ae ff ff       	call   c01017a0 <printf_>
c0106959:	c7 04 24 00 00 00 00 	movl   $0x0,(%esp)
c0106960:	e8 2b fd ff ff       	call   c0106690 <set_debug_output>
c0106965:	8b 3f                	mov    (%edi),%edi
c0106967:	83 c4 10             	add    $0x10,%esp
c010696a:	85 ff                	test   %edi,%edi
c010696c:	75 d2                	jne    c0106940 <main_vv_list+0x110>
c010696e:	83 ec 0c             	sub    $0xc,%esp
c0106971:	6a 01                	push   $0x1
c0106973:	e8 18 fd ff ff       	call   c0106690 <set_debug_output>
c0106978:	59                   	pop    %ecx
c0106979:	5f                   	pop    %edi
c010697a:	ff 76 08             	push   0x8(%esi)
c010697d:	68 2c 77 10 c0       	push   $0xc010772c
c0106982:	e8 19 ae ff ff       	call   c01017a0 <printf_>
c0106987:	c7 04 24 00 00 00 00 	movl   $0x0,(%esp)
c010698e:	e8 fd fc ff ff       	call   c0106690 <set_debug_output>
c0106993:	58                   	pop    %eax
c0106994:	5a                   	pop    %edx
c0106995:	56                   	push   %esi
c0106996:	53                   	push   %ebx
c0106997:	e8 24 fe ff ff       	call   c01067c0 <vv_list_remove>
c010699c:	8b 33                	mov    (%ebx),%esi
c010699e:	83 c4 10             	add    $0x10,%esp
c01069a1:	85 f6                	test   %esi,%esi
c01069a3:	74 39                	je     c01069de <main_vv_list+0x1ae>
c01069a5:	8d b4 26 00 00 00 00 	lea    0x0(%esi,%eiz,1),%esi
c01069ac:	8d 74 26 00          	lea    0x0(%esi,%eiz,1),%esi
c01069b0:	83 ec 0c             	sub    $0xc,%esp
c01069b3:	6a 01                	push   $0x1
c01069b5:	e8 d6 fc ff ff       	call   c0106690 <set_debug_output>
c01069ba:	58                   	pop    %eax
c01069bb:	5a                   	pop    %edx
c01069bc:	ff 76 08             	push   0x8(%esi)
c01069bf:	68 36 77 10 c0       	push   $0xc0107736
c01069c4:	e8 d7 ad ff ff       	call   c01017a0 <printf_>
c01069c9:	c7 04 24 00 00 00 00 	movl   $0x0,(%esp)
c01069d0:	e8 bb fc ff ff       	call   c0106690 <set_debug_output>
c01069d5:	8b 36                	mov    (%esi),%esi
c01069d7:	83 c4 10             	add    $0x10,%esp
c01069da:	85 f6                	test   %esi,%esi
c01069dc:	75 d2                	jne    c01069b0 <main_vv_list+0x180>
c01069de:	83 ec 0c             	sub    $0xc,%esp
c01069e1:	6a 01                	push   $0x1
c01069e3:	e8 a8 fc ff ff       	call   c0106690 <set_debug_output>
c01069e8:	8b 75 e4             	mov    -0x1c(%ebp),%esi
c01069eb:	58                   	pop    %eax
c01069ec:	5a                   	pop    %edx
c01069ed:	ff 76 08             	push   0x8(%esi)
c01069f0:	68 2c 77 10 c0       	push   $0xc010772c
c01069f5:	e8 a6 ad ff ff       	call   c01017a0 <printf_>
c01069fa:	c7 04 24 00 00 00 00 	movl   $0x0,(%esp)
c0106a01:	e8 8a fc ff ff       	call   c0106690 <set_debug_output>
c0106a06:	59                   	pop    %ecx
c0106a07:	5f                   	pop    %edi
c0106a08:	56                   	push   %esi
c0106a09:	53                   	push   %ebx
c0106a0a:	e8 b1 fd ff ff       	call   c01067c0 <vv_list_remove>
c0106a0f:	8b 33                	mov    (%ebx),%esi
c0106a11:	83 c4 10             	add    $0x10,%esp
c0106a14:	85 f6                	test   %esi,%esi
c0106a16:	74 36                	je     c0106a4e <main_vv_list+0x21e>
c0106a18:	8d b4 26 00 00 00 00 	lea    0x0(%esi,%eiz,1),%esi
c0106a1f:	90                   	nop
c0106a20:	83 ec 0c             	sub    $0xc,%esp
c0106a23:	6a 01                	push   $0x1
c0106a25:	e8 66 fc ff ff       	call   c0106690 <set_debug_output>
c0106a2a:	59                   	pop    %ecx
c0106a2b:	5f                   	pop    %edi
c0106a2c:	ff 76 08             	push   0x8(%esi)
c0106a2f:	68 36 77 10 c0       	push   $0xc0107736
c0106a34:	e8 67 ad ff ff       	call   c01017a0 <printf_>
c0106a39:	c7 04 24 00 00 00 00 	movl   $0x0,(%esp)
c0106a40:	e8 4b fc ff ff       	call   c0106690 <set_debug_output>
c0106a45:	8b 36                	mov    (%esi),%esi
c0106a47:	83 c4 10             	add    $0x10,%esp
c0106a4a:	85 f6                	test   %esi,%esi
c0106a4c:	75 d2                	jne    c0106a20 <main_vv_list+0x1f0>
c0106a4e:	83 ec 0c             	sub    $0xc,%esp
c0106a51:	6a 01                	push   $0x1
c0106a53:	e8 38 fc ff ff       	call   c0106690 <set_debug_output>
c0106a58:	8b 7d e0             	mov    -0x20(%ebp),%edi
c0106a5b:	59                   	pop    %ecx
c0106a5c:	5e                   	pop    %esi
c0106a5d:	ff 77 08             	push   0x8(%edi)
c0106a60:	68 2c 77 10 c0       	push   $0xc010772c
c0106a65:	e8 36 ad ff ff       	call   c01017a0 <printf_>
c0106a6a:	c7 04 24 00 00 00 00 	movl   $0x0,(%esp)
c0106a71:	e8 1a fc ff ff       	call   c0106690 <set_debug_output>
c0106a76:	58                   	pop    %eax
c0106a77:	5a                   	pop    %edx
c0106a78:	57                   	push   %edi
c0106a79:	53                   	push   %ebx
c0106a7a:	e8 41 fd ff ff       	call   c01067c0 <vv_list_remove>
c0106a7f:	8b 1b                	mov    (%ebx),%ebx
c0106a81:	83 c4 10             	add    $0x10,%esp
c0106a84:	85 db                	test   %ebx,%ebx
c0106a86:	74 36                	je     c0106abe <main_vv_list+0x28e>
c0106a88:	8d b4 26 00 00 00 00 	lea    0x0(%esi,%eiz,1),%esi
c0106a8f:	90                   	nop
c0106a90:	83 ec 0c             	sub    $0xc,%esp
c0106a93:	6a 01                	push   $0x1
c0106a95:	e8 f6 fb ff ff       	call   c0106690 <set_debug_output>
c0106a9a:	58                   	pop    %eax
c0106a9b:	5a                   	pop    %edx
c0106a9c:	ff 73 08             	push   0x8(%ebx)
c0106a9f:	68 36 77 10 c0       	push   $0xc0107736
c0106aa4:	e8 f7 ac ff ff       	call   c01017a0 <printf_>
c0106aa9:	c7 04 24 00 00 00 00 	movl   $0x0,(%esp)
c0106ab0:	e8 db fb ff ff       	call   c0106690 <set_debug_output>
c0106ab5:	8b 1b                	mov    (%ebx),%ebx
c0106ab7:	83 c4 10             	add    $0x10,%esp
c0106aba:	85 db                	test   %ebx,%ebx
c0106abc:	75 d2                	jne    c0106a90 <main_vv_list+0x260>
c0106abe:	8d 65 f4             	lea    -0xc(%ebp),%esp
c0106ac1:	5b                   	pop    %ebx
c0106ac2:	5e                   	pop    %esi
c0106ac3:	5f                   	pop    %edi
c0106ac4:	5d                   	pop    %ebp
c0106ac5:	c3                   	ret    
c0106ac6:	8d b4 26 00 00 00 00 	lea    0x0(%esi,%eiz,1),%esi
c0106acd:	8d 76 00             	lea    0x0(%esi),%esi

c0106ad0 <vv_list_iterate>:
c0106ad0:	55                   	push   %ebp
c0106ad1:	89 e5                	mov    %esp,%ebp
c0106ad3:	56                   	push   %esi
c0106ad4:	8b 45 08             	mov    0x8(%ebp),%eax
c0106ad7:	8b 75 0c             	mov    0xc(%ebp),%esi
c0106ada:	53                   	push   %ebx
c0106adb:	8b 18                	mov    (%eax),%ebx
c0106add:	85 db                	test   %ebx,%ebx
c0106adf:	74 1e                	je     c0106aff <vv_list_iterate+0x2f>
c0106ae1:	8d b4 26 00 00 00 00 	lea    0x0(%esi,%eiz,1),%esi
c0106ae8:	8d b4 26 00 00 00 00 	lea    0x0(%esi,%eiz,1),%esi
c0106aef:	90                   	nop
c0106af0:	83 ec 0c             	sub    $0xc,%esp
c0106af3:	53                   	push   %ebx
c0106af4:	ff d6                	call   *%esi
c0106af6:	8b 1b                	mov    (%ebx),%ebx
c0106af8:	83 c4 10             	add    $0x10,%esp
c0106afb:	85 db                	test   %ebx,%ebx
c0106afd:	75 f1                	jne    c0106af0 <vv_list_iterate+0x20>
c0106aff:	8d 65 f8             	lea    -0x8(%ebp),%esp
c0106b02:	5b                   	pop    %ebx
c0106b03:	5e                   	pop    %esi
c0106b04:	5d                   	pop    %ebp
c0106b05:	c3                   	ret    
