
vvlibc.o:     file format elf32-i386
vvlibc.o
architecture: i386, flags 0x00000011:
HAS_RELOC, HAS_SYMS
start address 0x00000000

Sections:
Idx Name          Size      VMA       LMA       File off  Algn
  0 .init         00000005  00000000  00000000  00000034  2**0
                  CONTENTS, ALLOC, LOAD, RELOC, READONLY, CODE
  1 .text         00005ebc  00000000  00000000  00000040  2**4
                  CONTENTS, ALLOC, LOAD, RELOC, READONLY, CODE
  2 .text.startup 0000001d  00000000  00000000  00005f00  2**4
                  CONTENTS, ALLOC, LOAD, RELOC, READONLY, CODE
  3 .fini         00000005  00000000  00000000  00005f1d  2**0
                  CONTENTS, ALLOC, LOAD, RELOC, READONLY, CODE
  4 .rodata       000034c0  00000000  00000000  00005f40  2**5
                  CONTENTS, ALLOC, LOAD, RELOC, READONLY, DATA
  5 .rodata.str1.4 0000009a  00000000  00000000  00009400  2**2
                  CONTENTS, ALLOC, LOAD, READONLY, DATA
  6 .rodata.str1.1 0000006f  00000000  00000000  0000949a  2**0
                  CONTENTS, ALLOC, LOAD, READONLY, DATA
  7 .rodata.cst8  00000048  00000000  00000000  00009510  2**3
                  CONTENTS, ALLOC, LOAD, READONLY, DATA
  8 .rodata.cst4  00000028  00000000  00000000  00009558  2**2
                  CONTENTS, ALLOC, LOAD, READONLY, DATA
  9 .eh_frame     00000004  00000000  00000000  00009580  2**2
                  CONTENTS, ALLOC, LOAD, DATA
 10 .data         00000004  00000000  00000000  00009584  2**2
                  CONTENTS, ALLOC, LOAD, DATA
 11 .dtors        00000008  00000000  00000000  00009588  2**2
                  CONTENTS, ALLOC, LOAD, DATA
 12 .ctors        0000000c  00000000  00000000  00009590  2**2
                  CONTENTS, ALLOC, LOAD, RELOC, DATA
 13 .bss          00000066  00000000  00000000  000095a0  2**5
                  ALLOC
 14 .comment      00000876  00000000  00000000  000095a0  2**0
                  CONTENTS, READONLY
 15 .debug_aranges 00000e58  00000000  00000000  00009e18  2**3
                  CONTENTS, RELOC, READONLY, DEBUGGING, OCTETS
 16 .debug_info   00009cf6  00000000  00000000  0000ac70  2**0
                  CONTENTS, RELOC, READONLY, DEBUGGING, OCTETS
 17 .debug_abbrev 00005058  00000000  00000000  00014966  2**0
                  CONTENTS, READONLY, DEBUGGING, OCTETS
 18 .debug_line   00007443  00000000  00000000  000199be  2**0
                  CONTENTS, RELOC, READONLY, DEBUGGING, OCTETS
 19 .debug_frame  00001f20  00000000  00000000  00020e04  2**2
                  CONTENTS, RELOC, READONLY, DEBUGGING, OCTETS
 20 .debug_str    00006cd6  00000000  00000000  00022d24  2**0
                  CONTENTS, READONLY, DEBUGGING, OCTETS
 21 .debug_line_str 00005af0  00000000  00000000  000299fa  2**0
                  CONTENTS, READONLY, DEBUGGING, OCTETS
 22 .debug_loclists 00006ba4  00000000  00000000  0002f4ea  2**0
                  CONTENTS, RELOC, READONLY, DEBUGGING, OCTETS
 23 .debug_rnglists 00000465  00000000  00000000  0003608e  2**0
                  CONTENTS, RELOC, READONLY, DEBUGGING, OCTETS
SYMBOL TABLE:
00000000 l    d  .init	00000000 .init
00000000 l    d  .text	00000000 .text
00000000 l    d  .text.startup	00000000 .text.startup
00000000 l    d  .fini	00000000 .fini
00000000 l    d  .rodata	00000000 .rodata
00000000 l    d  .rodata.str1.4	00000000 .rodata.str1.4
00000000 l    d  .rodata.str1.1	00000000 .rodata.str1.1
00000000 l    d  .rodata.cst8	00000000 .rodata.cst8
00000000 l    d  .rodata.cst4	00000000 .rodata.cst4
00000000 l    d  .eh_frame	00000000 .eh_frame
00000000 l    d  .data	00000000 .data
00000000 l    d  .dtors	00000000 .dtors
00000000 l    d  .ctors	00000000 .ctors
00000000 l    d  .bss	00000000 .bss
00000000 l    d  .comment	00000000 .comment
00000000 l    d  .debug_aranges	00000000 .debug_aranges
00000000 l    d  .debug_info	00000000 .debug_info
00000000 l    d  .debug_abbrev	00000000 .debug_abbrev
00000000 l    d  .debug_line	00000000 .debug_line
00000000 l    d  .debug_frame	00000000 .debug_frame
00000000 l    d  .debug_str	00000000 .debug_str
00000000 l    d  .debug_line_str	00000000 .debug_line_str
00000000 l    d  .debug_loclists	00000000 .debug_loclists
00000000 l    d  .debug_rnglists	00000000 .debug_rnglists
00000000 l    df *ABS*	00000000 crtbegin.c
00000040 l     F .text	00000051 __do_init
000000a0 l     F .text	00000059 __do_fini
00000040 l     O .bss	00000001 __initialized.2
00000020 l     O .bss	00000020 __object.1
00000000 l     O .eh_frame	00000004 
00000000 l     O .ctors	00000004 __CTOR_LIST__
00000004 l     O .bss	00000001 __finalized.0
00000000 l     O .dtors	00000004 __DTOR_LIST__
00000000 l    df *ABS*	00000000 _Exit.c
00000000 l    df *ABS*	00000000 abort.c
00000000 l    df *ABS*	00000000 at_exit.c
00000000 l    df *ABS*	00000000 at_quick_exit.c
00000000 l    df *ABS*	00000000 crtend.c
00000000 l    df *ABS*	00000000 cxa_atexit.c
00000000 l    df *ABS*	00000000 exit.c
00000000 l    df *ABS*	00000000 quick_exit.c
00000000 l    df *ABS*	00000000 stack_protection.c
00000000 l     F .text.startup	0000001d __construct_stk_chk_guard
00000000 l    df *ABS*	00000000 isalnum.c
00000000 l    df *ABS*	00000000 isalpha.c
00000000 l    df *ABS*	00000000 isascii.c
00000000 l    df *ABS*	00000000 isblank.c
00000000 l    df *ABS*	00000000 iscntrl.c
00000000 l    df *ABS*	00000000 isdigit.c
00000000 l    df *ABS*	00000000 isgraph.c
00000000 l    df *ABS*	00000000 islower.c
00000000 l    df *ABS*	00000000 isprint.c
00000000 l    df *ABS*	00000000 ispunct.c
00000000 l    df *ABS*	00000000 isspace.c
00000000 l    df *ABS*	00000000 isupper.c
00000000 l    df *ABS*	00000000 isxdigit.c
00000000 l    df *ABS*	00000000 toascii.c
00000000 l    df *ABS*	00000000 tolower.c
00000000 l    df *ABS*	00000000 toupper.c
00000000 l    df *ABS*	00000000 langinfo.c
0000000c l     O .rodata	00000003 c_numeric
00000040 l     O .rodata	0000013c c_time
00000010 l     O .rodata	00000013 c_messages
00000000 l     O .rodata	0000000c __func__.0
00000000 l    df *ABS*	00000000 assert.c
00000000 l    df *ABS*	00000000 printf.c
000004b0 l     F .text	00000016 _out_buffer
000004d0 l     F .text	00000001 _out_null
000004e0 l     F .text	000000df _out_rev
000005c0 l     F .text	000002c1 _ntoa_format
00000890 l     F .text	000000bc _ntoa_long
00000950 l     F .text	00000109 _ntoa_long_long
00000a60 l     F .text	000003ab _etoa
00000e10 l     F .text	0000047f _ftoa
00000320 l     O .rodata	00000050 pow10.0
00001290 l     F .text	0000001c _out_char
000012b0 l     F .text	00000022 _out_fct
000012e0 l     F .text	000008c6 _vsnprintf
00000000 l    df *ABS*	00000000 vv_stubs.c
00000000 l    df *ABS*	00000000 asprintf.c
00000000 l    df *ABS*	00000000 putchar.c
00000000 l    df *ABS*	00000000 putchar_native.c
00000000 l    df *ABS*	00000000 puts.c
00000000 l    df *ABS*	00000000 vasprintf.c
00000000 l    df *ABS*	00000000 abs.c
00000000 l    df *ABS*	00000000 atoi.c
00000000 l    df *ABS*	00000000 atol.c
00000000 l    df *ABS*	00000000 atoll.c
00000000 l    df *ABS*	00000000 bsearch.c
00000000 l    df *ABS*	00000000 calloc.c
00000000 l    df *ABS*	00000000 div.c
00000000 l    df *ABS*	00000000 heapsort.c
00000000 l    df *ABS*	00000000 heapsort_r.c
00000000 l    df *ABS*	00000000 imaxabs.c
00000000 l    df *ABS*	00000000 imaxdiv.c
00000000 l    df *ABS*	00000000 labs.c
00000000 l    df *ABS*	00000000 ldiv.c
00000000 l    df *ABS*	00000000 llabs.c
00000000 l    df *ABS*	00000000 lldiv.c
00000000 l    df *ABS*	00000000 qsort.c
000026a0 l     F .text	0000094d _qsort
00000000 l    df *ABS*	00000000 qsort_r.c
00003030 l     F .text	0000097d _qsort
00000000 l    df *ABS*	00000000 rand.c
00000000 l     O .data	00000004 next
00000000 l    df *ABS*	00000000 realloc.c
00000000 l    df *ABS*	00000000 strtol.c
00000000 l    df *ABS*	00000000 strtoll.c
00000000 l    df *ABS*	00000000 strtoul.c
00000000 l    df *ABS*	00000000 strtoull.c
00000000 l    df *ABS*	00000000 memchr.c
00000000 l    df *ABS*	00000000 memcmp.c
00000000 l    df *ABS*	00000000 memcpy.c
00000000 l    df *ABS*	00000000 memmem.c
00000000 l    df *ABS*	00000000 memmove.c
00000000 l    df *ABS*	00000000 memrchr.c
00000000 l    df *ABS*	00000000 memset.c
00000000 l    df *ABS*	00000000 strcat.c
00000000 l    df *ABS*	00000000 strchr.c
00000000 l    df *ABS*	00000000 strchrnul.c
00000000 l    df *ABS*	00000000 strcmp.c
00000000 l    df *ABS*	00000000 strcoll.c
00000000 l    df *ABS*	00000000 strcpy.c
00000000 l    df *ABS*	00000000 strcspn.c
00000000 l    df *ABS*	00000000 strdup.c
00000000 l    df *ABS*	00000000 strerror.c
00000a60 l     O .rodata	00000055 errid
00000380 l     O .rodata	000006cf errmsg
00000000 l    df *ABS*	00000000 strerror_r.c
00000ab8 l     O .rodata	0000000b __func__.0
00000000 l    df *ABS*	00000000 strlen.c
00000000 l    df *ABS*	00000000 strncat.c
00000000 l    df *ABS*	00000000 strncmp.c
00000000 l    df *ABS*	00000000 strncpy.c
00000000 l    df *ABS*	00000000 strndup.c
00000000 l    df *ABS*	00000000 strnlen.c
00000000 l    df *ABS*	00000000 strnstr.c
00000000 l    df *ABS*	00000000 strpbrk.c
00000000 l    df *ABS*	00000000 strrchr.c
00000000 l    df *ABS*	00000000 strspn.c
00000000 l    df *ABS*	00000000 strstr.c
00000000 l    df *ABS*	00000000 strtok.c
00000048 l     O .bss	00000004 last.0
00000000 l    df *ABS*	00000000 strxfrm.c
00000000 l    df *ABS*	00000000 fls.c
00000000 l    df *ABS*	00000000 flsl.c
00000000 l    df *ABS*	00000000 flsll.c
00000000 l    df *ABS*	00000000 asctime.c
0000004c l     O .bss	0000001a buf.0
00000000 l    df *ABS*	00000000 asctime_r.c
00000ac4 l     O .rodata	0000000a __func__.0
00000000 l    df *ABS*	00000000 iswalnum.c
00000000 l    df *ABS*	00000000 iswalpha.c
00000ae0 l     O .rodata	00000ba0 table
00000000 l    df *ABS*	00000000 iswblank.c
00000000 l    df *ABS*	00000000 iswcntrl.c
00000000 l    df *ABS*	00000000 iswctype.c
00000000 l    df *ABS*	00000000 iswdigit.c
00000000 l    df *ABS*	00000000 iswgraph.c
00000000 l    df *ABS*	00000000 iswlower.c
00000000 l    df *ABS*	00000000 iswprint.c
00000000 l    df *ABS*	00000000 iswpunct.c
000016c0 l     O .rodata	00000c60 table
00000000 l    df *ABS*	00000000 iswspace.c
00002320 l     O .rodata	00000058 spaces.0
00000000 l    df *ABS*	00000000 iswupper.c
00000000 l    df *ABS*	00000000 iswxdigit.c
00000000 l    df *ABS*	00000000 towccase.c
000025c0 l     O .rodata	00000104 casemaps
00002380 l     O .rodata	0000022c pairs
00000000 l    df *ABS*	00000000 towctrans.c
00000000 l    df *ABS*	00000000 towlower.c
00000000 l    df *ABS*	00000000 towupper.c
00000000 l    df *ABS*	00000000 wcswidth.c
00000000 l    df *ABS*	00000000 wctrans.c
00000000 l    df *ABS*	00000000 wctype.c
000026e0 l     O .rodata	00000049 names.0
00000000 l    df *ABS*	00000000 wcwidth.c
00002d40 l     O .rodata	00000780 table
00002740 l     O .rodata	00000600 wtable
00005e8f g     F .text	00000000 longjmp
00001cf0 g     F .text	0000001a putchar
00000004 g     O .dtors	00000004 .hidden __DTOR_LIST_END__
00004da0 g     F .text	0000002b strcpy
00005540 g     F .text	00000015 asctime
00001ca0 g     F .text	00000010 _putchar
00005e58 g     F .text	00000000 setjmp
00000000         *UND*	00000000 __divdi3
00004e90 g     F .text	00000067 strerror
00005130 g     F .text	00000003 strndup
00001c30 g     F .text	00000020 vprintf_
00004b50  w    F .text	00000005 memmove
000053b0 g     F .text	0000009a __strtok_r
00000044  w    O .bss	00000004 __stack_chk_guard
00001e40 g     F .text	00000075 atol
000056b0 g     F .text	00000041 iswcntrl
000058b0 g     F .text	00000041 iswpunct
000001e0 g     F .text	00000019 isblank
00002610 g     F .text	0000000f labs
00005650 g     F .text	00000049 iswalpha
000056a0 g     F .text	00000005 iswblank
00004ac0 g     F .text	00000087 memmem
00001f60 g     F .text	00000064 bsearch
00002ff0 g     F .text	0000003e qsort
00005980 g     F .text	00000025 iswxdigit
00004b60 g     F .text	00000038 __memrchr
000048d0 g     F .text	000001e2 memcpy
00000000         *UND*	00000000 kfree
00001d10 g     F .text	0000005d puts
00000260 g     F .text	00000014 islower
00000370 g     F .text	00000026 tolower
00005840 g     F .text	00000020 iswlower
00001cb0 g     F .text	00000005 malloc
00000120  w    F .text	0000000e quick_exit
00001be0 g     F .text	00000021 sprintf_
00005900 g     F .text	0000002c iswspace
00003e30 g     F .text	00000376 strtoll
000041b0 g     F .text	000002b5 strtoul
00000000 g     O .bss	00000004 .hidden __dso_handle
000054f0 g     F .text	00000047 flsll
000002a0 g     F .text	00000039 ispunct
00000000         *UND*	00000000 __udivmoddi4
000002e0 g     F .text	0000001c isspace
00000000         *UND*	00000000 __umoddi3
00000000  w    F .text	00000002 _Exit
00000000         *UND*	00000000 __udivdi3
00000010  w    F .text	0000000d abort
00000140  w    F .text	00000015 __stack_chk_fail
00000320 g     F .text	00000031 isxdigit
00001c50 g     F .text	00000020 vsnprintf_
00003bc0 g     F .text	00000263 strtol
00005140 g     F .text	00000041 strnlen
00005860 g     F .text	0000004a iswprint
00005260 g     F .text	00000025 strrchr
00001fd0 g     F .text	00000054 calloc
000054b0 g     F .text	00000016 fls
000025b0 g     F .text	00000020 imaxabs
00001c70 g     F .text	0000002d fctprintf
00005800 g     F .text	00000039 iswgraph
00004c10 g     F .text	00000039 strcat
00003a00  w    F .text	00000059 rand_r
00000000  w      *UND*	00000000 __deregister_frame_info
000003d0 g     F .text	000000b4 nl_langinfo
00004c80 g     F .text	000000b8 __strchrnul
000047b0 g     F .text	000000ac memchr
00003b40 g     F .text	0000007f reallocf
00005350 g     F .text	0000005f strstr
00003a60  w    F .text	00000059 rand
000054d0 g     F .text	00000016 flsl
00005700 g     F .text	000000dd iswctype
00004d90 g     F .text	00000005 strcoll
00000300 g     F .text	00000014 isupper
00005060 g     F .text	00000056 strncmp
00000000         *UND*	00000000 term_put_char
000050c0 g     F .text	00000068 strncpy
00005db0 g     F .text	000000a8 wcwidth
000001d0 g     F .text	0000000e isascii
00003ad0 g     F .text	0000006f realloc
00005c80 g     F .text	00000028 towupper
00000100  w    F .text	00000003 __cxa_atexit
00005c10 g     F .text	00000039 towctrans
00005450 g     F .text	00000018 strtok
00000030  w    F .text	00000003 at_quick_exit
00004860  w    F .text	00000070 memcmp
000001b0 g     F .text	00000017 isalpha
00005010 g     F .text	00000044 strncat
00005930 g     F .text	00000024 wcschr
00004e80 g     F .text	00000003 strdup
00004470 g     F .text	00000332 strtoull
000059b0 g     F .text	00000260 __towcase
00005560 g     F .text	00000098 asctime_r
00004ba0  w    F .text	0000006f memset
00003ac0  w    F .text	0000000d srand
00005470 g     F .text	00000040 strxfrm
00005d50 g     F .text	0000005c wctype
00000240 g     F .text	00000014 isgraph
00000490  w    F .text	0000001c __assert_fail
00000160 g     F .text	00000041 isalnum
00000280 g     F .text	00000014 isprint
00000000 g     O .eh_frame	00000004 .hidden __EH_FRAME_LIST_END__
00004d40 g     F .text	0000004e strcmp
00001cd0 g     F .text	00000017 asprintf
00004f00 g     F .text	0000008e strerror_r
00000020  w    F .text	00000003 atexit
00000360 g     F .text	0000000b toascii
00004dd0 g     F .text	000000b0 strcspn
000057e0 g     F .text	00000014 iswdigit
00001c10 g     F .text	0000001f snprintf_
00002300 g     F .text	000002a3 heapsort_r
00002620 g     F .text	00000018 ldiv
00005190 g     F .text	0000009c strnstr
00005960 g     F .text	00000020 iswupper
00000004 g     O .ctors	00000004 .hidden __CTOR_LIST_END__
00002660 g     F .text	0000003c lldiv
00001bb0 g     F .text	00000021 printf_
00000220 g     F .text	00000014 isdigit
000039b0 g     F .text	00000048 qsort_r
00002050 g     F .text	000002a3 heapsort
00000000         *UND*	00000000 __divmoddi4
00000000         *UND*	00000000 kmalloc
00000110  w    F .text	0000000e exit
00005c50 g     F .text	00000028 towlower
00002640 g     F .text	00000020 llabs
00005600 g     F .text	00000041 iswalnum
00001de0 g     F .text	0000005d atoi
00000200 g     F .text	00000019 iscntrl
00000000         *UND*	00000000 __moddi3
00005290 g     F .text	000000b5 strspn
00004f90 g     F .text	00000077 strlen
000003a0 g     F .text	00000026 toupper
00001ec0 g     F .text	0000009c atoll
00002030 g     F .text	00000018 div
00001dd0 g     F .text	0000000f abs
00004c50 g     F .text	00000022 strchr
00005cb0 g     F .text	0000004a wcswidth
000025d0 g     F .text	0000003c imaxdiv
00001d70 g     F .text	00000057 vasprintf
00000000  w      *UND*	00000000 __register_frame_info
00000130  w    F .text	00000006 __stack_chk_guard_init
00005230 g     F .text	00000025 strpbrk
00001cc0 g     F .text	00000005 free
00005d00 g     F .text	00000043 wctrans



Disassembly of section .init:

00000000 <.init>:
   0:	e8 3c 00 00 00       	call   41 <__do_init+0x1>
			1: R_386_PC32	.text

Disassembly of section .text:

00000000 <_Exit>:
       0:	eb fe                	jmp    0 <_Exit>
       2:	66 90                	xchg   %ax,%ax
       4:	66 90                	xchg   %ax,%ax
       6:	66 90                	xchg   %ax,%ax
       8:	66 90                	xchg   %ax,%ax
       a:	66 90                	xchg   %ax,%ax
       c:	66 90                	xchg   %ax,%ax
       e:	66 90                	xchg   %ax,%ax

00000010 <abort>:
      10:	55                   	push   %ebp
      11:	89 e5                	mov    %esp,%ebp
      13:	83 ec 14             	sub    $0x14,%esp
      16:	6a 2d                	push   $0x2d
      18:	e8 fc ff ff ff       	call   19 <abort+0x9>
			19: R_386_PC32	_Exit
      1d:	66 90                	xchg   %ax,%ax
      1f:	90                   	nop

00000020 <atexit>:
      20:	31 c0                	xor    %eax,%eax
      22:	c3                   	ret    
      23:	66 90                	xchg   %ax,%ax
      25:	66 90                	xchg   %ax,%ax
      27:	66 90                	xchg   %ax,%ax
      29:	66 90                	xchg   %ax,%ax
      2b:	66 90                	xchg   %ax,%ax
      2d:	66 90                	xchg   %ax,%ax
      2f:	90                   	nop

00000030 <at_quick_exit>:
      30:	31 c0                	xor    %eax,%eax
      32:	c3                   	ret    
      33:	66 90                	xchg   %ax,%ax
      35:	66 90                	xchg   %ax,%ax
      37:	66 90                	xchg   %ax,%ax
      39:	66 90                	xchg   %ax,%ax
      3b:	66 90                	xchg   %ax,%ax
      3d:	66 90                	xchg   %ax,%ax
      3f:	90                   	nop

00000040 <__do_init>:
      40:	80 3d 40 00 00 00 00 	cmpb   $0x0,0x40
			42: R_386_32	.bss
      47:	75 47                	jne    90 <__do_init+0x50>
      49:	55                   	push   %ebp
      4a:	b8 00 00 00 00       	mov    $0x0,%eax
			4b: R_386_32	__register_frame_info
      4f:	89 e5                	mov    %esp,%ebp
      51:	83 ec 08             	sub    $0x8,%esp
      54:	c6 05 40 00 00 00 01 	movb   $0x1,0x40
			56: R_386_32	.bss
      5b:	85 c0                	test   %eax,%eax
      5d:	74 16                	je     75 <__do_init+0x35>
      5f:	83 ec 08             	sub    $0x8,%esp
      62:	68 20 00 00 00       	push   $0x20
			63: R_386_32	.bss
      67:	ff 35 00 00 00 00    	pushl  0x0
			69: R_386_32	.eh_frame
      6d:	e8 fc ff ff ff       	call   6e <__do_init+0x2e>
			6e: R_386_PC32	__register_frame_info
      72:	83 c4 10             	add    $0x10,%esp
      75:	b8 ff ff ff ff       	mov    $0xffffffff,%eax
			76: R_386_32	__CTOR_LIST_END__
      7a:	2d 00 00 00 00       	sub    $0x0,%eax
			7b: R_386_32	.ctors
      7f:	8b 04 85 00 00 00 00 	mov    0x0(,%eax,4),%eax
			82: R_386_32	.ctors
      86:	c9                   	leave  
      87:	ff e0                	jmp    *%eax
      89:	8d b4 26 00 00 00 00 	lea    0x0(%esi,%eiz,1),%esi
      90:	c3                   	ret    
      91:	8d b4 26 00 00 00 00 	lea    0x0(%esi,%eiz,1),%esi
      98:	8d b4 26 00 00 00 00 	lea    0x0(%esi,%eiz,1),%esi
      9f:	90                   	nop

000000a0 <__do_fini>:
      a0:	80 3d 04 00 00 00 00 	cmpb   $0x0,0x4
			a2: R_386_32	.bss
      a7:	75 4f                	jne    f8 <__do_fini+0x58>
      a9:	55                   	push   %ebp
      aa:	b8 00 00 00 00       	mov    $0x0,%eax
			ab: R_386_32	__deregister_frame_info
      af:	89 e5                	mov    %esp,%ebp
      b1:	56                   	push   %esi
      b2:	53                   	push   %ebx
      b3:	c6 05 04 00 00 00 01 	movb   $0x1,0x4
			b5: R_386_32	.bss
      ba:	85 c0                	test   %eax,%eax
      bc:	74 11                	je     cf <__do_fini+0x2f>
      be:	83 ec 0c             	sub    $0xc,%esp
      c1:	ff 35 00 00 00 00    	pushl  0x0
			c3: R_386_32	.eh_frame
      c7:	e8 fc ff ff ff       	call   c8 <__do_fini+0x28>
			c8: R_386_PC32	__deregister_frame_info
      cc:	83 c4 10             	add    $0x10,%esp
      cf:	be ff ff ff ff       	mov    $0xffffffff,%esi
			d0: R_386_32	__DTOR_LIST_END__
      d4:	bb 01 00 00 00       	mov    $0x1,%ebx
      d9:	81 ee 00 00 00 00    	sub    $0x0,%esi
			db: R_386_32	.dtors
      df:	90                   	nop
      e0:	ff 14 9d 00 00 00 00 	call   *0x0(,%ebx,4)
			e3: R_386_32	.dtors
      e7:	83 c3 01             	add    $0x1,%ebx
      ea:	39 f3                	cmp    %esi,%ebx
      ec:	72 f2                	jb     e0 <__do_fini+0x40>
      ee:	8d 65 f8             	lea    -0x8(%ebp),%esp
      f1:	5b                   	pop    %ebx
      f2:	5e                   	pop    %esi
      f3:	5d                   	pop    %ebp
      f4:	c3                   	ret    
      f5:	8d 76 00             	lea    0x0(%esi),%esi
      f8:	c3                   	ret    
      f9:	66 90                	xchg   %ax,%ax
      fb:	66 90                	xchg   %ax,%ax
      fd:	66 90                	xchg   %ax,%ax
      ff:	90                   	nop

00000100 <__cxa_atexit>:
     100:	31 c0                	xor    %eax,%eax
     102:	c3                   	ret    
     103:	66 90                	xchg   %ax,%ax
     105:	66 90                	xchg   %ax,%ax
     107:	66 90                	xchg   %ax,%ax
     109:	66 90                	xchg   %ax,%ax
     10b:	66 90                	xchg   %ax,%ax
     10d:	66 90                	xchg   %ax,%ax
     10f:	90                   	nop

00000110 <exit>:
     110:	55                   	push   %ebp
     111:	89 e5                	mov    %esp,%ebp
     113:	83 ec 14             	sub    $0x14,%esp
     116:	ff 75 08             	pushl  0x8(%ebp)
     119:	e8 fc ff ff ff       	call   11a <exit+0xa>
			11a: R_386_PC32	_Exit
     11e:	66 90                	xchg   %ax,%ax

00000120 <quick_exit>:
     120:	55                   	push   %ebp
     121:	89 e5                	mov    %esp,%ebp
     123:	83 ec 14             	sub    $0x14,%esp
     126:	ff 75 08             	pushl  0x8(%ebp)
     129:	e8 fc ff ff ff       	call   12a <quick_exit+0xa>
			12a: R_386_PC32	_Exit
     12e:	66 90                	xchg   %ax,%ax

00000130 <__stack_chk_guard_init>:
     130:	b8 8d cc f3 a5       	mov    $0xa5f3cc8d,%eax
     135:	c3                   	ret    
     136:	8d b4 26 00 00 00 00 	lea    0x0(%esi,%eiz,1),%esi
     13d:	8d 76 00             	lea    0x0(%esi),%esi

00000140 <__stack_chk_fail>:
     140:	55                   	push   %ebp
     141:	89 e5                	mov    %esp,%ebp
     143:	83 ec 14             	sub    $0x14,%esp
     146:	68 00 00 00 00       	push   $0x0
			147: R_386_32	.rodata.str1.4
     14b:	e8 fc ff ff ff       	call   14c <__stack_chk_fail+0xc>
			14c: R_386_PC32	printf_
     150:	e8 fc ff ff ff       	call   151 <__stack_chk_fail+0x11>
			151: R_386_PC32	abort
     155:	66 90                	xchg   %ax,%ax
     157:	66 90                	xchg   %ax,%ax
     159:	66 90                	xchg   %ax,%ax
     15b:	66 90                	xchg   %ax,%ax
     15d:	66 90                	xchg   %ax,%ax
     15f:	90                   	nop

00000160 <isalnum>:
     160:	55                   	push   %ebp
     161:	89 e5                	mov    %esp,%ebp
     163:	53                   	push   %ebx
     164:	83 ec 10             	sub    $0x10,%esp
     167:	8b 5d 08             	mov    0x8(%ebp),%ebx
     16a:	53                   	push   %ebx
     16b:	e8 fc ff ff ff       	call   16c <isalnum+0xc>
			16c: R_386_PC32	isalpha
     170:	83 c4 10             	add    $0x10,%esp
     173:	89 c2                	mov    %eax,%edx
     175:	b8 01 00 00 00       	mov    $0x1,%eax
     17a:	85 d2                	test   %edx,%edx
     17c:	74 0a                	je     188 <isalnum+0x28>
     17e:	8b 5d fc             	mov    -0x4(%ebp),%ebx
     181:	c9                   	leave  
     182:	c3                   	ret    
     183:	8d 74 26 00          	lea    0x0(%esi,%eiz,1),%esi
     187:	90                   	nop
     188:	83 ec 0c             	sub    $0xc,%esp
     18b:	53                   	push   %ebx
     18c:	e8 fc ff ff ff       	call   18d <isalnum+0x2d>
			18d: R_386_PC32	isdigit
     191:	83 c4 10             	add    $0x10,%esp
     194:	8b 5d fc             	mov    -0x4(%ebp),%ebx
     197:	c9                   	leave  
     198:	85 c0                	test   %eax,%eax
     19a:	0f 95 c0             	setne  %al
     19d:	0f b6 c0             	movzbl %al,%eax
     1a0:	c3                   	ret    
     1a1:	66 90                	xchg   %ax,%ax
     1a3:	66 90                	xchg   %ax,%ax
     1a5:	66 90                	xchg   %ax,%ax
     1a7:	66 90                	xchg   %ax,%ax
     1a9:	66 90                	xchg   %ax,%ax
     1ab:	66 90                	xchg   %ax,%ax
     1ad:	66 90                	xchg   %ax,%ax
     1af:	90                   	nop

000001b0 <isalpha>:
     1b0:	55                   	push   %ebp
     1b1:	89 e5                	mov    %esp,%ebp
     1b3:	8b 45 08             	mov    0x8(%ebp),%eax
     1b6:	5d                   	pop    %ebp
     1b7:	83 c8 20             	or     $0x20,%eax
     1ba:	83 e8 61             	sub    $0x61,%eax
     1bd:	83 f8 19             	cmp    $0x19,%eax
     1c0:	0f 96 c0             	setbe  %al
     1c3:	0f b6 c0             	movzbl %al,%eax
     1c6:	c3                   	ret    
     1c7:	66 90                	xchg   %ax,%ax
     1c9:	66 90                	xchg   %ax,%ax
     1cb:	66 90                	xchg   %ax,%ax
     1cd:	66 90                	xchg   %ax,%ax
     1cf:	90                   	nop

000001d0 <isascii>:
     1d0:	55                   	push   %ebp
     1d1:	31 c0                	xor    %eax,%eax
     1d3:	89 e5                	mov    %esp,%ebp
     1d5:	83 7d 08 7f          	cmpl   $0x7f,0x8(%ebp)
     1d9:	5d                   	pop    %ebp
     1da:	0f 96 c0             	setbe  %al
     1dd:	c3                   	ret    
     1de:	66 90                	xchg   %ax,%ax

000001e0 <isblank>:
     1e0:	55                   	push   %ebp
     1e1:	89 e5                	mov    %esp,%ebp
     1e3:	8b 55 08             	mov    0x8(%ebp),%edx
     1e6:	5d                   	pop    %ebp
     1e7:	83 fa 20             	cmp    $0x20,%edx
     1ea:	0f 94 c0             	sete   %al
     1ed:	83 fa 09             	cmp    $0x9,%edx
     1f0:	0f 94 c2             	sete   %dl
     1f3:	09 d0                	or     %edx,%eax
     1f5:	0f b6 c0             	movzbl %al,%eax
     1f8:	c3                   	ret    
     1f9:	66 90                	xchg   %ax,%ax
     1fb:	66 90                	xchg   %ax,%ax
     1fd:	66 90                	xchg   %ax,%ax
     1ff:	90                   	nop

00000200 <iscntrl>:
     200:	55                   	push   %ebp
     201:	89 e5                	mov    %esp,%ebp
     203:	8b 55 08             	mov    0x8(%ebp),%edx
     206:	5d                   	pop    %ebp
     207:	83 fa 1f             	cmp    $0x1f,%edx
     20a:	0f 96 c0             	setbe  %al
     20d:	83 fa 7f             	cmp    $0x7f,%edx
     210:	0f 94 c2             	sete   %dl
     213:	09 d0                	or     %edx,%eax
     215:	0f b6 c0             	movzbl %al,%eax
     218:	c3                   	ret    
     219:	66 90                	xchg   %ax,%ax
     21b:	66 90                	xchg   %ax,%ax
     21d:	66 90                	xchg   %ax,%ax
     21f:	90                   	nop

00000220 <isdigit>:
     220:	55                   	push   %ebp
     221:	89 e5                	mov    %esp,%ebp
     223:	8b 45 08             	mov    0x8(%ebp),%eax
     226:	5d                   	pop    %ebp
     227:	83 e8 30             	sub    $0x30,%eax
     22a:	83 f8 09             	cmp    $0x9,%eax
     22d:	0f 96 c0             	setbe  %al
     230:	0f b6 c0             	movzbl %al,%eax
     233:	c3                   	ret    
     234:	66 90                	xchg   %ax,%ax
     236:	66 90                	xchg   %ax,%ax
     238:	66 90                	xchg   %ax,%ax
     23a:	66 90                	xchg   %ax,%ax
     23c:	66 90                	xchg   %ax,%ax
     23e:	66 90                	xchg   %ax,%ax

00000240 <isgraph>:
     240:	55                   	push   %ebp
     241:	89 e5                	mov    %esp,%ebp
     243:	8b 45 08             	mov    0x8(%ebp),%eax
     246:	5d                   	pop    %ebp
     247:	83 e8 21             	sub    $0x21,%eax
     24a:	83 f8 5d             	cmp    $0x5d,%eax
     24d:	0f 96 c0             	setbe  %al
     250:	0f b6 c0             	movzbl %al,%eax
     253:	c3                   	ret    
     254:	66 90                	xchg   %ax,%ax
     256:	66 90                	xchg   %ax,%ax
     258:	66 90                	xchg   %ax,%ax
     25a:	66 90                	xchg   %ax,%ax
     25c:	66 90                	xchg   %ax,%ax
     25e:	66 90                	xchg   %ax,%ax

00000260 <islower>:
     260:	55                   	push   %ebp
     261:	89 e5                	mov    %esp,%ebp
     263:	8b 45 08             	mov    0x8(%ebp),%eax
     266:	5d                   	pop    %ebp
     267:	83 e8 61             	sub    $0x61,%eax
     26a:	83 f8 19             	cmp    $0x19,%eax
     26d:	0f 96 c0             	setbe  %al
     270:	0f b6 c0             	movzbl %al,%eax
     273:	c3                   	ret    
     274:	66 90                	xchg   %ax,%ax
     276:	66 90                	xchg   %ax,%ax
     278:	66 90                	xchg   %ax,%ax
     27a:	66 90                	xchg   %ax,%ax
     27c:	66 90                	xchg   %ax,%ax
     27e:	66 90                	xchg   %ax,%ax

00000280 <isprint>:
     280:	55                   	push   %ebp
     281:	89 e5                	mov    %esp,%ebp
     283:	8b 45 08             	mov    0x8(%ebp),%eax
     286:	5d                   	pop    %ebp
     287:	83 e8 20             	sub    $0x20,%eax
     28a:	83 f8 5e             	cmp    $0x5e,%eax
     28d:	0f 96 c0             	setbe  %al
     290:	0f b6 c0             	movzbl %al,%eax
     293:	c3                   	ret    
     294:	66 90                	xchg   %ax,%ax
     296:	66 90                	xchg   %ax,%ax
     298:	66 90                	xchg   %ax,%ax
     29a:	66 90                	xchg   %ax,%ax
     29c:	66 90                	xchg   %ax,%ax
     29e:	66 90                	xchg   %ax,%ax

000002a0 <ispunct>:
     2a0:	55                   	push   %ebp
     2a1:	89 e5                	mov    %esp,%ebp
     2a3:	53                   	push   %ebx
     2a4:	83 ec 10             	sub    $0x10,%esp
     2a7:	8b 5d 08             	mov    0x8(%ebp),%ebx
     2aa:	53                   	push   %ebx
     2ab:	e8 fc ff ff ff       	call   2ac <ispunct+0xc>
			2ac: R_386_PC32	isgraph
     2b0:	83 c4 10             	add    $0x10,%esp
     2b3:	85 c0                	test   %eax,%eax
     2b5:	75 09                	jne    2c0 <ispunct+0x20>
     2b7:	8b 5d fc             	mov    -0x4(%ebp),%ebx
     2ba:	c9                   	leave  
     2bb:	c3                   	ret    
     2bc:	8d 74 26 00          	lea    0x0(%esi,%eiz,1),%esi
     2c0:	83 ec 0c             	sub    $0xc,%esp
     2c3:	53                   	push   %ebx
     2c4:	e8 fc ff ff ff       	call   2c5 <ispunct+0x25>
			2c5: R_386_PC32	isalnum
     2c9:	83 c4 10             	add    $0x10,%esp
     2cc:	8b 5d fc             	mov    -0x4(%ebp),%ebx
     2cf:	c9                   	leave  
     2d0:	85 c0                	test   %eax,%eax
     2d2:	0f 94 c0             	sete   %al
     2d5:	0f b6 c0             	movzbl %al,%eax
     2d8:	c3                   	ret    
     2d9:	66 90                	xchg   %ax,%ax
     2db:	66 90                	xchg   %ax,%ax
     2dd:	66 90                	xchg   %ax,%ax
     2df:	90                   	nop

000002e0 <isspace>:
     2e0:	55                   	push   %ebp
     2e1:	89 e5                	mov    %esp,%ebp
     2e3:	8b 55 08             	mov    0x8(%ebp),%edx
     2e6:	5d                   	pop    %ebp
     2e7:	8d 42 f7             	lea    -0x9(%edx),%eax
     2ea:	83 f8 04             	cmp    $0x4,%eax
     2ed:	0f 96 c0             	setbe  %al
     2f0:	83 fa 20             	cmp    $0x20,%edx
     2f3:	0f 94 c2             	sete   %dl
     2f6:	09 d0                	or     %edx,%eax
     2f8:	0f b6 c0             	movzbl %al,%eax
     2fb:	c3                   	ret    
     2fc:	66 90                	xchg   %ax,%ax
     2fe:	66 90                	xchg   %ax,%ax

00000300 <isupper>:
     300:	55                   	push   %ebp
     301:	89 e5                	mov    %esp,%ebp
     303:	8b 45 08             	mov    0x8(%ebp),%eax
     306:	5d                   	pop    %ebp
     307:	83 e8 41             	sub    $0x41,%eax
     30a:	83 f8 19             	cmp    $0x19,%eax
     30d:	0f 96 c0             	setbe  %al
     310:	0f b6 c0             	movzbl %al,%eax
     313:	c3                   	ret    
     314:	66 90                	xchg   %ax,%ax
     316:	66 90                	xchg   %ax,%ax
     318:	66 90                	xchg   %ax,%ax
     31a:	66 90                	xchg   %ax,%ax
     31c:	66 90                	xchg   %ax,%ax
     31e:	66 90                	xchg   %ax,%ax

00000320 <isxdigit>:
     320:	55                   	push   %ebp
     321:	89 e5                	mov    %esp,%ebp
     323:	53                   	push   %ebx
     324:	83 ec 10             	sub    $0x10,%esp
     327:	8b 5d 08             	mov    0x8(%ebp),%ebx
     32a:	53                   	push   %ebx
     32b:	e8 fc ff ff ff       	call   32c <isxdigit+0xc>
			32c: R_386_PC32	isdigit
     330:	83 c4 10             	add    $0x10,%esp
     333:	89 c2                	mov    %eax,%edx
     335:	b8 01 00 00 00       	mov    $0x1,%eax
     33a:	85 d2                	test   %edx,%edx
     33c:	75 0e                	jne    34c <isxdigit+0x2c>
     33e:	83 cb 20             	or     $0x20,%ebx
     341:	31 c0                	xor    %eax,%eax
     343:	83 eb 61             	sub    $0x61,%ebx
     346:	83 fb 05             	cmp    $0x5,%ebx
     349:	0f 96 c0             	setbe  %al
     34c:	8b 5d fc             	mov    -0x4(%ebp),%ebx
     34f:	c9                   	leave  
     350:	c3                   	ret    
     351:	66 90                	xchg   %ax,%ax
     353:	66 90                	xchg   %ax,%ax
     355:	66 90                	xchg   %ax,%ax
     357:	66 90                	xchg   %ax,%ax
     359:	66 90                	xchg   %ax,%ax
     35b:	66 90                	xchg   %ax,%ax
     35d:	66 90                	xchg   %ax,%ax
     35f:	90                   	nop

00000360 <toascii>:
     360:	55                   	push   %ebp
     361:	89 e5                	mov    %esp,%ebp
     363:	8b 45 08             	mov    0x8(%ebp),%eax
     366:	5d                   	pop    %ebp
     367:	83 e0 7f             	and    $0x7f,%eax
     36a:	c3                   	ret    
     36b:	66 90                	xchg   %ax,%ax
     36d:	66 90                	xchg   %ax,%ax
     36f:	90                   	nop

00000370 <tolower>:
     370:	55                   	push   %ebp
     371:	89 e5                	mov    %esp,%ebp
     373:	53                   	push   %ebx
     374:	83 ec 10             	sub    $0x10,%esp
     377:	8b 5d 08             	mov    0x8(%ebp),%ebx
     37a:	53                   	push   %ebx
     37b:	e8 fc ff ff ff       	call   37c <tolower+0xc>
			37c: R_386_PC32	isupper
     380:	83 c4 10             	add    $0x10,%esp
     383:	89 c2                	mov    %eax,%edx
     385:	89 d8                	mov    %ebx,%eax
     387:	83 c8 20             	or     $0x20,%eax
     38a:	85 d2                	test   %edx,%edx
     38c:	0f 45 d8             	cmovne %eax,%ebx
     38f:	89 d8                	mov    %ebx,%eax
     391:	8b 5d fc             	mov    -0x4(%ebp),%ebx
     394:	c9                   	leave  
     395:	c3                   	ret    
     396:	66 90                	xchg   %ax,%ax
     398:	66 90                	xchg   %ax,%ax
     39a:	66 90                	xchg   %ax,%ax
     39c:	66 90                	xchg   %ax,%ax
     39e:	66 90                	xchg   %ax,%ax

000003a0 <toupper>:
     3a0:	55                   	push   %ebp
     3a1:	89 e5                	mov    %esp,%ebp
     3a3:	53                   	push   %ebx
     3a4:	83 ec 10             	sub    $0x10,%esp
     3a7:	8b 5d 08             	mov    0x8(%ebp),%ebx
     3aa:	53                   	push   %ebx
     3ab:	e8 fc ff ff ff       	call   3ac <toupper+0xc>
			3ac: R_386_PC32	islower
     3b0:	83 c4 10             	add    $0x10,%esp
     3b3:	89 c2                	mov    %eax,%edx
     3b5:	89 d8                	mov    %ebx,%eax
     3b7:	83 e0 5f             	and    $0x5f,%eax
     3ba:	85 d2                	test   %edx,%edx
     3bc:	0f 45 d8             	cmovne %eax,%ebx
     3bf:	89 d8                	mov    %ebx,%eax
     3c1:	8b 5d fc             	mov    -0x4(%ebp),%ebx
     3c4:	c9                   	leave  
     3c5:	c3                   	ret    
     3c6:	66 90                	xchg   %ax,%ax
     3c8:	66 90                	xchg   %ax,%ax
     3ca:	66 90                	xchg   %ax,%ax
     3cc:	66 90                	xchg   %ax,%ax
     3ce:	66 90                	xchg   %ax,%ax

000003d0 <nl_langinfo>:
     3d0:	55                   	push   %ebp
     3d1:	89 e5                	mov    %esp,%ebp
     3d3:	53                   	push   %ebx
     3d4:	83 ec 04             	sub    $0x4,%esp
     3d7:	8b 5d 08             	mov    0x8(%ebp),%ebx
     3da:	89 d9                	mov    %ebx,%ecx
     3dc:	c1 f9 10             	sar    $0x10,%ecx
     3df:	83 fb 0e             	cmp    $0xe,%ebx
     3e2:	0f 84 86 00 00 00    	je     46e <nl_langinfo+0x9e>
     3e8:	0f b7 d3             	movzwl %bx,%edx
     3eb:	81 fa ff ff 00 00    	cmp    $0xffff,%edx
     3f1:	75 05                	jne    3f8 <nl_langinfo+0x28>
     3f3:	83 f9 05             	cmp    $0x5,%ecx
     3f6:	7e 60                	jle    458 <nl_langinfo+0x88>
     3f8:	b8 00 00 00 00       	mov    $0x0,%eax
			3f9: R_386_32	.rodata.str1.1
     3fd:	83 f9 02             	cmp    $0x2,%ecx
     400:	74 3b                	je     43d <nl_langinfo+0x6d>
     402:	83 f9 05             	cmp    $0x5,%ecx
     405:	74 42                	je     449 <nl_langinfo+0x79>
     407:	83 f9 01             	cmp    $0x1,%ecx
     40a:	74 05                	je     411 <nl_langinfo+0x41>
     40c:	8b 5d fc             	mov    -0x4(%ebp),%ebx
     40f:	c9                   	leave  
     410:	c3                   	ret    
     411:	81 e3 fe ff 00 00    	and    $0xfffe,%ebx
     417:	75 f3                	jne    40c <nl_langinfo+0x3c>
     419:	b8 0c 00 00 00       	mov    $0xc,%eax
			41a: R_386_32	.rodata
     41e:	85 d2                	test   %edx,%edx
     420:	75 09                	jne    42b <nl_langinfo+0x5b>
     422:	eb e8                	jmp    40c <nl_langinfo+0x3c>
     424:	8d 74 26 00          	lea    0x0(%esi,%eiz,1),%esi
     428:	83 c0 01             	add    $0x1,%eax
     42b:	80 38 00             	cmpb   $0x0,(%eax)
     42e:	75 f8                	jne    428 <nl_langinfo+0x58>
     430:	83 c0 01             	add    $0x1,%eax
     433:	83 ea 01             	sub    $0x1,%edx
     436:	75 f3                	jne    42b <nl_langinfo+0x5b>
     438:	8b 5d fc             	mov    -0x4(%ebp),%ebx
     43b:	c9                   	leave  
     43c:	c3                   	ret    
     43d:	83 fa 31             	cmp    $0x31,%edx
     440:	7f ca                	jg     40c <nl_langinfo+0x3c>
     442:	b8 40 00 00 00       	mov    $0x40,%eax
			443: R_386_32	.rodata
     447:	eb d5                	jmp    41e <nl_langinfo+0x4e>
     449:	81 e3 fc ff 00 00    	and    $0xfffc,%ebx
     44f:	75 bb                	jne    40c <nl_langinfo+0x3c>
     451:	b8 10 00 00 00       	mov    $0x10,%eax
			452: R_386_32	.rodata
     456:	eb c6                	jmp    41e <nl_langinfo+0x4e>
     458:	68 00 00 00 00       	push   $0x0
			459: R_386_32	.rodata
     45d:	6a 4f                	push   $0x4f
     45f:	68 01 00 00 00       	push   $0x1
			460: R_386_32	.rodata.str1.1
     464:	68 17 00 00 00       	push   $0x17
			465: R_386_32	.rodata.str1.1
     469:	e8 fc ff ff ff       	call   46a <nl_langinfo+0x9a>
			46a: R_386_PC32	__assert_fail
     46e:	68 00 00 00 00       	push   $0x0
			46f: R_386_32	.rodata
     473:	6a 48                	push   $0x48
     475:	68 01 00 00 00       	push   $0x1
			476: R_386_32	.rodata.str1.1
     47a:	68 17 00 00 00       	push   $0x17
			47b: R_386_32	.rodata.str1.1
     47f:	e8 fc ff ff ff       	call   480 <nl_langinfo+0xb0>
			480: R_386_PC32	__assert_fail
     484:	66 90                	xchg   %ax,%ax
     486:	66 90                	xchg   %ax,%ax
     488:	66 90                	xchg   %ax,%ax
     48a:	66 90                	xchg   %ax,%ax
     48c:	66 90                	xchg   %ax,%ax
     48e:	66 90                	xchg   %ax,%ax

00000490 <__assert_fail>:
     490:	55                   	push   %ebp
     491:	89 e5                	mov    %esp,%ebp
     493:	83 ec 14             	sub    $0x14,%esp
     496:	ff 75 10             	pushl  0x10(%ebp)
     499:	ff 75 14             	pushl  0x14(%ebp)
     49c:	ff 75 0c             	pushl  0xc(%ebp)
     49f:	ff 75 08             	pushl  0x8(%ebp)
     4a2:	68 2c 00 00 00       	push   $0x2c
			4a3: R_386_32	.rodata.str1.4
     4a7:	e8 fc ff ff ff       	call   4a8 <__assert_fail+0x18>
			4a8: R_386_PC32	printf_
     4ac:	66 90                	xchg   %ax,%ax
     4ae:	66 90                	xchg   %ax,%ax

000004b0 <_out_buffer>:
     4b0:	55                   	push   %ebp
     4b1:	89 e5                	mov    %esp,%ebp
     4b3:	8b 55 08             	mov    0x8(%ebp),%edx
     4b6:	8b 45 10             	mov    0x10(%ebp),%eax
     4b9:	3b 45 14             	cmp    0x14(%ebp),%eax
     4bc:	73 06                	jae    4c4 <_out_buffer+0x14>
     4be:	8b 4d 0c             	mov    0xc(%ebp),%ecx
     4c1:	88 14 01             	mov    %dl,(%ecx,%eax,1)
     4c4:	5d                   	pop    %ebp
     4c5:	c3                   	ret    
     4c6:	8d b4 26 00 00 00 00 	lea    0x0(%esi,%eiz,1),%esi
     4cd:	8d 76 00             	lea    0x0(%esi),%esi

000004d0 <_out_null>:
     4d0:	c3                   	ret    
     4d1:	8d b4 26 00 00 00 00 	lea    0x0(%esi,%eiz,1),%esi
     4d8:	8d b4 26 00 00 00 00 	lea    0x0(%esi,%eiz,1),%esi
     4df:	90                   	nop

000004e0 <_out_rev>:
     4e0:	55                   	push   %ebp
     4e1:	89 e5                	mov    %esp,%ebp
     4e3:	57                   	push   %edi
     4e4:	56                   	push   %esi
     4e5:	89 d6                	mov    %edx,%esi
     4e7:	89 ca                	mov    %ecx,%edx
     4e9:	53                   	push   %ebx
     4ea:	89 c3                	mov    %eax,%ebx
     4ec:	83 ec 1c             	sub    $0x1c,%esp
     4ef:	89 4d dc             	mov    %ecx,-0x24(%ebp)
     4f2:	f6 45 18 03          	testb  $0x3,0x18(%ebp)
     4f6:	75 39                	jne    531 <_out_rev+0x51>
     4f8:	8b 55 14             	mov    0x14(%ebp),%edx
     4fb:	2b 55 10             	sub    0x10(%ebp),%edx
     4fe:	89 cf                	mov    %ecx,%edi
     500:	8b 45 14             	mov    0x14(%ebp),%eax
     503:	01 ca                	add    %ecx,%edx
     505:	39 45 10             	cmp    %eax,0x10(%ebp)
     508:	0f 83 aa 00 00 00    	jae    5b8 <_out_rev+0xd8>
     50e:	89 55 e4             	mov    %edx,-0x1c(%ebp)
     511:	8d b4 26 00 00 00 00 	lea    0x0(%esi,%eiz,1),%esi
     518:	89 fa                	mov    %edi,%edx
     51a:	ff 75 08             	pushl  0x8(%ebp)
     51d:	83 c7 01             	add    $0x1,%edi
     520:	52                   	push   %edx
     521:	56                   	push   %esi
     522:	6a 20                	push   $0x20
     524:	ff d3                	call   *%ebx
     526:	83 c4 10             	add    $0x10,%esp
     529:	39 7d e4             	cmp    %edi,-0x1c(%ebp)
     52c:	75 ea                	jne    518 <_out_rev+0x38>
     52e:	8b 55 e4             	mov    -0x1c(%ebp),%edx
     531:	8b 7d 10             	mov    0x10(%ebp),%edi
     534:	8d 04 17             	lea    (%edi,%edx,1),%eax
     537:	85 ff                	test   %edi,%edi
     539:	74 36                	je     571 <_out_rev+0x91>
     53b:	89 5d e4             	mov    %ebx,-0x1c(%ebp)
     53e:	89 fb                	mov    %edi,%ebx
     540:	89 c7                	mov    %eax,%edi
     542:	8d b6 00 00 00 00    	lea    0x0(%esi),%esi
     548:	89 fa                	mov    %edi,%edx
     54a:	89 7d e0             	mov    %edi,-0x20(%ebp)
     54d:	29 da                	sub    %ebx,%edx
     54f:	ff 75 08             	pushl  0x8(%ebp)
     552:	83 eb 01             	sub    $0x1,%ebx
     555:	52                   	push   %edx
     556:	56                   	push   %esi
     557:	8b 45 0c             	mov    0xc(%ebp),%eax
     55a:	0f be 14 18          	movsbl (%eax,%ebx,1),%edx
     55e:	8b 45 e4             	mov    -0x1c(%ebp),%eax
     561:	52                   	push   %edx
     562:	ff d0                	call   *%eax
     564:	83 c4 10             	add    $0x10,%esp
     567:	85 db                	test   %ebx,%ebx
     569:	75 dd                	jne    548 <_out_rev+0x68>
     56b:	8b 55 e0             	mov    -0x20(%ebp),%edx
     56e:	8b 5d e4             	mov    -0x1c(%ebp),%ebx
     571:	f6 45 18 02          	testb  $0x2,0x18(%ebp)
     575:	74 37                	je     5ae <_out_rev+0xce>
     577:	8b 45 dc             	mov    -0x24(%ebp),%eax
     57a:	89 d7                	mov    %edx,%edi
     57c:	29 c7                	sub    %eax,%edi
     57e:	3b 7d 14             	cmp    0x14(%ebp),%edi
     581:	73 2b                	jae    5ae <_out_rev+0xce>
     583:	89 5d e4             	mov    %ebx,-0x1c(%ebp)
     586:	89 d3                	mov    %edx,%ebx
     588:	8d b4 26 00 00 00 00 	lea    0x0(%esi,%eiz,1),%esi
     58f:	90                   	nop
     590:	89 d9                	mov    %ebx,%ecx
     592:	ff 75 08             	pushl  0x8(%ebp)
     595:	8b 45 e4             	mov    -0x1c(%ebp),%eax
     598:	83 c3 01             	add    $0x1,%ebx
     59b:	51                   	push   %ecx
     59c:	83 c7 01             	add    $0x1,%edi
     59f:	56                   	push   %esi
     5a0:	6a 20                	push   $0x20
     5a2:	ff d0                	call   *%eax
     5a4:	83 c4 10             	add    $0x10,%esp
     5a7:	3b 7d 14             	cmp    0x14(%ebp),%edi
     5aa:	72 e4                	jb     590 <_out_rev+0xb0>
     5ac:	89 da                	mov    %ebx,%edx
     5ae:	8d 65 f4             	lea    -0xc(%ebp),%esp
     5b1:	89 d0                	mov    %edx,%eax
     5b3:	5b                   	pop    %ebx
     5b4:	5e                   	pop    %esi
     5b5:	5f                   	pop    %edi
     5b6:	5d                   	pop    %ebp
     5b7:	c3                   	ret    
     5b8:	89 ca                	mov    %ecx,%edx
     5ba:	e9 72 ff ff ff       	jmp    531 <_out_rev+0x51>
     5bf:	90                   	nop

000005c0 <_ntoa_format>:
     5c0:	55                   	push   %ebp
     5c1:	89 e5                	mov    %esp,%ebp
     5c3:	57                   	push   %edi
     5c4:	56                   	push   %esi
     5c5:	53                   	push   %ebx
     5c6:	83 ec 2c             	sub    $0x2c,%esp
     5c9:	8b 75 14             	mov    0x14(%ebp),%esi
     5cc:	8b 5d 18             	mov    0x18(%ebp),%ebx
     5cf:	89 45 e0             	mov    %eax,-0x20(%ebp)
     5d2:	8b 7d 08             	mov    0x8(%ebp),%edi
     5d5:	8b 45 10             	mov    0x10(%ebp),%eax
     5d8:	89 55 dc             	mov    %edx,-0x24(%ebp)
     5db:	89 75 cc             	mov    %esi,-0x34(%ebp)
     5de:	8b 75 24             	mov    0x24(%ebp),%esi
     5e1:	89 5d d0             	mov    %ebx,-0x30(%ebp)
     5e4:	8b 5d 1c             	mov    0x1c(%ebp),%ebx
     5e7:	89 4d d8             	mov    %ecx,-0x28(%ebp)
     5ea:	8b 55 0c             	mov    0xc(%ebp),%edx
     5ed:	89 5d e4             	mov    %ebx,-0x1c(%ebp)
     5f0:	8b 4d 20             	mov    0x20(%ebp),%ecx
     5f3:	f7 c6 02 00 00 00    	test   $0x2,%esi
     5f9:	0f 85 85 00 00 00    	jne    684 <_ntoa_format+0xc4>
     5ff:	89 f3                	mov    %esi,%ebx
     601:	83 e3 01             	and    $0x1,%ebx
     604:	83 f8 1f             	cmp    $0x1f,%eax
     607:	89 5d c8             	mov    %ebx,-0x38(%ebp)
     60a:	8b 5d e4             	mov    -0x1c(%ebp),%ebx
     60d:	0f 96 45 d7          	setbe  -0x29(%ebp)
     611:	39 d8                	cmp    %ebx,%eax
     613:	0f 92 45 d6          	setb   -0x2a(%ebp)
     617:	0f b6 5d d6          	movzbl -0x2a(%ebp),%ebx
     61b:	22 5d d7             	and    -0x29(%ebp),%bl
     61e:	88 5d d6             	mov    %bl,-0x2a(%ebp)
     621:	85 c9                	test   %ecx,%ecx
     623:	0f 85 37 01 00 00    	jne    760 <_ntoa_format+0x1a0>
     629:	80 7d d6 00          	cmpb   $0x0,-0x2a(%ebp)
     62d:	74 1d                	je     64c <_ntoa_format+0x8c>
     62f:	8b 5d e4             	mov    -0x1c(%ebp),%ebx
     632:	8d b6 00 00 00 00    	lea    0x0(%esi),%esi
     638:	83 c0 01             	add    $0x1,%eax
     63b:	c6 44 02 ff 30       	movb   $0x30,-0x1(%edx,%eax,1)
     640:	39 d8                	cmp    %ebx,%eax
     642:	73 05                	jae    649 <_ntoa_format+0x89>
     644:	83 f8 1f             	cmp    $0x1f,%eax
     647:	76 ef                	jbe    638 <_ntoa_format+0x78>
     649:	89 5d e4             	mov    %ebx,-0x1c(%ebp)
     64c:	8b 5d c8             	mov    -0x38(%ebp),%ebx
     64f:	85 db                	test   %ebx,%ebx
     651:	74 31                	je     684 <_ntoa_format+0xc4>
     653:	83 f8 1f             	cmp    $0x1f,%eax
     656:	0f 96 45 d7          	setbe  -0x29(%ebp)
     65a:	39 c8                	cmp    %ecx,%eax
     65c:	73 26                	jae    684 <_ntoa_format+0xc4>
     65e:	80 7d d7 00          	cmpb   $0x0,-0x29(%ebp)
     662:	74 20                	je     684 <_ntoa_format+0xc4>
     664:	8b 5d e4             	mov    -0x1c(%ebp),%ebx
     667:	eb 0c                	jmp    675 <_ntoa_format+0xb5>
     669:	8d b4 26 00 00 00 00 	lea    0x0(%esi,%eiz,1),%esi
     670:	83 f8 1f             	cmp    $0x1f,%eax
     673:	77 0c                	ja     681 <_ntoa_format+0xc1>
     675:	83 c0 01             	add    $0x1,%eax
     678:	c6 44 02 ff 30       	movb   $0x30,-0x1(%edx,%eax,1)
     67d:	39 c8                	cmp    %ecx,%eax
     67f:	72 ef                	jb     670 <_ntoa_format+0xb0>
     681:	89 5d e4             	mov    %ebx,-0x1c(%ebp)
     684:	f7 c6 10 00 00 00    	test   $0x10,%esi
     68a:	74 6d                	je     6f9 <_ntoa_format+0x139>
     68c:	f7 c6 00 04 00 00    	test   $0x400,%esi
     692:	0f 84 88 00 00 00    	je     720 <_ntoa_format+0x160>
     698:	83 7d d0 10          	cmpl   $0x10,-0x30(%ebp)
     69c:	0f 84 5e 01 00 00    	je     800 <_ntoa_format+0x240>
     6a2:	83 7d d0 02          	cmpl   $0x2,-0x30(%ebp)
     6a6:	75 0e                	jne    6b6 <_ntoa_format+0xf6>
     6a8:	83 f8 1f             	cmp    $0x1f,%eax
     6ab:	77 09                	ja     6b6 <_ntoa_format+0xf6>
     6ad:	89 c3                	mov    %eax,%ebx
     6af:	83 c0 01             	add    $0x1,%eax
     6b2:	c6 04 1a 62          	movb   $0x62,(%edx,%ebx,1)
     6b6:	83 f8 20             	cmp    $0x20,%eax
     6b9:	75 35                	jne    6f0 <_ntoa_format+0x130>
     6bb:	bb 20 00 00 00       	mov    $0x20,%ebx
     6c0:	89 4d 14             	mov    %ecx,0x14(%ebp)
     6c3:	8b 45 e0             	mov    -0x20(%ebp),%eax
     6c6:	89 55 0c             	mov    %edx,0xc(%ebp)
     6c9:	8b 4d d8             	mov    -0x28(%ebp),%ecx
     6cc:	89 75 18             	mov    %esi,0x18(%ebp)
     6cf:	8b 55 dc             	mov    -0x24(%ebp),%edx
     6d2:	89 5d 10             	mov    %ebx,0x10(%ebp)
     6d5:	89 7d 08             	mov    %edi,0x8(%ebp)
     6d8:	83 c4 2c             	add    $0x2c,%esp
     6db:	5b                   	pop    %ebx
     6dc:	5e                   	pop    %esi
     6dd:	5f                   	pop    %edi
     6de:	5d                   	pop    %ebp
     6df:	e9 fc fd ff ff       	jmp    4e0 <_out_rev>
     6e4:	c6 44 02 fe 78       	movb   $0x78,-0x2(%edx,%eax,1)
     6e9:	89 d8                	mov    %ebx,%eax
     6eb:	8d 74 26 00          	lea    0x0(%esi,%eiz,1),%esi
     6ef:	90                   	nop
     6f0:	89 c3                	mov    %eax,%ebx
     6f2:	83 c0 01             	add    $0x1,%eax
     6f5:	c6 04 1a 30          	movb   $0x30,(%edx,%ebx,1)
     6f9:	83 f8 20             	cmp    $0x20,%eax
     6fc:	74 bd                	je     6bb <_ntoa_format+0xfb>
     6fe:	80 7d cc 00          	cmpb   $0x0,-0x34(%ebp)
     702:	0f 85 88 00 00 00    	jne    790 <_ntoa_format+0x1d0>
     708:	f7 c6 04 00 00 00    	test   $0x4,%esi
     70e:	0f 84 cc 00 00 00    	je     7e0 <_ntoa_format+0x220>
     714:	c6 04 02 2b          	movb   $0x2b,(%edx,%eax,1)
     718:	8d 58 01             	lea    0x1(%eax),%ebx
     71b:	eb a3                	jmp    6c0 <_ntoa_format+0x100>
     71d:	8d 76 00             	lea    0x0(%esi),%esi
     720:	85 c0                	test   %eax,%eax
     722:	74 7c                	je     7a0 <_ntoa_format+0x1e0>
     724:	8b 5d e4             	mov    -0x1c(%ebp),%ebx
     727:	39 d8                	cmp    %ebx,%eax
     729:	74 08                	je     733 <_ntoa_format+0x173>
     72b:	39 c8                	cmp    %ecx,%eax
     72d:	0f 85 65 ff ff ff    	jne    698 <_ntoa_format+0xd8>
     733:	8d 58 ff             	lea    -0x1(%eax),%ebx
     736:	83 f8 01             	cmp    $0x1,%eax
     739:	0f 84 0e 01 00 00    	je     84d <_ntoa_format+0x28d>
     73f:	83 7d d0 10          	cmpl   $0x10,-0x30(%ebp)
     743:	0f 85 29 01 00 00    	jne    872 <_ntoa_format+0x2b2>
     749:	f7 c6 20 00 00 00    	test   $0x20,%esi
     74f:	74 93                	je     6e4 <_ntoa_format+0x124>
     751:	c6 44 02 fe 58       	movb   $0x58,-0x2(%edx,%eax,1)
     756:	89 d8                	mov    %ebx,%eax
     758:	eb 96                	jmp    6f0 <_ntoa_format+0x130>
     75a:	8d b6 00 00 00 00    	lea    0x0(%esi),%esi
     760:	8b 5d c8             	mov    -0x38(%ebp),%ebx
     763:	85 db                	test   %ebx,%ebx
     765:	74 69                	je     7d0 <_ntoa_format+0x210>
     767:	80 7d cc 00          	cmpb   $0x0,-0x34(%ebp)
     76b:	75 08                	jne    775 <_ntoa_format+0x1b5>
     76d:	f7 c6 0c 00 00 00    	test   $0xc,%esi
     773:	74 03                	je     778 <_ntoa_format+0x1b8>
     775:	83 e9 01             	sub    $0x1,%ecx
     778:	80 7d d6 00          	cmpb   $0x0,-0x2a(%ebp)
     77c:	0f 85 ad fe ff ff    	jne    62f <_ntoa_format+0x6f>
     782:	e9 d3 fe ff ff       	jmp    65a <_ntoa_format+0x9a>
     787:	8d b4 26 00 00 00 00 	lea    0x0(%esi,%eiz,1),%esi
     78e:	66 90                	xchg   %ax,%ax
     790:	c6 04 02 2d          	movb   $0x2d,(%edx,%eax,1)
     794:	8d 58 01             	lea    0x1(%eax),%ebx
     797:	e9 24 ff ff ff       	jmp    6c0 <_ntoa_format+0x100>
     79c:	8d 74 26 00          	lea    0x0(%esi,%eiz,1),%esi
     7a0:	83 7d d0 10          	cmpl   $0x10,-0x30(%ebp)
     7a4:	0f 84 b3 00 00 00    	je     85d <_ntoa_format+0x29d>
     7aa:	83 7d d0 02          	cmpl   $0x2,-0x30(%ebp)
     7ae:	0f 85 8c 00 00 00    	jne    840 <_ntoa_format+0x280>
     7b4:	b8 62 00 00 00       	mov    $0x62,%eax
     7b9:	88 02                	mov    %al,(%edx)
     7bb:	b8 02 00 00 00       	mov    $0x2,%eax
     7c0:	c6 42 01 30          	movb   $0x30,0x1(%edx)
     7c4:	e9 35 ff ff ff       	jmp    6fe <_ntoa_format+0x13e>
     7c9:	8d b4 26 00 00 00 00 	lea    0x0(%esi,%eiz,1),%esi
     7d0:	80 7d d6 00          	cmpb   $0x0,-0x2a(%ebp)
     7d4:	0f 85 55 fe ff ff    	jne    62f <_ntoa_format+0x6f>
     7da:	e9 a5 fe ff ff       	jmp    684 <_ntoa_format+0xc4>
     7df:	90                   	nop
     7e0:	89 c3                	mov    %eax,%ebx
     7e2:	f7 c6 08 00 00 00    	test   $0x8,%esi
     7e8:	0f 84 d2 fe ff ff    	je     6c0 <_ntoa_format+0x100>
     7ee:	c6 04 02 20          	movb   $0x20,(%edx,%eax,1)
     7f2:	83 c3 01             	add    $0x1,%ebx
     7f5:	e9 c6 fe ff ff       	jmp    6c0 <_ntoa_format+0x100>
     7fa:	8d b6 00 00 00 00    	lea    0x0(%esi),%esi
     800:	f7 c6 20 00 00 00    	test   $0x20,%esi
     806:	75 17                	jne    81f <_ntoa_format+0x25f>
     808:	83 f8 20             	cmp    $0x20,%eax
     80b:	0f 84 aa fe ff ff    	je     6bb <_ntoa_format+0xfb>
     811:	89 c3                	mov    %eax,%ebx
     813:	83 c0 01             	add    $0x1,%eax
     816:	c6 04 1a 78          	movb   $0x78,(%edx,%ebx,1)
     81a:	e9 97 fe ff ff       	jmp    6b6 <_ntoa_format+0xf6>
     81f:	83 f8 20             	cmp    $0x20,%eax
     822:	0f 84 93 fe ff ff    	je     6bb <_ntoa_format+0xfb>
     828:	89 c3                	mov    %eax,%ebx
     82a:	83 c0 01             	add    $0x1,%eax
     82d:	c6 04 1a 58          	movb   $0x58,(%edx,%ebx,1)
     831:	e9 80 fe ff ff       	jmp    6b6 <_ntoa_format+0xf6>
     836:	8d b4 26 00 00 00 00 	lea    0x0(%esi,%eiz,1),%esi
     83d:	8d 76 00             	lea    0x0(%esi),%esi
     840:	c6 02 30             	movb   $0x30,(%edx)
     843:	b8 01 00 00 00       	mov    $0x1,%eax
     848:	e9 b1 fe ff ff       	jmp    6fe <_ntoa_format+0x13e>
     84d:	83 7d d0 10          	cmpl   $0x10,-0x30(%ebp)
     851:	75 1f                	jne    872 <_ntoa_format+0x2b2>
     853:	f7 c6 20 00 00 00    	test   $0x20,%esi
     859:	74 bb                	je     816 <_ntoa_format+0x256>
     85b:	eb d0                	jmp    82d <_ntoa_format+0x26d>
     85d:	89 f0                	mov    %esi,%eax
     85f:	83 e0 20             	and    $0x20,%eax
     862:	83 f8 01             	cmp    $0x1,%eax
     865:	19 c0                	sbb    %eax,%eax
     867:	83 e0 20             	and    $0x20,%eax
     86a:	83 c0 58             	add    $0x58,%eax
     86d:	e9 47 ff ff ff       	jmp    7b9 <_ntoa_format+0x1f9>
     872:	83 7d d0 02          	cmpl   $0x2,-0x30(%ebp)
     876:	0f 84 36 fe ff ff    	je     6b2 <_ntoa_format+0xf2>
     87c:	e9 74 fe ff ff       	jmp    6f5 <_ntoa_format+0x135>
     881:	8d b4 26 00 00 00 00 	lea    0x0(%esi,%eiz,1),%esi
     888:	8d b4 26 00 00 00 00 	lea    0x0(%esi,%eiz,1),%esi
     88f:	90                   	nop

00000890 <_ntoa_long>:
     890:	55                   	push   %ebp
     891:	89 e5                	mov    %esp,%ebp
     893:	57                   	push   %edi
     894:	89 d7                	mov    %edx,%edi
     896:	56                   	push   %esi
     897:	53                   	push   %ebx
     898:	83 ec 4c             	sub    $0x4c,%esp
     89b:	8b 5d 0c             	mov    0xc(%ebp),%ebx
     89e:	8b 75 20             	mov    0x20(%ebp),%esi
     8a1:	89 45 c0             	mov    %eax,-0x40(%ebp)
     8a4:	8b 45 10             	mov    0x10(%ebp),%eax
     8a7:	89 4d bc             	mov    %ecx,-0x44(%ebp)
     8aa:	89 45 b8             	mov    %eax,-0x48(%ebp)
     8ad:	85 db                	test   %ebx,%ebx
     8af:	75 13                	jne    8c4 <_ntoa_long+0x34>
     8b1:	89 f0                	mov    %esi,%eax
     8b3:	83 e0 ef             	and    $0xffffffef,%eax
     8b6:	81 e6 00 04 00 00    	and    $0x400,%esi
     8bc:	89 c6                	mov    %eax,%esi
     8be:	0f 85 84 00 00 00    	jne    948 <_ntoa_long+0xb8>
     8c4:	89 f0                	mov    %esi,%eax
     8c6:	89 7d b4             	mov    %edi,-0x4c(%ebp)
     8c9:	83 e0 20             	and    $0x20,%eax
     8cc:	89 75 20             	mov    %esi,0x20(%ebp)
     8cf:	83 f8 01             	cmp    $0x1,%eax
     8d2:	19 c0                	sbb    %eax,%eax
     8d4:	31 c9                	xor    %ecx,%ecx
     8d6:	83 e0 20             	and    $0x20,%eax
     8d9:	83 c0 37             	add    $0x37,%eax
     8dc:	88 45 c7             	mov    %al,-0x39(%ebp)
     8df:	eb 09                	jmp    8ea <_ntoa_long+0x5a>
     8e1:	8d b4 26 00 00 00 00 	lea    0x0(%esi,%eiz,1),%esi
     8e8:	89 c3                	mov    %eax,%ebx
     8ea:	31 d2                	xor    %edx,%edx
     8ec:	89 d8                	mov    %ebx,%eax
     8ee:	0f b6 75 c7          	movzbl -0x39(%ebp),%esi
     8f2:	f7 75 14             	divl   0x14(%ebp)
     8f5:	01 d6                	add    %edx,%esi
     8f7:	8d 7a 30             	lea    0x30(%edx),%edi
     8fa:	83 fa 09             	cmp    $0x9,%edx
     8fd:	0f 47 fe             	cmova  %esi,%edi
     900:	83 c1 01             	add    $0x1,%ecx
     903:	89 fa                	mov    %edi,%edx
     905:	88 54 0d c7          	mov    %dl,-0x39(%ebp,%ecx,1)
     909:	3b 5d 14             	cmp    0x14(%ebp),%ebx
     90c:	72 05                	jb     913 <_ntoa_long+0x83>
     90e:	83 f9 1f             	cmp    $0x1f,%ecx
     911:	76 d5                	jbe    8e8 <_ntoa_long+0x58>
     913:	8b 7d b4             	mov    -0x4c(%ebp),%edi
     916:	8b 75 20             	mov    0x20(%ebp),%esi
     919:	0f b6 45 b8          	movzbl -0x48(%ebp),%eax
     91d:	56                   	push   %esi
     91e:	89 fa                	mov    %edi,%edx
     920:	ff 75 1c             	pushl  0x1c(%ebp)
     923:	ff 75 18             	pushl  0x18(%ebp)
     926:	ff 75 14             	pushl  0x14(%ebp)
     929:	50                   	push   %eax
     92a:	8d 45 c8             	lea    -0x38(%ebp),%eax
     92d:	51                   	push   %ecx
     92e:	8b 4d bc             	mov    -0x44(%ebp),%ecx
     931:	50                   	push   %eax
     932:	8b 45 c0             	mov    -0x40(%ebp),%eax
     935:	ff 75 08             	pushl  0x8(%ebp)
     938:	e8 83 fc ff ff       	call   5c0 <_ntoa_format>
     93d:	8d 65 f4             	lea    -0xc(%ebp),%esp
     940:	5b                   	pop    %ebx
     941:	5e                   	pop    %esi
     942:	5f                   	pop    %edi
     943:	5d                   	pop    %ebp
     944:	c3                   	ret    
     945:	8d 76 00             	lea    0x0(%esi),%esi
     948:	31 c9                	xor    %ecx,%ecx
     94a:	eb cd                	jmp    919 <_ntoa_long+0x89>
     94c:	8d 74 26 00          	lea    0x0(%esi,%eiz,1),%esi

00000950 <_ntoa_long_long>:
     950:	55                   	push   %ebp
     951:	89 e5                	mov    %esp,%ebp
     953:	57                   	push   %edi
     954:	56                   	push   %esi
     955:	53                   	push   %ebx
     956:	83 ec 5c             	sub    $0x5c,%esp
     959:	8b 75 10             	mov    0x10(%ebp),%esi
     95c:	8b 5d 0c             	mov    0xc(%ebp),%ebx
     95f:	89 45 a4             	mov    %eax,-0x5c(%ebp)
     962:	8b 45 14             	mov    0x14(%ebp),%eax
     965:	89 55 a0             	mov    %edx,-0x60(%ebp)
     968:	8b 55 1c             	mov    0x1c(%ebp),%edx
     96b:	89 4d 9c             	mov    %ecx,-0x64(%ebp)
     96e:	89 45 98             	mov    %eax,-0x68(%ebp)
     971:	8b 45 18             	mov    0x18(%ebp),%eax
     974:	89 55 b4             	mov    %edx,-0x4c(%ebp)
     977:	89 45 b0             	mov    %eax,-0x50(%ebp)
     97a:	89 f0                	mov    %esi,%eax
     97c:	09 d8                	or     %ebx,%eax
     97e:	75 16                	jne    996 <_ntoa_long_long+0x46>
     980:	8b 45 28             	mov    0x28(%ebp),%eax
     983:	83 e0 ef             	and    $0xffffffef,%eax
     986:	f7 45 28 00 04 00 00 	testl  $0x400,0x28(%ebp)
     98d:	89 45 28             	mov    %eax,0x28(%ebp)
     990:	0f 85 ba 00 00 00    	jne    a50 <_ntoa_long_long+0x100>
     996:	8b 45 28             	mov    0x28(%ebp),%eax
     999:	c7 45 bc 00 00 00 00 	movl   $0x0,-0x44(%ebp)
     9a0:	8d 7d c0             	lea    -0x40(%ebp),%edi
     9a3:	83 e0 20             	and    $0x20,%eax
     9a6:	83 f8 01             	cmp    $0x1,%eax
     9a9:	19 c0                	sbb    %eax,%eax
     9ab:	83 e0 20             	and    $0x20,%eax
     9ae:	83 c0 37             	add    $0x37,%eax
     9b1:	88 45 bb             	mov    %al,-0x45(%ebp)
     9b4:	8d 74 26 00          	lea    0x0(%esi,%eiz,1),%esi
     9b8:	83 ec 0c             	sub    $0xc,%esp
     9bb:	57                   	push   %edi
     9bc:	ff 75 b4             	pushl  -0x4c(%ebp)
     9bf:	ff 75 b0             	pushl  -0x50(%ebp)
     9c2:	56                   	push   %esi
     9c3:	53                   	push   %ebx
     9c4:	e8 fc ff ff ff       	call   9c5 <_ntoa_long_long+0x75>
			9c5: R_386_PC32	__udivmoddi4
     9c9:	83 c4 20             	add    $0x20,%esp
     9cc:	89 45 a8             	mov    %eax,-0x58(%ebp)
     9cf:	0f b6 45 c0          	movzbl -0x40(%ebp),%eax
     9d3:	89 55 ac             	mov    %edx,-0x54(%ebp)
     9d6:	83 c0 30             	add    $0x30,%eax
     9d9:	89 c2                	mov    %eax,%edx
     9db:	0f b6 45 bb          	movzbl -0x45(%ebp),%eax
     9df:	02 45 c0             	add    -0x40(%ebp),%al
     9e2:	80 7d c0 09          	cmpb   $0x9,-0x40(%ebp)
     9e6:	0f 4e c2             	cmovle %edx,%eax
     9e9:	83 45 bc 01          	addl   $0x1,-0x44(%ebp)
     9ed:	8b 4d bc             	mov    -0x44(%ebp),%ecx
     9f0:	8b 55 b0             	mov    -0x50(%ebp),%edx
     9f3:	88 44 0d c7          	mov    %al,-0x39(%ebp,%ecx,1)
     9f7:	8b 4d b4             	mov    -0x4c(%ebp),%ecx
     9fa:	89 f0                	mov    %esi,%eax
     9fc:	39 d3                	cmp    %edx,%ebx
     9fe:	19 c8                	sbb    %ecx,%eax
     a00:	73 36                	jae    a38 <_ntoa_long_long+0xe8>
     a02:	0f b6 45 98          	movzbl -0x68(%ebp),%eax
     a06:	8b 4d 9c             	mov    -0x64(%ebp),%ecx
     a09:	ff 75 28             	pushl  0x28(%ebp)
     a0c:	8b 55 a0             	mov    -0x60(%ebp),%edx
     a0f:	ff 75 24             	pushl  0x24(%ebp)
     a12:	ff 75 20             	pushl  0x20(%ebp)
     a15:	ff 75 b0             	pushl  -0x50(%ebp)
     a18:	50                   	push   %eax
     a19:	8d 45 c8             	lea    -0x38(%ebp),%eax
     a1c:	ff 75 bc             	pushl  -0x44(%ebp)
     a1f:	50                   	push   %eax
     a20:	ff 75 08             	pushl  0x8(%ebp)
     a23:	8b 45 a4             	mov    -0x5c(%ebp),%eax
     a26:	e8 95 fb ff ff       	call   5c0 <_ntoa_format>
     a2b:	8d 65 f4             	lea    -0xc(%ebp),%esp
     a2e:	5b                   	pop    %ebx
     a2f:	5e                   	pop    %esi
     a30:	5f                   	pop    %edi
     a31:	5d                   	pop    %ebp
     a32:	c3                   	ret    
     a33:	8d 74 26 00          	lea    0x0(%esi,%eiz,1),%esi
     a37:	90                   	nop
     a38:	83 7d bc 1f          	cmpl   $0x1f,-0x44(%ebp)
     a3c:	77 c4                	ja     a02 <_ntoa_long_long+0xb2>
     a3e:	8b 5d a8             	mov    -0x58(%ebp),%ebx
     a41:	8b 75 ac             	mov    -0x54(%ebp),%esi
     a44:	e9 6f ff ff ff       	jmp    9b8 <_ntoa_long_long+0x68>
     a49:	8d b4 26 00 00 00 00 	lea    0x0(%esi,%eiz,1),%esi
     a50:	c7 45 bc 00 00 00 00 	movl   $0x0,-0x44(%ebp)
     a57:	eb a9                	jmp    a02 <_ntoa_long_long+0xb2>
     a59:	8d b4 26 00 00 00 00 	lea    0x0(%esi,%eiz,1),%esi

00000a60 <_etoa>:
     a60:	55                   	push   %ebp
     a61:	89 e5                	mov    %esp,%ebp
     a63:	57                   	push   %edi
     a64:	56                   	push   %esi
     a65:	53                   	push   %ebx
     a66:	83 ec 4c             	sub    $0x4c,%esp
     a69:	dd 45 0c             	fldl   0xc(%ebp)
     a6c:	8b 5d 18             	mov    0x18(%ebp),%ebx
     a6f:	89 45 d0             	mov    %eax,-0x30(%ebp)
     a72:	8b 45 08             	mov    0x8(%ebp),%eax
     a75:	89 55 e0             	mov    %edx,-0x20(%ebp)
     a78:	89 5d cc             	mov    %ebx,-0x34(%ebp)
     a7b:	8b 5d 1c             	mov    0x1c(%ebp),%ebx
     a7e:	db e8                	fucomi %st(0),%st
     a80:	89 45 d4             	mov    %eax,-0x2c(%ebp)
     a83:	8b 45 14             	mov    0x14(%ebp),%eax
     a86:	89 4d c8             	mov    %ecx,-0x38(%ebp)
     a89:	0f 8a b1 02 00 00    	jp     d40 <_etoa+0x2e0>
     a8f:	dd 05 00 00 00 00    	fldl   0x0
			a91: R_386_32	.rodata.cst8
     a95:	d9 c9                	fxch   %st(1)
     a97:	db f1                	fcomi  %st(1),%st
     a99:	dd d9                	fstp   %st(1)
     a9b:	0f 87 9f 02 00 00    	ja     d40 <_etoa+0x2e0>
     aa1:	dd 05 08 00 00 00    	fldl   0x8
			aa3: R_386_32	.rodata.cst8
     aa7:	df f1                	fcomip %st(1),%st
     aa9:	0f 87 91 02 00 00    	ja     d40 <_etoa+0x2e0>
     aaf:	d9 7d e6             	fnstcw -0x1a(%ebp)
     ab2:	d9 c0                	fld    %st(0)
     ab4:	89 d9                	mov    %ebx,%ecx
     ab6:	ba 06 00 00 00       	mov    $0x6,%edx
     abb:	d9 e0                	fchs   
     abd:	d9 ee                	fldz   
     abf:	df f2                	fcomip %st(2),%st
     ac1:	da d1                	fcmovbe %st(1),%st
     ac3:	81 e1 00 04 00 00    	and    $0x400,%ecx
     ac9:	89 4d ac             	mov    %ecx,-0x54(%ebp)
     acc:	0f 44 c2             	cmove  %edx,%eax
     acf:	dd 55 d8             	fstl   -0x28(%ebp)
     ad2:	8b 4d d8             	mov    -0x28(%ebp),%ecx
     ad5:	89 4d c0             	mov    %ecx,-0x40(%ebp)
     ad8:	8b 4d dc             	mov    -0x24(%ebp),%ecx
     adb:	8b 75 c0             	mov    -0x40(%ebp),%esi
     ade:	89 ca                	mov    %ecx,%edx
     ae0:	81 e1 ff ff 0f 00    	and    $0xfffff,%ecx
     ae6:	c1 ea 14             	shr    $0x14,%edx
     ae9:	89 cf                	mov    %ecx,%edi
     aeb:	89 75 c0             	mov    %esi,-0x40(%ebp)
     aee:	81 e2 ff 07 00 00    	and    $0x7ff,%edx
     af4:	81 cf 00 00 f0 3f    	or     $0x3ff00000,%edi
     afa:	81 ea ff 03 00 00    	sub    $0x3ff,%edx
     b00:	89 7d c4             	mov    %edi,-0x3c(%ebp)
     b03:	89 55 b8             	mov    %edx,-0x48(%ebp)
     b06:	db 45 b8             	fildl  -0x48(%ebp)
     b09:	dc 0d 10 00 00 00    	fmull  0x10
			b0b: R_386_32	.rodata.cst8
     b0f:	dc 05 18 00 00 00    	faddl  0x18
			b11: R_386_32	.rodata.cst8
     b15:	dd 45 c0             	fldl   -0x40(%ebp)
     b18:	0f b7 55 e6          	movzwl -0x1a(%ebp),%edx
     b1c:	d8 25 00 00 00 00    	fsubs  0x0
			b1e: R_386_32	.rodata.cst4
     b22:	dc 0d 20 00 00 00    	fmull  0x20
			b24: R_386_32	.rodata.cst8
     b28:	80 ce 0c             	or     $0xc,%dh
     b2b:	66 89 55 e4          	mov    %dx,-0x1c(%ebp)
     b2f:	de c1                	faddp  %st,%st(1)
     b31:	d9 6d e4             	fldcw  -0x1c(%ebp)
     b34:	db 5d c0             	fistpl -0x40(%ebp)
     b37:	d9 6d e6             	fldcw  -0x1a(%ebp)
     b3a:	db 45 c0             	fildl  -0x40(%ebp)
     b3d:	dd 05 28 00 00 00    	fldl   0x28
			b3f: R_386_32	.rodata.cst8
     b43:	d8 c9                	fmul   %st(1),%st
     b45:	d8 05 04 00 00 00    	fadds  0x4
			b47: R_386_32	.rodata.cst4
     b4b:	d9 6d e4             	fldcw  -0x1c(%ebp)
     b4e:	db 5d b8             	fistpl -0x48(%ebp)
     b51:	d9 6d e6             	fldcw  -0x1a(%ebp)
     b54:	dc 0d 30 00 00 00    	fmull  0x30
			b56: R_386_32	.rodata.cst8
     b5a:	db 45 b8             	fildl  -0x48(%ebp)
     b5d:	dc 0d 38 00 00 00    	fmull  0x38
			b5f: R_386_32	.rodata.cst8
     b63:	de e9                	fsubrp %st,%st(1)
     b65:	d9 c0                	fld    %st(0)
     b67:	d8 c9                	fmul   %st(1),%st
     b69:	d9 c1                	fld    %st(1)
     b6b:	d8 c2                	fadd   %st(2),%st
     b6d:	d9 c1                	fld    %st(1)
     b6f:	d8 35 08 00 00 00    	fdivs  0x8
			b71: R_386_32	.rodata.cst4
     b75:	d9 05 0c 00 00 00    	flds   0xc
			b77: R_386_32	.rodata.cst4
     b7b:	dc c1                	fadd   %st,%st(1)
     b7d:	d9 c9                	fxch   %st(1)
     b7f:	d8 fb                	fdivr  %st(3),%st
     b81:	d8 05 10 00 00 00    	fadds  0x10
			b83: R_386_32	.rodata.cst4
     b87:	8b 75 b8             	mov    -0x48(%ebp),%esi
     b8a:	81 c6 ff 03 00 00    	add    $0x3ff,%esi
     b90:	89 f7                	mov    %esi,%edi
     b92:	be 00 00 00 00       	mov    $0x0,%esi
     b97:	c1 e7 14             	shl    $0x14,%edi
     b9a:	89 75 b8             	mov    %esi,-0x48(%ebp)
     b9d:	de fb                	fdivrp %st,%st(3)
     b9f:	d9 cb                	fxch   %st(3)
     ba1:	89 7d bc             	mov    %edi,-0x44(%ebp)
     ba4:	d8 2d 14 00 00 00    	fsubrs 0x14
			ba6: R_386_32	.rodata.cst4
     baa:	de c2                	faddp  %st,%st(2)
     bac:	de f1                	fdivp  %st,%st(1)
     bae:	d8 05 18 00 00 00    	fadds  0x18
			bb0: R_386_32	.rodata.cst4
     bb4:	dc 4d b8             	fmull  -0x48(%ebp)
     bb7:	dd 55 b8             	fstl   -0x48(%ebp)
     bba:	df f2                	fcomip %st(2),%st
     bbc:	dd d9                	fstp   %st(1)
     bbe:	0f 87 ac 01 00 00    	ja     d70 <_etoa+0x310>
     bc4:	dd d8                	fstp   %st(0)
     bc6:	8b 75 b8             	mov    -0x48(%ebp),%esi
     bc9:	8b 7d bc             	mov    -0x44(%ebp),%edi
     bcc:	89 75 b0             	mov    %esi,-0x50(%ebp)
     bcf:	89 7d b4             	mov    %edi,-0x4c(%ebp)
     bd2:	8b 7d c0             	mov    -0x40(%ebp),%edi
     bd5:	31 c9                	xor    %ecx,%ecx
     bd7:	8d 57 63             	lea    0x63(%edi),%edx
     bda:	81 fa c6 00 00 00    	cmp    $0xc6,%edx
     be0:	0f 97 c1             	seta   %cl
     be3:	89 ce                	mov    %ecx,%esi
     be5:	83 c6 04             	add    $0x4,%esi
     be8:	f6 c7 08             	test   $0x8,%bh
     beb:	74 35                	je     c22 <_etoa+0x1c2>
     bed:	dd 05 40 00 00 00    	fldl   0x40
			bef: R_386_32	.rodata.cst8
     bf3:	dd 45 d8             	fldl   -0x28(%ebp)
     bf6:	89 c2                	mov    %eax,%edx
     bf8:	db f1                	fcomi  %st(1),%st
     bfa:	dd d9                	fstp   %st(1)
     bfc:	72 12                	jb     c10 <_etoa+0x1b0>
     bfe:	d9 05 1c 00 00 00    	flds   0x1c
			c00: R_386_32	.rodata.cst4
     c04:	df f1                	fcomip %st(1),%st
     c06:	dd d8                	fstp   %st(0)
     c08:	0f 87 9a 01 00 00    	ja     da8 <_etoa+0x348>
     c0e:	eb 02                	jmp    c12 <_etoa+0x1b2>
     c10:	dd d8                	fstp   %st(0)
     c12:	83 7d ac 01          	cmpl   $0x1,-0x54(%ebp)
     c16:	89 c1                	mov    %eax,%ecx
     c18:	83 d1 ff             	adc    $0xffffffff,%ecx
     c1b:	85 c0                	test   %eax,%eax
     c1d:	89 d0                	mov    %edx,%eax
     c1f:	0f 45 c1             	cmovne %ecx,%eax
     c22:	8b 4d cc             	mov    -0x34(%ebp),%ecx
     c25:	89 df                	mov    %ebx,%edi
     c27:	c6 45 b8 01          	movb   $0x1,-0x48(%ebp)
     c2b:	83 e7 02             	and    $0x2,%edi
     c2e:	89 ca                	mov    %ecx,%edx
     c30:	29 f2                	sub    %esi,%edx
     c32:	39 ce                	cmp    %ecx,%esi
     c34:	b9 00 00 00 00       	mov    $0x0,%ecx
     c39:	0f 43 d1             	cmovae %ecx,%edx
     c3c:	83 ff 01             	cmp    $0x1,%edi
     c3f:	19 c9                	sbb    %ecx,%ecx
     c41:	83 c1 01             	add    $0x1,%ecx
     c44:	85 ff                	test   %edi,%edi
     c46:	bf 00 00 00 00       	mov    $0x0,%edi
     c4b:	88 4d ac             	mov    %cl,-0x54(%ebp)
     c4e:	8b 4d c0             	mov    -0x40(%ebp),%ecx
     c51:	0f 45 d7             	cmovne %edi,%edx
     c54:	85 c9                	test   %ecx,%ecx
     c56:	74 09                	je     c61 <_etoa+0x201>
     c58:	dd 45 d8             	fldl   -0x28(%ebp)
     c5b:	dc 75 b0             	fdivl  -0x50(%ebp)
     c5e:	dd 5d d8             	fstpl  -0x28(%ebp)
     c61:	89 d9                	mov    %ebx,%ecx
     c63:	d9 ee                	fldz   
     c65:	80 e5 f7             	and    $0xf7,%ch
     c68:	df f1                	fcomip %st(1),%st
     c6a:	dd d8                	fstp   %st(0)
     c6c:	0f 87 26 01 00 00    	ja     d98 <_etoa+0x338>
     c72:	83 ec 08             	sub    $0x8,%esp
     c75:	51                   	push   %ecx
     c76:	52                   	push   %edx
     c77:	50                   	push   %eax
     c78:	ff 75 dc             	pushl  -0x24(%ebp)
     c7b:	ff 75 d8             	pushl  -0x28(%ebp)
     c7e:	ff 75 d4             	pushl  -0x2c(%ebp)
     c81:	8b 4d c8             	mov    -0x38(%ebp),%ecx
     c84:	8b 55 e0             	mov    -0x20(%ebp),%edx
     c87:	8b 45 d0             	mov    -0x30(%ebp),%eax
     c8a:	e8 81 01 00 00       	call   e10 <_ftoa>
     c8f:	83 c4 20             	add    $0x20,%esp
     c92:	80 7d b8 00          	cmpb   $0x0,-0x48(%ebp)
     c96:	89 c7                	mov    %eax,%edi
     c98:	0f 84 91 00 00 00    	je     d2f <_etoa+0x2cf>
     c9e:	83 e3 20             	and    $0x20,%ebx
     ca1:	8d 48 01             	lea    0x1(%eax),%ecx
     ca4:	83 fb 01             	cmp    $0x1,%ebx
     ca7:	89 4d d8             	mov    %ecx,-0x28(%ebp)
     caa:	19 d2                	sbb    %edx,%edx
     cac:	ff 75 d4             	pushl  -0x2c(%ebp)
     caf:	83 ee 01             	sub    $0x1,%esi
     cb2:	83 e2 20             	and    $0x20,%edx
     cb5:	50                   	push   %eax
     cb6:	83 c2 45             	add    $0x45,%edx
     cb9:	ff 75 e0             	pushl  -0x20(%ebp)
     cbc:	52                   	push   %edx
     cbd:	8b 5d d0             	mov    -0x30(%ebp),%ebx
     cc0:	ff d3                	call   *%ebx
     cc2:	83 c4 0c             	add    $0xc,%esp
     cc5:	6a 05                	push   $0x5
     cc7:	56                   	push   %esi
     cc8:	6a 00                	push   $0x0
     cca:	6a 0a                	push   $0xa
     ccc:	8b 7d c0             	mov    -0x40(%ebp),%edi
     ccf:	89 f8                	mov    %edi,%eax
     cd1:	c1 e8 1f             	shr    $0x1f,%eax
     cd4:	50                   	push   %eax
     cd5:	89 f8                	mov    %edi,%eax
     cd7:	f7 d8                	neg    %eax
     cd9:	0f 48 c7             	cmovs  %edi,%eax
     cdc:	50                   	push   %eax
     cdd:	89 d8                	mov    %ebx,%eax
     cdf:	ff 75 d4             	pushl  -0x2c(%ebp)
     ce2:	8b 4d d8             	mov    -0x28(%ebp),%ecx
     ce5:	8b 55 e0             	mov    -0x20(%ebp),%edx
     ce8:	e8 a3 fb ff ff       	call   890 <_ntoa_long>
     ced:	83 c4 20             	add    $0x20,%esp
     cf0:	80 7d ac 00          	cmpb   $0x0,-0x54(%ebp)
     cf4:	89 c7                	mov    %eax,%edi
     cf6:	74 37                	je     d2f <_etoa+0x2cf>
     cf8:	89 c3                	mov    %eax,%ebx
     cfa:	8b 45 c8             	mov    -0x38(%ebp),%eax
     cfd:	29 c3                	sub    %eax,%ebx
     cff:	8b 45 cc             	mov    -0x34(%ebp),%eax
     d02:	39 c3                	cmp    %eax,%ebx
     d04:	73 29                	jae    d2f <_etoa+0x2cf>
     d06:	89 fe                	mov    %edi,%esi
     d08:	89 c7                	mov    %eax,%edi
     d0a:	8d b6 00 00 00 00    	lea    0x0(%esi),%esi
     d10:	89 f1                	mov    %esi,%ecx
     d12:	ff 75 d4             	pushl  -0x2c(%ebp)
     d15:	83 c3 01             	add    $0x1,%ebx
     d18:	83 c6 01             	add    $0x1,%esi
     d1b:	51                   	push   %ecx
     d1c:	ff 75 e0             	pushl  -0x20(%ebp)
     d1f:	6a 20                	push   $0x20
     d21:	8b 45 d0             	mov    -0x30(%ebp),%eax
     d24:	ff d0                	call   *%eax
     d26:	83 c4 10             	add    $0x10,%esp
     d29:	39 fb                	cmp    %edi,%ebx
     d2b:	72 e3                	jb     d10 <_etoa+0x2b0>
     d2d:	89 f7                	mov    %esi,%edi
     d2f:	8d 65 f4             	lea    -0xc(%ebp),%esp
     d32:	89 f8                	mov    %edi,%eax
     d34:	5b                   	pop    %ebx
     d35:	5e                   	pop    %esi
     d36:	5f                   	pop    %edi
     d37:	5d                   	pop    %ebp
     d38:	c3                   	ret    
     d39:	8d b4 26 00 00 00 00 	lea    0x0(%esi,%eiz,1),%esi
     d40:	8b 7d cc             	mov    -0x34(%ebp),%edi
     d43:	89 5d 1c             	mov    %ebx,0x1c(%ebp)
     d46:	89 45 14             	mov    %eax,0x14(%ebp)
     d49:	89 7d 18             	mov    %edi,0x18(%ebp)
     d4c:	dd 5d 0c             	fstpl  0xc(%ebp)
     d4f:	8b 45 d4             	mov    -0x2c(%ebp),%eax
     d52:	8b 4d c8             	mov    -0x38(%ebp),%ecx
     d55:	8b 55 e0             	mov    -0x20(%ebp),%edx
     d58:	89 45 08             	mov    %eax,0x8(%ebp)
     d5b:	8b 45 d0             	mov    -0x30(%ebp),%eax
     d5e:	8d 65 f4             	lea    -0xc(%ebp),%esp
     d61:	5b                   	pop    %ebx
     d62:	5e                   	pop    %esi
     d63:	5f                   	pop    %edi
     d64:	5d                   	pop    %ebp
     d65:	e9 a6 00 00 00       	jmp    e10 <_ftoa>
     d6a:	8d b6 00 00 00 00    	lea    0x0(%esi),%esi
     d70:	dc 7d b8             	fdivrl -0x48(%ebp)
     d73:	83 6d c0 01          	subl   $0x1,-0x40(%ebp)
     d77:	dd 5d b0             	fstpl  -0x50(%ebp)
     d7a:	e9 53 fe ff ff       	jmp    bd2 <_etoa+0x172>
     d7f:	c6 45 ac 00          	movb   $0x0,-0x54(%ebp)
     d83:	89 f3                	mov    %esi,%ebx
     d85:	31 d2                	xor    %edx,%edx
     d87:	31 f6                	xor    %esi,%esi
     d89:	c6 45 b8 00          	movb   $0x0,-0x48(%ebp)
     d8d:	c7 45 c0 00 00 00 00 	movl   $0x0,-0x40(%ebp)
     d94:	8d 74 26 00          	lea    0x0(%esi,%eiz,1),%esi
     d98:	dd 45 d8             	fldl   -0x28(%ebp)
     d9b:	d9 e0                	fchs   
     d9d:	dd 5d d8             	fstpl  -0x28(%ebp)
     da0:	e9 cd fe ff ff       	jmp    c72 <_etoa+0x212>
     da5:	8d 76 00             	lea    0x0(%esi),%esi
     da8:	29 fa                	sub    %edi,%edx
     daa:	89 de                	mov    %ebx,%esi
     dac:	83 ea 01             	sub    $0x1,%edx
     daf:	39 f8                	cmp    %edi,%eax
     db1:	8b 7d cc             	mov    -0x34(%ebp),%edi
     db4:	b8 00 00 00 00       	mov    $0x0,%eax
     db9:	0f 4f c2             	cmovg  %edx,%eax
     dbc:	81 ce 00 04 00 00    	or     $0x400,%esi
     dc2:	85 ff                	test   %edi,%edi
     dc4:	75 2a                	jne    df0 <_etoa+0x390>
     dc6:	80 e7 f7             	and    $0xf7,%bh
     dc9:	d9 ee                	fldz   
     dcb:	89 d9                	mov    %ebx,%ecx
     dcd:	80 cd 04             	or     $0x4,%ch
     dd0:	df f1                	fcomip %st(1),%st
     dd2:	dd d8                	fstp   %st(0)
     dd4:	77 a9                	ja     d7f <_etoa+0x31f>
     dd6:	dd 45 d8             	fldl   -0x28(%ebp)
     dd9:	89 4d 1c             	mov    %ecx,0x1c(%ebp)
     ddc:	c7 45 18 00 00 00 00 	movl   $0x0,0x18(%ebp)
     de3:	89 45 14             	mov    %eax,0x14(%ebp)
     de6:	dd 5d 0c             	fstpl  0xc(%ebp)
     de9:	e9 61 ff ff ff       	jmp    d4f <_etoa+0x2ef>
     dee:	66 90                	xchg   %ax,%ax
     df0:	89 f3                	mov    %esi,%ebx
     df2:	c7 45 c0 00 00 00 00 	movl   $0x0,-0x40(%ebp)
     df9:	8b 55 cc             	mov    -0x34(%ebp),%edx
     dfc:	31 f6                	xor    %esi,%esi
     dfe:	c6 45 b8 00          	movb   $0x0,-0x48(%ebp)
     e02:	c6 45 ac 00          	movb   $0x0,-0x54(%ebp)
     e06:	e9 56 fe ff ff       	jmp    c61 <_etoa+0x201>
     e0b:	8d 74 26 00          	lea    0x0(%esi,%eiz,1),%esi
     e0f:	90                   	nop

00000e10 <_ftoa>:
     e10:	55                   	push   %ebp
     e11:	89 e5                	mov    %esp,%ebp
     e13:	57                   	push   %edi
     e14:	56                   	push   %esi
     e15:	53                   	push   %ebx
     e16:	83 ec 5c             	sub    $0x5c,%esp
     e19:	dd 45 0c             	fldl   0xc(%ebp)
     e1c:	8b 75 14             	mov    0x14(%ebp),%esi
     e1f:	89 45 c0             	mov    %eax,-0x40(%ebp)
     e22:	8b 45 08             	mov    0x8(%ebp),%eax
     e25:	8b 7d 18             	mov    0x18(%ebp),%edi
     e28:	89 55 bc             	mov    %edx,-0x44(%ebp)
     e2b:	89 4d b8             	mov    %ecx,-0x48(%ebp)
     e2e:	db e8                	fucomi %st(0),%st
     e30:	89 45 b4             	mov    %eax,-0x4c(%ebp)
     e33:	8b 45 1c             	mov    0x1c(%ebp),%eax
     e36:	0f 8a 1c 02 00 00    	jp     1058 <_ftoa+0x248>
     e3c:	dd 05 08 00 00 00    	fldl   0x8
			e3e: R_386_32	.rodata.cst8
     e42:	df f1                	fcomip %st(1),%st
     e44:	0f 87 76 02 00 00    	ja     10c0 <_ftoa+0x2b0>
     e4a:	dd 05 00 00 00 00    	fldl   0x0
			e4c: R_386_32	.rodata.cst8
     e50:	d9 c9                	fxch   %st(1)
     e52:	db f1                	fcomi  %st(1),%st
     e54:	dd d9                	fstp   %st(1)
     e56:	0f 87 b4 01 00 00    	ja     1010 <_ftoa+0x200>
     e5c:	d9 05 20 00 00 00    	flds   0x20
			e5e: R_386_32	.rodata.cst4
     e62:	d9 c9                	fxch   %st(1)
     e64:	db f1                	fcomi  %st(1),%st
     e66:	dd d9                	fstp   %st(1)
     e68:	0f 87 22 02 00 00    	ja     1090 <_ftoa+0x280>
     e6e:	d9 05 24 00 00 00    	flds   0x24
			e70: R_386_32	.rodata.cst4
     e74:	df f1                	fcomip %st(1),%st
     e76:	0f 87 14 02 00 00    	ja     1090 <_ftoa+0x280>
     e7c:	d9 ee                	fldz   
     e7e:	db f1                	fcomi  %st(1),%st
     e80:	0f 87 fa 01 00 00    	ja     1080 <_ftoa+0x270>
     e86:	dd d8                	fstp   %st(0)
     e88:	c6 45 b3 00          	movb   $0x0,-0x4d(%ebp)
     e8c:	89 c1                	mov    %eax,%ecx
     e8e:	81 e1 00 04 00 00    	and    $0x400,%ecx
     e94:	0f 84 a6 02 00 00    	je     1140 <_ftoa+0x330>
     e9a:	31 c9                	xor    %ecx,%ecx
     e9c:	8d 55 c7             	lea    -0x39(%ebp),%edx
     e9f:	83 fe 09             	cmp    $0x9,%esi
     ea2:	0f 86 d9 03 00 00    	jbe    1281 <_ftoa+0x471>
     ea8:	8d b4 26 00 00 00 00 	lea    0x0(%esi,%eiz,1),%esi
     eaf:	90                   	nop
     eb0:	83 c1 01             	add    $0x1,%ecx
     eb3:	83 ee 01             	sub    $0x1,%esi
     eb6:	c6 04 0a 30          	movb   $0x30,(%edx,%ecx,1)
     eba:	83 f9 1f             	cmp    $0x1f,%ecx
     ebd:	77 05                	ja     ec4 <_ftoa+0xb4>
     ebf:	83 fe 09             	cmp    $0x9,%esi
     ec2:	77 ec                	ja     eb0 <_ftoa+0xa0>
     ec4:	d9 05 20 00 00 00    	flds   0x20
			ec6: R_386_32	.rodata.cst4
     eca:	d9 c9                	fxch   %st(1)
     ecc:	d9 7d c6             	fnstcw -0x3a(%ebp)
     ecf:	0f b7 55 c6          	movzwl -0x3a(%ebp),%edx
     ed3:	80 ce 0c             	or     $0xc,%dh
     ed6:	66 89 55 c4          	mov    %dx,-0x3c(%ebp)
     eda:	d9 6d c4             	fldcw  -0x3c(%ebp)
     edd:	db 55 a8             	fistl  -0x58(%ebp)
     ee0:	d9 6d c6             	fldcw  -0x3a(%ebp)
     ee3:	db 45 a8             	fildl  -0x58(%ebp)
     ee6:	8b 5d a8             	mov    -0x58(%ebp),%ebx
     ee9:	d8 e9                	fsubr  %st(1),%st
     eeb:	d8 ca                	fmul   %st(2),%st
     eed:	d9 c0                	fld    %st(0)
     eef:	d9 6d c4             	fldcw  -0x3c(%ebp)
     ef2:	df 7d a8             	fistpll -0x58(%ebp)
     ef5:	d9 6d c6             	fldcw  -0x3a(%ebp)
     ef8:	c7 45 ac 00 00 00 00 	movl   $0x0,-0x54(%ebp)
     eff:	df 6d a8             	fildll -0x58(%ebp)
     f02:	8b 55 a8             	mov    -0x58(%ebp),%edx
     f05:	de e9                	fsubrp %st,%st(1)
     f07:	d9 05 04 00 00 00    	flds   0x4
			f09: R_386_32	.rodata.cst4
     f0d:	d9 c9                	fxch   %st(1)
     f0f:	db f1                	fcomi  %st(1),%st
     f11:	0f 86 c9 01 00 00    	jbe    10e0 <_ftoa+0x2d0>
     f17:	dd d8                	fstp   %st(0)
     f19:	dd d8                	fstp   %st(0)
     f1b:	83 c2 01             	add    $0x1,%edx
     f1e:	c7 45 ac 00 00 00 00 	movl   $0x0,-0x54(%ebp)
     f25:	89 55 a8             	mov    %edx,-0x58(%ebp)
     f28:	df 6d a8             	fildll -0x58(%ebp)
     f2b:	df f2                	fcomip %st(2),%st
     f2d:	dd d9                	fstp   %st(1)
     f2f:	72 05                	jb     f36 <_ftoa+0x126>
     f31:	83 c3 01             	add    $0x1,%ebx
     f34:	31 d2                	xor    %edx,%edx
     f36:	89 5d a8             	mov    %ebx,-0x58(%ebp)
     f39:	85 f6                	test   %esi,%esi
     f3b:	0f 84 c7 01 00 00    	je     1108 <_ftoa+0x2f8>
     f41:	dd d8                	fstp   %st(0)
     f43:	89 7d a4             	mov    %edi,-0x5c(%ebp)
     f46:	89 d3                	mov    %edx,%ebx
     f48:	89 45 a0             	mov    %eax,-0x60(%ebp)
     f4b:	eb 2e                	jmp    f7b <_ftoa+0x16b>
     f4d:	8d 76 00             	lea    0x0(%esi),%esi
     f50:	b8 cd cc cc cc       	mov    $0xcccccccd,%eax
     f55:	83 c1 01             	add    $0x1,%ecx
     f58:	83 ee 01             	sub    $0x1,%esi
     f5b:	f7 e3                	mul    %ebx
     f5d:	89 d8                	mov    %ebx,%eax
     f5f:	c1 ea 03             	shr    $0x3,%edx
     f62:	8d 3c 92             	lea    (%edx,%edx,4),%edi
     f65:	01 ff                	add    %edi,%edi
     f67:	29 f8                	sub    %edi,%eax
     f69:	83 c0 30             	add    $0x30,%eax
     f6c:	88 44 0d c7          	mov    %al,-0x39(%ebp,%ecx,1)
     f70:	83 fb 09             	cmp    $0x9,%ebx
     f73:	0f 86 17 02 00 00    	jbe    1190 <_ftoa+0x380>
     f79:	89 d3                	mov    %edx,%ebx
     f7b:	83 f9 20             	cmp    $0x20,%ecx
     f7e:	75 d0                	jne    f50 <_ftoa+0x140>
     f80:	8b 5d a8             	mov    -0x58(%ebp),%ebx
     f83:	8b 7d a4             	mov    -0x5c(%ebp),%edi
     f86:	8b 45 a0             	mov    -0x60(%ebp),%eax
     f89:	b9 20 00 00 00       	mov    $0x20,%ecx
     f8e:	66 90                	xchg   %ax,%ax
     f90:	89 7d a8             	mov    %edi,-0x58(%ebp)
     f93:	be 67 66 66 66       	mov    $0x66666667,%esi
     f98:	89 c7                	mov    %eax,%edi
     f9a:	eb 2d                	jmp    fc9 <_ftoa+0x1b9>
     f9c:	8d 74 26 00          	lea    0x0(%esi,%eiz,1),%esi
     fa0:	89 d8                	mov    %ebx,%eax
     fa2:	83 c1 01             	add    $0x1,%ecx
     fa5:	f7 ee                	imul   %esi
     fa7:	89 d8                	mov    %ebx,%eax
     fa9:	c1 f8 1f             	sar    $0x1f,%eax
     fac:	c1 fa 02             	sar    $0x2,%edx
     faf:	29 c2                	sub    %eax,%edx
     fb1:	8d 04 92             	lea    (%edx,%edx,4),%eax
     fb4:	01 c0                	add    %eax,%eax
     fb6:	29 c3                	sub    %eax,%ebx
     fb8:	83 c3 30             	add    $0x30,%ebx
     fbb:	88 5c 0d c7          	mov    %bl,-0x39(%ebp,%ecx,1)
     fbf:	89 d3                	mov    %edx,%ebx
     fc1:	85 d2                	test   %edx,%edx
     fc3:	0f 84 8f 01 00 00    	je     1158 <_ftoa+0x348>
     fc9:	83 f9 20             	cmp    $0x20,%ecx
     fcc:	75 d2                	jne    fa0 <_ftoa+0x190>
     fce:	89 f8                	mov    %edi,%eax
     fd0:	8b 7d a8             	mov    -0x58(%ebp),%edi
     fd3:	89 c2                	mov    %eax,%edx
     fd5:	83 e2 03             	and    $0x3,%edx
     fd8:	83 fa 01             	cmp    $0x1,%edx
     fdb:	0f 84 3f 02 00 00    	je     1220 <_ftoa+0x410>
     fe1:	83 ec 0c             	sub    $0xc,%esp
     fe4:	50                   	push   %eax
     fe5:	8d 45 c8             	lea    -0x38(%ebp),%eax
     fe8:	57                   	push   %edi
     fe9:	51                   	push   %ecx
     fea:	50                   	push   %eax
     feb:	ff 75 b4             	pushl  -0x4c(%ebp)
     fee:	8b 4d b8             	mov    -0x48(%ebp),%ecx
     ff1:	8b 55 bc             	mov    -0x44(%ebp),%edx
     ff4:	8b 45 c0             	mov    -0x40(%ebp),%eax
     ff7:	e8 e4 f4 ff ff       	call   4e0 <_out_rev>
     ffc:	83 c4 20             	add    $0x20,%esp
     fff:	8d 65 f4             	lea    -0xc(%ebp),%esp
    1002:	5b                   	pop    %ebx
    1003:	5e                   	pop    %esi
    1004:	5f                   	pop    %edi
    1005:	5d                   	pop    %ebp
    1006:	c3                   	ret    
    1007:	8d b4 26 00 00 00 00 	lea    0x0(%esi,%eiz,1),%esi
    100e:	66 90                	xchg   %ax,%ax
    1010:	dd d8                	fstp   %st(0)
    1012:	89 c2                	mov    %eax,%edx
    1014:	bb 19 00 00 00       	mov    $0x19,%ebx
			1015: R_386_32	.rodata.str1.1
    1019:	89 45 18             	mov    %eax,0x18(%ebp)
    101c:	83 e2 04             	and    $0x4,%edx
    101f:	89 7d 14             	mov    %edi,0x14(%ebp)
    1022:	83 fa 01             	cmp    $0x1,%edx
    1025:	19 c9                	sbb    %ecx,%ecx
    1027:	83 c1 04             	add    $0x4,%ecx
    102a:	85 d2                	test   %edx,%edx
    102c:	ba 1e 00 00 00       	mov    $0x1e,%edx
			102d: R_386_32	.rodata.str1.1
    1031:	0f 45 d3             	cmovne %ebx,%edx
    1034:	89 4d 10             	mov    %ecx,0x10(%ebp)
    1037:	89 55 0c             	mov    %edx,0xc(%ebp)
    103a:	8b 45 b4             	mov    -0x4c(%ebp),%eax
    103d:	8b 4d b8             	mov    -0x48(%ebp),%ecx
    1040:	8b 55 bc             	mov    -0x44(%ebp),%edx
    1043:	89 45 08             	mov    %eax,0x8(%ebp)
    1046:	8b 45 c0             	mov    -0x40(%ebp),%eax
    1049:	8d 65 f4             	lea    -0xc(%ebp),%esp
    104c:	5b                   	pop    %ebx
    104d:	5e                   	pop    %esi
    104e:	5f                   	pop    %edi
    104f:	5d                   	pop    %ebp
    1050:	e9 8b f4 ff ff       	jmp    4e0 <_out_rev>
    1055:	8d 76 00             	lea    0x0(%esi),%esi
    1058:	dd d8                	fstp   %st(0)
    105a:	89 45 18             	mov    %eax,0x18(%ebp)
    105d:	8b 45 c0             	mov    -0x40(%ebp),%eax
    1060:	89 7d 14             	mov    %edi,0x14(%ebp)
    1063:	c7 45 10 03 00 00 00 	movl   $0x3,0x10(%ebp)
    106a:	c7 45 0c 22 00 00 00 	movl   $0x22,0xc(%ebp)
			106d: R_386_32	.rodata.str1.1
    1071:	8d 65 f4             	lea    -0xc(%ebp),%esp
    1074:	5b                   	pop    %ebx
    1075:	5e                   	pop    %esi
    1076:	5f                   	pop    %edi
    1077:	5d                   	pop    %ebp
    1078:	e9 63 f4 ff ff       	jmp    4e0 <_out_rev>
    107d:	8d 76 00             	lea    0x0(%esi),%esi
    1080:	de e1                	fsubp  %st,%st(1)
    1082:	c6 45 b3 01          	movb   $0x1,-0x4d(%ebp)
    1086:	e9 01 fe ff ff       	jmp    e8c <_ftoa+0x7c>
    108b:	8d 74 26 00          	lea    0x0(%esi,%eiz,1),%esi
    108f:	90                   	nop
    1090:	89 45 1c             	mov    %eax,0x1c(%ebp)
    1093:	8b 45 b4             	mov    -0x4c(%ebp),%eax
    1096:	8b 4d b8             	mov    -0x48(%ebp),%ecx
    1099:	8b 55 bc             	mov    -0x44(%ebp),%edx
    109c:	89 7d 18             	mov    %edi,0x18(%ebp)
    109f:	89 45 08             	mov    %eax,0x8(%ebp)
    10a2:	8b 45 c0             	mov    -0x40(%ebp),%eax
    10a5:	89 75 14             	mov    %esi,0x14(%ebp)
    10a8:	dd 5d 0c             	fstpl  0xc(%ebp)
    10ab:	8d 65 f4             	lea    -0xc(%ebp),%esp
    10ae:	5b                   	pop    %ebx
    10af:	5e                   	pop    %esi
    10b0:	5f                   	pop    %edi
    10b1:	5d                   	pop    %ebp
    10b2:	e9 a9 f9 ff ff       	jmp    a60 <_etoa>
    10b7:	8d b4 26 00 00 00 00 	lea    0x0(%esi,%eiz,1),%esi
    10be:	66 90                	xchg   %ax,%ax
    10c0:	dd d8                	fstp   %st(0)
    10c2:	89 45 18             	mov    %eax,0x18(%ebp)
    10c5:	89 7d 14             	mov    %edi,0x14(%ebp)
    10c8:	c7 45 10 04 00 00 00 	movl   $0x4,0x10(%ebp)
    10cf:	c7 45 0c 26 00 00 00 	movl   $0x26,0xc(%ebp)
			10d2: R_386_32	.rodata.str1.1
    10d6:	e9 5f ff ff ff       	jmp    103a <_ftoa+0x22a>
    10db:	8d 74 26 00          	lea    0x0(%esi,%eiz,1),%esi
    10df:	90                   	nop
    10e0:	dd db                	fstp   %st(3)
    10e2:	d9 c9                	fxch   %st(1)
    10e4:	d9 ca                	fxch   %st(2)
    10e6:	d9 c9                	fxch   %st(1)
    10e8:	df f1                	fcomip %st(1),%st
    10ea:	dd d8                	fstp   %st(0)
    10ec:	0f 87 44 fe ff ff    	ja     f36 <_ftoa+0x126>
    10f2:	85 d2                	test   %edx,%edx
    10f4:	0f 85 0e 01 00 00    	jne    1208 <_ftoa+0x3f8>
    10fa:	83 c2 01             	add    $0x1,%edx
    10fd:	e9 34 fe ff ff       	jmp    f36 <_ftoa+0x126>
    1102:	8d b6 00 00 00 00    	lea    0x0(%esi),%esi
    1108:	db 45 a8             	fildl  -0x58(%ebp)
    110b:	de e9                	fsubrp %st,%st(1)
    110d:	d9 05 04 00 00 00    	flds   0x4
			110f: R_386_32	.rodata.cst4
    1113:	db f1                	fcomi  %st(1),%st
    1115:	76 11                	jbe    1128 <_ftoa+0x318>
    1117:	d9 c9                	fxch   %st(1)
    1119:	df f1                	fcomip %st(1),%st
    111b:	dd d8                	fstp   %st(0)
    111d:	0f 86 6d fe ff ff    	jbe    f90 <_ftoa+0x180>
    1123:	eb 07                	jmp    112c <_ftoa+0x31c>
    1125:	8d 76 00             	lea    0x0(%esi),%esi
    1128:	dd d8                	fstp   %st(0)
    112a:	dd d8                	fstp   %st(0)
    112c:	89 da                	mov    %ebx,%edx
    112e:	83 e2 01             	and    $0x1,%edx
    1131:	83 fa 01             	cmp    $0x1,%edx
    1134:	83 db ff             	sbb    $0xffffffff,%ebx
    1137:	e9 54 fe ff ff       	jmp    f90 <_ftoa+0x180>
    113c:	8d 74 26 00          	lea    0x0(%esi,%eiz,1),%esi
    1140:	d9 05 1c 00 00 00    	flds   0x1c
			1142: R_386_32	.rodata.cst4
    1146:	d9 c9                	fxch   %st(1)
    1148:	be 06 00 00 00       	mov    $0x6,%esi
    114d:	e9 7a fd ff ff       	jmp    ecc <_ftoa+0xbc>
    1152:	8d b6 00 00 00 00    	lea    0x0(%esi),%esi
    1158:	89 f8                	mov    %edi,%eax
    115a:	8b 7d a8             	mov    -0x58(%ebp),%edi
    115d:	89 c2                	mov    %eax,%edx
    115f:	83 e2 03             	and    $0x3,%edx
    1162:	83 fa 01             	cmp    $0x1,%edx
    1165:	0f 84 05 01 00 00    	je     1270 <_ftoa+0x460>
    116b:	83 f9 20             	cmp    $0x20,%ecx
    116e:	0f 84 6d fe ff ff    	je     fe1 <_ftoa+0x1d1>
    1174:	80 7d b3 00          	cmpb   $0x0,-0x4d(%ebp)
    1178:	74 5e                	je     11d8 <_ftoa+0x3c8>
    117a:	c6 44 0d c8 2d       	movb   $0x2d,-0x38(%ebp,%ecx,1)
    117f:	83 c1 01             	add    $0x1,%ecx
    1182:	e9 5a fe ff ff       	jmp    fe1 <_ftoa+0x1d1>
    1187:	8d b4 26 00 00 00 00 	lea    0x0(%esi,%eiz,1),%esi
    118e:	66 90                	xchg   %ax,%ax
    1190:	8b 5d a8             	mov    -0x58(%ebp),%ebx
    1193:	8b 7d a4             	mov    -0x5c(%ebp),%edi
    1196:	8b 45 a0             	mov    -0x60(%ebp),%eax
    1199:	83 f9 20             	cmp    $0x20,%ecx
    119c:	0f 84 e7 fd ff ff    	je     f89 <_ftoa+0x179>
    11a2:	8d 14 0e             	lea    (%esi,%ecx,1),%edx
    11a5:	85 f6                	test   %esi,%esi
    11a7:	0f 84 cd 00 00 00    	je     127a <_ftoa+0x46a>
    11ad:	8d 76 00             	lea    0x0(%esi),%esi
    11b0:	83 c1 01             	add    $0x1,%ecx
    11b3:	c6 44 0d c7 30       	movb   $0x30,-0x39(%ebp,%ecx,1)
    11b8:	83 f9 20             	cmp    $0x20,%ecx
    11bb:	0f 84 c8 fd ff ff    	je     f89 <_ftoa+0x179>
    11c1:	39 d1                	cmp    %edx,%ecx
    11c3:	75 eb                	jne    11b0 <_ftoa+0x3a0>
    11c5:	c6 44 15 c8 2e       	movb   $0x2e,-0x38(%ebp,%edx,1)
    11ca:	8d 4a 01             	lea    0x1(%edx),%ecx
    11cd:	e9 be fd ff ff       	jmp    f90 <_ftoa+0x180>
    11d2:	8d b6 00 00 00 00    	lea    0x0(%esi),%esi
    11d8:	a8 04                	test   $0x4,%al
    11da:	75 1c                	jne    11f8 <_ftoa+0x3e8>
    11dc:	a8 08                	test   $0x8,%al
    11de:	0f 84 fd fd ff ff    	je     fe1 <_ftoa+0x1d1>
    11e4:	c6 44 0d c8 20       	movb   $0x20,-0x38(%ebp,%ecx,1)
    11e9:	83 c1 01             	add    $0x1,%ecx
    11ec:	e9 f0 fd ff ff       	jmp    fe1 <_ftoa+0x1d1>
    11f1:	8d b4 26 00 00 00 00 	lea    0x0(%esi,%eiz,1),%esi
    11f8:	c6 44 0d c8 2b       	movb   $0x2b,-0x38(%ebp,%ecx,1)
    11fd:	83 c1 01             	add    $0x1,%ecx
    1200:	e9 dc fd ff ff       	jmp    fe1 <_ftoa+0x1d1>
    1205:	8d 76 00             	lea    0x0(%esi),%esi
    1208:	f6 c2 01             	test   $0x1,%dl
    120b:	0f 84 25 fd ff ff    	je     f36 <_ftoa+0x126>
    1211:	e9 e4 fe ff ff       	jmp    10fa <_ftoa+0x2ea>
    1216:	8d b4 26 00 00 00 00 	lea    0x0(%esi,%eiz,1),%esi
    121d:	8d 76 00             	lea    0x0(%esi),%esi
    1220:	85 ff                	test   %edi,%edi
    1222:	0f 84 b9 fd ff ff    	je     fe1 <_ftoa+0x1d1>
    1228:	80 7d b3 00          	cmpb   $0x0,-0x4d(%ebp)
    122c:	75 04                	jne    1232 <_ftoa+0x422>
    122e:	a8 0c                	test   $0xc,%al
    1230:	74 03                	je     1235 <_ftoa+0x425>
    1232:	83 ef 01             	sub    $0x1,%edi
    1235:	39 f9                	cmp    %edi,%ecx
    1237:	0f 83 2e ff ff ff    	jae    116b <_ftoa+0x35b>
    123d:	83 f9 1f             	cmp    $0x1f,%ecx
    1240:	0f 87 25 ff ff ff    	ja     116b <_ftoa+0x35b>
    1246:	8d 55 c7             	lea    -0x39(%ebp),%edx
    1249:	8d b4 26 00 00 00 00 	lea    0x0(%esi,%eiz,1),%esi
    1250:	83 c1 01             	add    $0x1,%ecx
    1253:	c6 04 0a 30          	movb   $0x30,(%edx,%ecx,1)
    1257:	39 f9                	cmp    %edi,%ecx
    1259:	0f 83 0c ff ff ff    	jae    116b <_ftoa+0x35b>
    125f:	83 f9 1f             	cmp    $0x1f,%ecx
    1262:	76 ec                	jbe    1250 <_ftoa+0x440>
    1264:	e9 02 ff ff ff       	jmp    116b <_ftoa+0x35b>
    1269:	8d b4 26 00 00 00 00 	lea    0x0(%esi,%eiz,1),%esi
    1270:	85 ff                	test   %edi,%edi
    1272:	0f 84 f3 fe ff ff    	je     116b <_ftoa+0x35b>
    1278:	eb ae                	jmp    1228 <_ftoa+0x418>
    127a:	89 ca                	mov    %ecx,%edx
    127c:	e9 44 ff ff ff       	jmp    11c5 <_ftoa+0x3b5>
    1281:	dd 04 f5 20 03 00 00 	fldl   0x320(,%esi,8)
			1284: R_386_32	.rodata
    1288:	d9 c9                	fxch   %st(1)
    128a:	e9 3d fc ff ff       	jmp    ecc <_ftoa+0xbc>
    128f:	90                   	nop

00001290 <_out_char>:
    1290:	55                   	push   %ebp
    1291:	89 e5                	mov    %esp,%ebp
    1293:	8b 45 08             	mov    0x8(%ebp),%eax
    1296:	84 c0                	test   %al,%al
    1298:	75 06                	jne    12a0 <_out_char+0x10>
    129a:	5d                   	pop    %ebp
    129b:	c3                   	ret    
    129c:	8d 74 26 00          	lea    0x0(%esi,%eiz,1),%esi
    12a0:	0f be c0             	movsbl %al,%eax
    12a3:	89 45 08             	mov    %eax,0x8(%ebp)
    12a6:	5d                   	pop    %ebp
    12a7:	e9 fc ff ff ff       	jmp    12a8 <_out_char+0x18>
			12a8: R_386_PC32	term_put_char
    12ac:	8d 74 26 00          	lea    0x0(%esi,%eiz,1),%esi

000012b0 <_out_fct>:
    12b0:	55                   	push   %ebp
    12b1:	89 e5                	mov    %esp,%ebp
    12b3:	8b 45 08             	mov    0x8(%ebp),%eax
    12b6:	8b 55 0c             	mov    0xc(%ebp),%edx
    12b9:	84 c0                	test   %al,%al
    12bb:	74 13                	je     12d0 <_out_fct+0x20>
    12bd:	8b 4a 04             	mov    0x4(%edx),%ecx
    12c0:	0f be c0             	movsbl %al,%eax
    12c3:	89 45 08             	mov    %eax,0x8(%ebp)
    12c6:	89 4d 0c             	mov    %ecx,0xc(%ebp)
    12c9:	8b 02                	mov    (%edx),%eax
    12cb:	5d                   	pop    %ebp
    12cc:	ff e0                	jmp    *%eax
    12ce:	66 90                	xchg   %ax,%ax
    12d0:	5d                   	pop    %ebp
    12d1:	c3                   	ret    
    12d2:	8d b4 26 00 00 00 00 	lea    0x0(%esi,%eiz,1),%esi
    12d9:	8d b4 26 00 00 00 00 	lea    0x0(%esi,%eiz,1),%esi

000012e0 <_vsnprintf>:
    12e0:	55                   	push   %ebp
    12e1:	89 e5                	mov    %esp,%ebp
    12e3:	57                   	push   %edi
    12e4:	56                   	push   %esi
    12e5:	53                   	push   %ebx
    12e6:	83 ec 4c             	sub    $0x4c,%esp
    12e9:	8b 75 08             	mov    0x8(%ebp),%esi
    12ec:	85 d2                	test   %edx,%edx
    12ee:	89 55 e0             	mov    %edx,-0x20(%ebp)
    12f1:	ba d0 04 00 00       	mov    $0x4d0,%edx
			12f2: R_386_32	.text
    12f6:	89 4d dc             	mov    %ecx,-0x24(%ebp)
    12f9:	0f 45 d0             	cmovne %eax,%edx
    12fc:	0f be 06             	movsbl (%esi),%eax
    12ff:	31 ff                	xor    %edi,%edi
    1301:	89 55 e4             	mov    %edx,-0x1c(%ebp)
    1304:	84 c0                	test   %al,%al
    1306:	75 28                	jne    1330 <_vsnprintf+0x50>
    1308:	e9 8b 06 00 00       	jmp    1998 <_vsnprintf+0x6b8>
    130d:	8d 76 00             	lea    0x0(%esi),%esi
    1310:	ff 75 dc             	pushl  -0x24(%ebp)
    1313:	8d 5f 01             	lea    0x1(%edi),%ebx
    1316:	57                   	push   %edi
    1317:	89 df                	mov    %ebx,%edi
    1319:	ff 75 e0             	pushl  -0x20(%ebp)
    131c:	50                   	push   %eax
    131d:	8b 45 e4             	mov    -0x1c(%ebp),%eax
    1320:	ff d0                	call   *%eax
    1322:	83 c4 10             	add    $0x10,%esp
    1325:	0f be 06             	movsbl (%esi),%eax
    1328:	84 c0                	test   %al,%al
    132a:	0f 84 68 01 00 00    	je     1498 <_vsnprintf+0x1b8>
    1330:	83 c6 01             	add    $0x1,%esi
    1333:	3c 25                	cmp    $0x25,%al
    1335:	75 d9                	jne    1310 <_vsnprintf+0x30>
    1337:	31 db                	xor    %ebx,%ebx
    1339:	8d b4 26 00 00 00 00 	lea    0x0(%esi,%eiz,1),%esi
    1340:	0f be 06             	movsbl (%esi),%eax
    1343:	8d 56 01             	lea    0x1(%esi),%edx
    1346:	8d 48 e0             	lea    -0x20(%eax),%ecx
    1349:	80 f9 10             	cmp    $0x10,%cl
    134c:	77 12                	ja     1360 <_vsnprintf+0x80>
    134e:	0f b6 c9             	movzbl %cl,%ecx
    1351:	ff 24 8d 80 01 00 00 	jmp    *0x180(,%ecx,4)
			1354: R_386_32	.rodata
    1358:	8d b4 26 00 00 00 00 	lea    0x0(%esi,%eiz,1),%esi
    135f:	90                   	nop
    1360:	8d 48 d0             	lea    -0x30(%eax),%ecx
    1363:	80 f9 09             	cmp    $0x9,%cl
    1366:	0f 86 54 01 00 00    	jbe    14c0 <_vsnprintf+0x1e0>
    136c:	c7 45 d4 00 00 00 00 	movl   $0x0,-0x2c(%ebp)
    1373:	3c 2a                	cmp    $0x2a,%al
    1375:	0f 84 b5 01 00 00    	je     1530 <_vsnprintf+0x250>
    137b:	c7 45 d8 00 00 00 00 	movl   $0x0,-0x28(%ebp)
    1382:	3c 2e                	cmp    $0x2e,%al
    1384:	0f 84 75 01 00 00    	je     14ff <_vsnprintf+0x21f>
    138a:	8d 48 98             	lea    -0x68(%eax),%ecx
    138d:	80 f9 12             	cmp    $0x12,%cl
    1390:	77 68                	ja     13fa <_vsnprintf+0x11a>
    1392:	0f b6 c9             	movzbl %cl,%ecx
    1395:	ff 24 8d c4 01 00 00 	jmp    *0x1c4(,%ecx,4)
			1398: R_386_32	.rodata
    139c:	8d 74 26 00          	lea    0x0(%esi,%eiz,1),%esi
    13a0:	83 cb 01             	or     $0x1,%ebx
    13a3:	89 d6                	mov    %edx,%esi
    13a5:	eb 99                	jmp    1340 <_vsnprintf+0x60>
    13a7:	8d b4 26 00 00 00 00 	lea    0x0(%esi,%eiz,1),%esi
    13ae:	66 90                	xchg   %ax,%ax
    13b0:	83 cb 02             	or     $0x2,%ebx
    13b3:	89 d6                	mov    %edx,%esi
    13b5:	eb 89                	jmp    1340 <_vsnprintf+0x60>
    13b7:	8d b4 26 00 00 00 00 	lea    0x0(%esi,%eiz,1),%esi
    13be:	66 90                	xchg   %ax,%ax
    13c0:	83 cb 04             	or     $0x4,%ebx
    13c3:	89 d6                	mov    %edx,%esi
    13c5:	e9 76 ff ff ff       	jmp    1340 <_vsnprintf+0x60>
    13ca:	8d b6 00 00 00 00    	lea    0x0(%esi),%esi
    13d0:	83 cb 10             	or     $0x10,%ebx
    13d3:	89 d6                	mov    %edx,%esi
    13d5:	e9 66 ff ff ff       	jmp    1340 <_vsnprintf+0x60>
    13da:	8d b6 00 00 00 00    	lea    0x0(%esi),%esi
    13e0:	83 cb 08             	or     $0x8,%ebx
    13e3:	89 d6                	mov    %edx,%esi
    13e5:	e9 56 ff ff ff       	jmp    1340 <_vsnprintf+0x60>
    13ea:	8d b6 00 00 00 00    	lea    0x0(%esi),%esi
    13f0:	0f be 46 01          	movsbl 0x1(%esi),%eax
    13f4:	80 cf 01             	or     $0x1,%bh
    13f7:	83 c2 01             	add    $0x1,%edx
    13fa:	89 d6                	mov    %edx,%esi
    13fc:	3c 67                	cmp    $0x67,%al
    13fe:	7f 20                	jg     1420 <_vsnprintf+0x140>
    1400:	3c 24                	cmp    $0x24,%al
    1402:	0f 8e 08 ff ff ff    	jle    1310 <_vsnprintf+0x30>
    1408:	8d 50 db             	lea    -0x25(%eax),%edx
    140b:	80 fa 42             	cmp    $0x42,%dl
    140e:	0f 87 fc fe ff ff    	ja     1310 <_vsnprintf+0x30>
    1414:	0f b6 d2             	movzbl %dl,%edx
    1417:	ff 24 95 10 02 00 00 	jmp    *0x210(,%edx,4)
			141a: R_386_32	.rodata
    141e:	66 90                	xchg   %ax,%ax
    1420:	8d 48 97             	lea    -0x69(%eax),%ecx
    1423:	80 f9 0f             	cmp    $0xf,%cl
    1426:	0f 87 e4 fe ff ff    	ja     1310 <_vsnprintf+0x30>
    142c:	ba 01 00 00 00       	mov    $0x1,%edx
    1431:	d3 e2                	shl    %cl,%edx
    1433:	81 e2 41 90 00 00    	and    $0x9041,%edx
    1439:	0f 85 a9 04 00 00    	jne    18e8 <_vsnprintf+0x608>
    143f:	80 f9 0a             	cmp    $0xa,%cl
    1442:	0f 84 8b 02 00 00    	je     16d3 <_vsnprintf+0x3f3>
    1448:	80 f9 07             	cmp    $0x7,%cl
    144b:	0f 85 bf fe ff ff    	jne    1310 <_vsnprintf+0x30>
    1451:	8b 45 0c             	mov    0xc(%ebp),%eax
    1454:	83 ec 04             	sub    $0x4,%esp
    1457:	83 cb 21             	or     $0x21,%ebx
    145a:	8b 55 e0             	mov    -0x20(%ebp),%edx
    145d:	89 f9                	mov    %edi,%ecx
    145f:	83 c0 04             	add    $0x4,%eax
    1462:	89 45 d4             	mov    %eax,-0x2c(%ebp)
    1465:	8b 45 e4             	mov    -0x1c(%ebp),%eax
    1468:	53                   	push   %ebx
    1469:	8b 5d 0c             	mov    0xc(%ebp),%ebx
    146c:	6a 08                	push   $0x8
    146e:	ff 75 d8             	pushl  -0x28(%ebp)
    1471:	6a 10                	push   $0x10
    1473:	6a 00                	push   $0x0
    1475:	ff 33                	pushl  (%ebx)
    1477:	ff 75 dc             	pushl  -0x24(%ebp)
    147a:	e8 11 f4 ff ff       	call   890 <_ntoa_long>
    147f:	83 c4 20             	add    $0x20,%esp
    1482:	89 c7                	mov    %eax,%edi
    1484:	8b 45 d4             	mov    -0x2c(%ebp),%eax
    1487:	89 45 0c             	mov    %eax,0xc(%ebp)
    148a:	0f be 06             	movsbl (%esi),%eax
    148d:	84 c0                	test   %al,%al
    148f:	0f 85 9b fe ff ff    	jne    1330 <_vsnprintf+0x50>
    1495:	8d 76 00             	lea    0x0(%esi),%esi
    1498:	89 fb                	mov    %edi,%ebx
    149a:	8b 75 dc             	mov    -0x24(%ebp),%esi
    149d:	39 f7                	cmp    %esi,%edi
    149f:	8d 46 ff             	lea    -0x1(%esi),%eax
    14a2:	56                   	push   %esi
    14a3:	0f 43 f8             	cmovae %eax,%edi
    14a6:	8b 45 e4             	mov    -0x1c(%ebp),%eax
    14a9:	57                   	push   %edi
    14aa:	ff 75 e0             	pushl  -0x20(%ebp)
    14ad:	6a 00                	push   $0x0
    14af:	ff d0                	call   *%eax
    14b1:	8d 65 f4             	lea    -0xc(%ebp),%esp
    14b4:	89 d8                	mov    %ebx,%eax
    14b6:	5b                   	pop    %ebx
    14b7:	5e                   	pop    %esi
    14b8:	5f                   	pop    %edi
    14b9:	5d                   	pop    %ebp
    14ba:	c3                   	ret    
    14bb:	8d 74 26 00          	lea    0x0(%esi,%eiz,1),%esi
    14bf:	90                   	nop
    14c0:	89 5d d8             	mov    %ebx,-0x28(%ebp)
    14c3:	31 c9                	xor    %ecx,%ecx
    14c5:	eb 0c                	jmp    14d3 <_vsnprintf+0x1f3>
    14c7:	8d b4 26 00 00 00 00 	lea    0x0(%esi,%eiz,1),%esi
    14ce:	66 90                	xchg   %ax,%ax
    14d0:	83 c2 01             	add    $0x1,%edx
    14d3:	8d 0c 89             	lea    (%ecx,%ecx,4),%ecx
    14d6:	89 d6                	mov    %edx,%esi
    14d8:	8d 4c 48 d0          	lea    -0x30(%eax,%ecx,2),%ecx
    14dc:	0f be 02             	movsbl (%edx),%eax
    14df:	8d 58 d0             	lea    -0x30(%eax),%ebx
    14e2:	80 fb 09             	cmp    $0x9,%bl
    14e5:	76 e9                	jbe    14d0 <_vsnprintf+0x1f0>
    14e7:	8b 5d d8             	mov    -0x28(%ebp),%ebx
    14ea:	89 4d d4             	mov    %ecx,-0x2c(%ebp)
    14ed:	83 c2 01             	add    $0x1,%edx
    14f0:	c7 45 d8 00 00 00 00 	movl   $0x0,-0x28(%ebp)
    14f7:	3c 2e                	cmp    $0x2e,%al
    14f9:	0f 85 8b fe ff ff    	jne    138a <_vsnprintf+0xaa>
    14ff:	0f be 46 01          	movsbl 0x1(%esi),%eax
    1503:	89 55 d0             	mov    %edx,-0x30(%ebp)
    1506:	80 cf 04             	or     $0x4,%bh
    1509:	8d 48 d0             	lea    -0x30(%eax),%ecx
    150c:	80 f9 09             	cmp    $0x9,%cl
    150f:	0f 86 b3 02 00 00    	jbe    17c8 <_vsnprintf+0x4e8>
    1515:	3c 2a                	cmp    $0x2a,%al
    1517:	0f 84 d7 02 00 00    	je     17f4 <_vsnprintf+0x514>
    151d:	89 d6                	mov    %edx,%esi
    151f:	83 c2 01             	add    $0x1,%edx
    1522:	e9 63 fe ff ff       	jmp    138a <_vsnprintf+0xaa>
    1527:	8d b4 26 00 00 00 00 	lea    0x0(%esi,%eiz,1),%esi
    152e:	66 90                	xchg   %ax,%ax
    1530:	8b 45 0c             	mov    0xc(%ebp),%eax
    1533:	8d 48 04             	lea    0x4(%eax),%ecx
    1536:	8b 00                	mov    (%eax),%eax
    1538:	89 45 d4             	mov    %eax,-0x2c(%ebp)
    153b:	85 c0                	test   %eax,%eax
    153d:	78 11                	js     1550 <_vsnprintf+0x270>
    153f:	0f be 46 01          	movsbl 0x1(%esi),%eax
    1543:	89 4d 0c             	mov    %ecx,0xc(%ebp)
    1546:	89 d6                	mov    %edx,%esi
    1548:	83 c2 01             	add    $0x1,%edx
    154b:	e9 2b fe ff ff       	jmp    137b <_vsnprintf+0x9b>
    1550:	f7 d8                	neg    %eax
    1552:	89 4d 0c             	mov    %ecx,0xc(%ebp)
    1555:	83 cb 02             	or     $0x2,%ebx
    1558:	89 45 d4             	mov    %eax,-0x2c(%ebp)
    155b:	0f be 46 01          	movsbl 0x1(%esi),%eax
    155f:	89 d6                	mov    %edx,%esi
    1561:	83 c2 01             	add    $0x1,%edx
    1564:	e9 12 fe ff ff       	jmp    137b <_vsnprintf+0x9b>
    1569:	89 c1                	mov    %eax,%ecx
    156b:	89 da                	mov    %ebx,%edx
    156d:	83 e1 df             	and    $0xffffffdf,%ecx
    1570:	80 ce 08             	or     $0x8,%dh
    1573:	80 f9 47             	cmp    $0x47,%cl
    1576:	89 f9                	mov    %edi,%ecx
    1578:	0f 44 da             	cmove  %edx,%ebx
    157b:	83 e0 fd             	and    $0xfffffffd,%eax
    157e:	89 da                	mov    %ebx,%edx
    1580:	83 ca 20             	or     $0x20,%edx
    1583:	3c 45                	cmp    $0x45,%al
    1585:	8b 45 0c             	mov    0xc(%ebp),%eax
    1588:	0f 44 da             	cmove  %edx,%ebx
    158b:	83 ec 08             	sub    $0x8,%esp
    158e:	8b 55 e0             	mov    -0x20(%ebp),%edx
    1591:	83 c0 08             	add    $0x8,%eax
    1594:	89 45 d0             	mov    %eax,-0x30(%ebp)
    1597:	8b 45 e4             	mov    -0x1c(%ebp),%eax
    159a:	53                   	push   %ebx
    159b:	8b 5d 0c             	mov    0xc(%ebp),%ebx
    159e:	ff 75 d4             	pushl  -0x2c(%ebp)
    15a1:	ff 75 d8             	pushl  -0x28(%ebp)
    15a4:	ff 73 04             	pushl  0x4(%ebx)
    15a7:	ff 33                	pushl  (%ebx)
    15a9:	ff 75 dc             	pushl  -0x24(%ebp)
    15ac:	e8 af f4 ff ff       	call   a60 <_etoa>
    15b1:	83 c4 20             	add    $0x20,%esp
    15b4:	89 c7                	mov    %eax,%edi
    15b6:	8b 45 d0             	mov    -0x30(%ebp),%eax
    15b9:	89 45 0c             	mov    %eax,0xc(%ebp)
    15bc:	e9 64 fd ff ff       	jmp    1325 <_vsnprintf+0x45>
    15c1:	0f be 46 01          	movsbl 0x1(%esi),%eax
    15c5:	3c 6c                	cmp    $0x6c,%al
    15c7:	0f 84 9c 03 00 00    	je     1969 <_vsnprintf+0x689>
    15cd:	80 cf 01             	or     $0x1,%bh
    15d0:	83 c2 01             	add    $0x1,%edx
    15d3:	e9 22 fe ff ff       	jmp    13fa <_vsnprintf+0x11a>
    15d8:	0f be 46 01          	movsbl 0x1(%esi),%eax
    15dc:	80 cf 02             	or     $0x2,%bh
    15df:	83 c2 01             	add    $0x1,%edx
    15e2:	e9 13 fe ff ff       	jmp    13fa <_vsnprintf+0x11a>
    15e7:	0f be 46 01          	movsbl 0x1(%esi),%eax
    15eb:	3c 68                	cmp    $0x68,%al
    15ed:	0f 84 67 03 00 00    	je     195a <_vsnprintf+0x67a>
    15f3:	80 cb 80             	or     $0x80,%bl
    15f6:	83 c2 01             	add    $0x1,%edx
    15f9:	e9 fc fd ff ff       	jmp    13fa <_vsnprintf+0x11a>
    15fe:	89 da                	mov    %ebx,%edx
    1600:	89 f9                	mov    %edi,%ecx
    1602:	83 ca 20             	or     $0x20,%edx
    1605:	3c 46                	cmp    $0x46,%al
    1607:	8b 45 0c             	mov    0xc(%ebp),%eax
    160a:	0f 44 da             	cmove  %edx,%ebx
    160d:	83 ec 08             	sub    $0x8,%esp
    1610:	8b 55 e0             	mov    -0x20(%ebp),%edx
    1613:	83 c0 08             	add    $0x8,%eax
    1616:	89 45 d0             	mov    %eax,-0x30(%ebp)
    1619:	8b 45 e4             	mov    -0x1c(%ebp),%eax
    161c:	53                   	push   %ebx
    161d:	8b 5d 0c             	mov    0xc(%ebp),%ebx
    1620:	ff 75 d4             	pushl  -0x2c(%ebp)
    1623:	ff 75 d8             	pushl  -0x28(%ebp)
    1626:	ff 73 04             	pushl  0x4(%ebx)
    1629:	ff 33                	pushl  (%ebx)
    162b:	ff 75 dc             	pushl  -0x24(%ebp)
    162e:	e8 dd f7 ff ff       	call   e10 <_ftoa>
    1633:	83 c4 20             	add    $0x20,%esp
    1636:	89 c7                	mov    %eax,%edi
    1638:	8b 45 d0             	mov    -0x30(%ebp),%eax
    163b:	89 45 0c             	mov    %eax,0xc(%ebp)
    163e:	e9 e2 fc ff ff       	jmp    1325 <_vsnprintf+0x45>
    1643:	8b 45 0c             	mov    0xc(%ebp),%eax
    1646:	8d 57 01             	lea    0x1(%edi),%edx
    1649:	83 c0 04             	add    $0x4,%eax
    164c:	83 e3 02             	and    $0x2,%ebx
    164f:	89 45 d8             	mov    %eax,-0x28(%ebp)
    1652:	0f 84 5e 03 00 00    	je     19b6 <_vsnprintf+0x6d6>
    1658:	89 55 d0             	mov    %edx,-0x30(%ebp)
    165b:	ff 75 dc             	pushl  -0x24(%ebp)
    165e:	57                   	push   %edi
    165f:	ff 75 e0             	pushl  -0x20(%ebp)
    1662:	8b 45 0c             	mov    0xc(%ebp),%eax
    1665:	0f be 00             	movsbl (%eax),%eax
    1668:	50                   	push   %eax
    1669:	8b 45 e4             	mov    -0x1c(%ebp),%eax
    166c:	ff d0                	call   *%eax
    166e:	8b 45 d4             	mov    -0x2c(%ebp),%eax
    1671:	8b 55 d0             	mov    -0x30(%ebp),%edx
    1674:	83 c4 10             	add    $0x10,%esp
    1677:	01 c7                	add    %eax,%edi
    1679:	83 f8 01             	cmp    $0x1,%eax
    167c:	0f 86 6e 04 00 00    	jbe    1af0 <_vsnprintf+0x810>
    1682:	89 75 08             	mov    %esi,0x8(%ebp)
    1685:	89 fe                	mov    %edi,%esi
    1687:	8b 7d dc             	mov    -0x24(%ebp),%edi
    168a:	89 d3                	mov    %edx,%ebx
    168c:	8d 74 26 00          	lea    0x0(%esi,%eiz,1),%esi
    1690:	89 d8                	mov    %ebx,%eax
    1692:	57                   	push   %edi
    1693:	83 c3 01             	add    $0x1,%ebx
    1696:	50                   	push   %eax
    1697:	8b 45 e4             	mov    -0x1c(%ebp),%eax
    169a:	ff 75 e0             	pushl  -0x20(%ebp)
    169d:	6a 20                	push   $0x20
    169f:	ff d0                	call   *%eax
    16a1:	83 c4 10             	add    $0x10,%esp
    16a4:	39 de                	cmp    %ebx,%esi
    16a6:	75 e8                	jne    1690 <_vsnprintf+0x3b0>
    16a8:	89 f7                	mov    %esi,%edi
    16aa:	8b 75 08             	mov    0x8(%ebp),%esi
    16ad:	8b 45 d8             	mov    -0x28(%ebp),%eax
    16b0:	89 45 0c             	mov    %eax,0xc(%ebp)
    16b3:	e9 6d fc ff ff       	jmp    1325 <_vsnprintf+0x45>
    16b8:	ff 75 dc             	pushl  -0x24(%ebp)
    16bb:	8d 5f 01             	lea    0x1(%edi),%ebx
    16be:	8b 45 e4             	mov    -0x1c(%ebp),%eax
    16c1:	57                   	push   %edi
    16c2:	89 df                	mov    %ebx,%edi
    16c4:	ff 75 e0             	pushl  -0x20(%ebp)
    16c7:	6a 25                	push   $0x25
    16c9:	ff d0                	call   *%eax
    16cb:	83 c4 10             	add    $0x10,%esp
    16ce:	e9 52 fc ff ff       	jmp    1325 <_vsnprintf+0x45>
    16d3:	8b 45 0c             	mov    0xc(%ebp),%eax
    16d6:	8b 4d d8             	mov    -0x28(%ebp),%ecx
    16d9:	83 c0 04             	add    $0x4,%eax
    16dc:	89 45 bc             	mov    %eax,-0x44(%ebp)
    16df:	8b 45 0c             	mov    0xc(%ebp),%eax
    16e2:	8b 00                	mov    (%eax),%eax
    16e4:	89 45 cc             	mov    %eax,-0x34(%ebp)
    16e7:	0f b6 00             	movzbl (%eax),%eax
    16ea:	88 45 c4             	mov    %al,-0x3c(%ebp)
    16ed:	88 45 cb             	mov    %al,-0x35(%ebp)
    16f0:	85 c9                	test   %ecx,%ecx
    16f2:	0f 85 23 01 00 00    	jne    181b <_vsnprintf+0x53b>
    16f8:	b9 fe ff ff ff       	mov    $0xfffffffe,%ecx
    16fd:	84 c0                	test   %al,%al
    16ff:	74 27                	je     1728 <_vsnprintf+0x448>
    1701:	8b 55 cc             	mov    -0x34(%ebp),%edx
    1704:	0f b6 45 cb          	movzbl -0x35(%ebp),%eax
    1708:	8d 4c 0a 01          	lea    0x1(%edx,%ecx,1),%ecx
    170c:	eb 0a                	jmp    1718 <_vsnprintf+0x438>
    170e:	66 90                	xchg   %ax,%ax
    1710:	39 d1                	cmp    %edx,%ecx
    1712:	0f 84 60 02 00 00    	je     1978 <_vsnprintf+0x698>
    1718:	83 c2 01             	add    $0x1,%edx
    171b:	80 3a 00             	cmpb   $0x0,(%edx)
    171e:	75 f0                	jne    1710 <_vsnprintf+0x430>
    1720:	88 45 cb             	mov    %al,-0x35(%ebp)
    1723:	8b 45 cc             	mov    -0x34(%ebp),%eax
    1726:	29 c2                	sub    %eax,%edx
    1728:	8b 4d d8             	mov    -0x28(%ebp),%ecx
    172b:	89 d8                	mov    %ebx,%eax
    172d:	39 ca                	cmp    %ecx,%edx
    172f:	0f 46 ca             	cmovbe %edx,%ecx
    1732:	25 00 04 00 00       	and    $0x400,%eax
    1737:	89 45 d0             	mov    %eax,-0x30(%ebp)
    173a:	0f 45 d1             	cmovne %ecx,%edx
    173d:	83 e3 02             	and    $0x2,%ebx
    1740:	89 5d c0             	mov    %ebx,-0x40(%ebp)
    1743:	0f 84 0f 03 00 00    	je     1a58 <_vsnprintf+0x778>
    1749:	80 7d c4 00          	cmpb   $0x0,-0x3c(%ebp)
    174d:	0f 84 c7 02 00 00    	je     1a1a <_vsnprintf+0x73a>
    1753:	8b 45 cc             	mov    -0x34(%ebp),%eax
    1756:	89 75 08             	mov    %esi,0x8(%ebp)
    1759:	89 55 c4             	mov    %edx,-0x3c(%ebp)
    175c:	8b 75 d8             	mov    -0x28(%ebp),%esi
    175f:	29 f8                	sub    %edi,%eax
    1761:	89 45 cc             	mov    %eax,-0x34(%ebp)
    1764:	0f be 45 cb          	movsbl -0x35(%ebp),%eax
    1768:	eb 08                	jmp    1772 <_vsnprintf+0x492>
    176a:	8d b6 00 00 00 00    	lea    0x0(%esi),%esi
    1770:	89 df                	mov    %ebx,%edi
    1772:	8b 55 d0             	mov    -0x30(%ebp),%edx
    1775:	85 d2                	test   %edx,%edx
    1777:	74 0d                	je     1786 <_vsnprintf+0x4a6>
    1779:	8d 4e ff             	lea    -0x1(%esi),%ecx
    177c:	85 f6                	test   %esi,%esi
    177e:	0f 84 25 02 00 00    	je     19a9 <_vsnprintf+0x6c9>
    1784:	89 ce                	mov    %ecx,%esi
    1786:	ff 75 dc             	pushl  -0x24(%ebp)
    1789:	8d 5f 01             	lea    0x1(%edi),%ebx
    178c:	57                   	push   %edi
    178d:	ff 75 e0             	pushl  -0x20(%ebp)
    1790:	50                   	push   %eax
    1791:	8b 45 e4             	mov    -0x1c(%ebp),%eax
    1794:	ff d0                	call   *%eax
    1796:	8b 45 cc             	mov    -0x34(%ebp),%eax
    1799:	83 c4 10             	add    $0x10,%esp
    179c:	0f be 44 07 01       	movsbl 0x1(%edi,%eax,1),%eax
    17a1:	84 c0                	test   %al,%al
    17a3:	75 cb                	jne    1770 <_vsnprintf+0x490>
    17a5:	8b 55 c4             	mov    -0x3c(%ebp),%edx
    17a8:	8b 75 08             	mov    0x8(%ebp),%esi
    17ab:	8b 45 c0             	mov    -0x40(%ebp),%eax
    17ae:	85 c0                	test   %eax,%eax
    17b0:	0f 85 62 02 00 00    	jne    1a18 <_vsnprintf+0x738>
    17b6:	8b 45 bc             	mov    -0x44(%ebp),%eax
    17b9:	89 df                	mov    %ebx,%edi
    17bb:	89 45 0c             	mov    %eax,0xc(%ebp)
    17be:	e9 62 fb ff ff       	jmp    1325 <_vsnprintf+0x45>
    17c3:	8d 74 26 00          	lea    0x0(%esi,%eiz,1),%esi
    17c7:	90                   	nop
    17c8:	8b 4d d0             	mov    -0x30(%ebp),%ecx
    17cb:	31 d2                	xor    %edx,%edx
    17cd:	89 de                	mov    %ebx,%esi
    17cf:	90                   	nop
    17d0:	83 c1 01             	add    $0x1,%ecx
    17d3:	8d 14 92             	lea    (%edx,%edx,4),%edx
    17d6:	8d 54 50 d0          	lea    -0x30(%eax,%edx,2),%edx
    17da:	0f be 01             	movsbl (%ecx),%eax
    17dd:	8d 58 d0             	lea    -0x30(%eax),%ebx
    17e0:	80 fb 09             	cmp    $0x9,%bl
    17e3:	76 eb                	jbe    17d0 <_vsnprintf+0x4f0>
    17e5:	89 55 d8             	mov    %edx,-0x28(%ebp)
    17e8:	89 f3                	mov    %esi,%ebx
    17ea:	8d 51 01             	lea    0x1(%ecx),%edx
    17ed:	89 ce                	mov    %ecx,%esi
    17ef:	e9 96 fb ff ff       	jmp    138a <_vsnprintf+0xaa>
    17f4:	8b 45 0c             	mov    0xc(%ebp),%eax
    17f7:	31 d2                	xor    %edx,%edx
    17f9:	8b 00                	mov    (%eax),%eax
    17fb:	85 c0                	test   %eax,%eax
    17fd:	0f 49 d0             	cmovns %eax,%edx
    1800:	0f be 46 02          	movsbl 0x2(%esi),%eax
    1804:	83 c6 02             	add    $0x2,%esi
    1807:	89 55 d8             	mov    %edx,-0x28(%ebp)
    180a:	8b 55 0c             	mov    0xc(%ebp),%edx
    180d:	83 c2 04             	add    $0x4,%edx
    1810:	89 55 0c             	mov    %edx,0xc(%ebp)
    1813:	8d 56 01             	lea    0x1(%esi),%edx
    1816:	e9 6f fb ff ff       	jmp    138a <_vsnprintf+0xaa>
    181b:	80 7d c4 00          	cmpb   $0x0,-0x3c(%ebp)
    181f:	0f 84 03 ff ff ff    	je     1728 <_vsnprintf+0x448>
    1825:	8b 45 d8             	mov    -0x28(%ebp),%eax
    1828:	8d 48 ff             	lea    -0x1(%eax),%ecx
    182b:	e9 d1 fe ff ff       	jmp    1701 <_vsnprintf+0x421>
    1830:	89 c2                	mov    %eax,%edx
    1832:	83 e2 df             	and    $0xffffffdf,%edx
    1835:	80 fa 58             	cmp    $0x58,%dl
    1838:	0f 84 49 01 00 00    	je     1987 <_vsnprintf+0x6a7>
    183e:	3c 62                	cmp    $0x62,%al
    1840:	0f 84 74 02 00 00    	je     1aba <_vsnprintf+0x7da>
    1846:	83 e3 ef             	and    $0xffffffef,%ebx
    1849:	b9 0a 00 00 00       	mov    $0xa,%ecx
    184e:	3c 69                	cmp    $0x69,%al
    1850:	74 0e                	je     1860 <_vsnprintf+0x580>
    1852:	3c 64                	cmp    $0x64,%al
    1854:	0f 85 a9 00 00 00    	jne    1903 <_vsnprintf+0x623>
    185a:	8d b6 00 00 00 00    	lea    0x0(%esi),%esi
    1860:	89 da                	mov    %ebx,%edx
    1862:	83 e2 fe             	and    $0xfffffffe,%edx
    1865:	f6 c7 04             	test   $0x4,%bh
    1868:	0f 45 da             	cmovne %edx,%ebx
    186b:	89 da                	mov    %ebx,%edx
    186d:	81 e2 00 02 00 00    	and    $0x200,%edx
    1873:	3c 69                	cmp    $0x69,%al
    1875:	0f 84 90 00 00 00    	je     190b <_vsnprintf+0x62b>
    187b:	3c 64                	cmp    $0x64,%al
    187d:	0f 84 88 00 00 00    	je     190b <_vsnprintf+0x62b>
    1883:	8b 45 0c             	mov    0xc(%ebp),%eax
    1886:	85 d2                	test   %edx,%edx
    1888:	0f 85 69 02 00 00    	jne    1af7 <_vsnprintf+0x817>
    188e:	83 c0 04             	add    $0x4,%eax
    1891:	89 45 d0             	mov    %eax,-0x30(%ebp)
    1894:	f6 c7 01             	test   $0x1,%bh
    1897:	0f 85 e3 02 00 00    	jne    1b80 <_vsnprintf+0x8a0>
    189d:	8b 45 0c             	mov    0xc(%ebp),%eax
    18a0:	f6 c3 40             	test   $0x40,%bl
    18a3:	0f 85 23 02 00 00    	jne    1acc <_vsnprintf+0x7ec>
    18a9:	f6 c3 80             	test   $0x80,%bl
    18ac:	0f 84 e5 02 00 00    	je     1b97 <_vsnprintf+0x8b7>
    18b2:	0f b7 00             	movzwl (%eax),%eax
    18b5:	83 ec 04             	sub    $0x4,%esp
    18b8:	53                   	push   %ebx
    18b9:	ff 75 d4             	pushl  -0x2c(%ebp)
    18bc:	ff 75 d8             	pushl  -0x28(%ebp)
    18bf:	51                   	push   %ecx
    18c0:	6a 00                	push   $0x0
    18c2:	50                   	push   %eax
    18c3:	8b 55 e0             	mov    -0x20(%ebp),%edx
    18c6:	8b 45 e4             	mov    -0x1c(%ebp),%eax
    18c9:	ff 75 dc             	pushl  -0x24(%ebp)
    18cc:	89 f9                	mov    %edi,%ecx
    18ce:	e8 bd ef ff ff       	call   890 <_ntoa_long>
    18d3:	83 c4 20             	add    $0x20,%esp
    18d6:	89 c7                	mov    %eax,%edi
    18d8:	8b 45 d0             	mov    -0x30(%ebp),%eax
    18db:	89 45 0c             	mov    %eax,0xc(%ebp)
    18de:	e9 42 fa ff ff       	jmp    1325 <_vsnprintf+0x45>
    18e3:	8d 74 26 00          	lea    0x0(%esi,%eiz,1),%esi
    18e7:	90                   	nop
    18e8:	89 c2                	mov    %eax,%edx
    18ea:	83 e2 df             	and    $0xffffffdf,%edx
    18ed:	80 fa 58             	cmp    $0x58,%dl
    18f0:	0f 84 a9 00 00 00    	je     199f <_vsnprintf+0x6bf>
    18f6:	b9 08 00 00 00       	mov    $0x8,%ecx
    18fb:	3c 6f                	cmp    $0x6f,%al
    18fd:	0f 85 43 ff ff ff    	jne    1846 <_vsnprintf+0x566>
    1903:	83 e3 f3             	and    $0xfffffff3,%ebx
    1906:	e9 55 ff ff ff       	jmp    1860 <_vsnprintf+0x580>
    190b:	8b 45 0c             	mov    0xc(%ebp),%eax
    190e:	85 d2                	test   %edx,%edx
    1910:	0f 85 1f 02 00 00    	jne    1b35 <_vsnprintf+0x855>
    1916:	83 c0 04             	add    $0x4,%eax
    1919:	89 45 d0             	mov    %eax,-0x30(%ebp)
    191c:	8b 45 0c             	mov    0xc(%ebp),%eax
    191f:	f6 c7 01             	test   $0x1,%bh
    1922:	0f 85 51 02 00 00    	jne    1b79 <_vsnprintf+0x899>
    1928:	f6 c3 40             	test   $0x40,%bl
    192b:	0f 85 93 01 00 00    	jne    1ac4 <_vsnprintf+0x7e4>
    1931:	f6 c3 80             	test   $0x80,%bl
    1934:	0f 84 3f 02 00 00    	je     1b79 <_vsnprintf+0x899>
    193a:	0f bf 00             	movswl (%eax),%eax
    193d:	89 c2                	mov    %eax,%edx
    193f:	83 ec 04             	sub    $0x4,%esp
    1942:	c1 ea 1f             	shr    $0x1f,%edx
    1945:	53                   	push   %ebx
    1946:	ff 75 d4             	pushl  -0x2c(%ebp)
    1949:	ff 75 d8             	pushl  -0x28(%ebp)
    194c:	51                   	push   %ecx
    194d:	52                   	push   %edx
    194e:	89 c2                	mov    %eax,%edx
    1950:	f7 da                	neg    %edx
    1952:	0f 49 c2             	cmovns %edx,%eax
    1955:	e9 68 ff ff ff       	jmp    18c2 <_vsnprintf+0x5e2>
    195a:	0f be 46 02          	movsbl 0x2(%esi),%eax
    195e:	80 cb c0             	or     $0xc0,%bl
    1961:	8d 56 03             	lea    0x3(%esi),%edx
    1964:	e9 91 fa ff ff       	jmp    13fa <_vsnprintf+0x11a>
    1969:	0f be 46 02          	movsbl 0x2(%esi),%eax
    196d:	80 cf 03             	or     $0x3,%bh
    1970:	8d 56 03             	lea    0x3(%esi),%edx
    1973:	e9 82 fa ff ff       	jmp    13fa <_vsnprintf+0x11a>
    1978:	88 45 cb             	mov    %al,-0x35(%ebp)
    197b:	8b 45 cc             	mov    -0x34(%ebp),%eax
    197e:	89 ca                	mov    %ecx,%edx
    1980:	29 c2                	sub    %eax,%edx
    1982:	e9 a1 fd ff ff       	jmp    1728 <_vsnprintf+0x448>
    1987:	3c 58                	cmp    $0x58,%al
    1989:	75 14                	jne    199f <_vsnprintf+0x6bf>
    198b:	83 cb 20             	or     $0x20,%ebx
    198e:	b9 10 00 00 00       	mov    $0x10,%ecx
    1993:	e9 6b ff ff ff       	jmp    1903 <_vsnprintf+0x623>
    1998:	31 db                	xor    %ebx,%ebx
    199a:	e9 fb fa ff ff       	jmp    149a <_vsnprintf+0x1ba>
    199f:	b9 10 00 00 00       	mov    $0x10,%ecx
    19a4:	e9 5a ff ff ff       	jmp    1903 <_vsnprintf+0x623>
    19a9:	8b 55 c4             	mov    -0x3c(%ebp),%edx
    19ac:	8b 75 08             	mov    0x8(%ebp),%esi
    19af:	89 fb                	mov    %edi,%ebx
    19b1:	e9 f5 fd ff ff       	jmp    17ab <_vsnprintf+0x4cb>
    19b6:	8b 45 d4             	mov    -0x2c(%ebp),%eax
    19b9:	83 f8 01             	cmp    $0x1,%eax
    19bc:	0f 86 12 01 00 00    	jbe    1ad4 <_vsnprintf+0x7f4>
    19c2:	8d 54 38 ff          	lea    -0x1(%eax,%edi,1),%edx
    19c6:	89 7d d0             	mov    %edi,-0x30(%ebp)
    19c9:	89 fb                	mov    %edi,%ebx
    19cb:	8b 7d e0             	mov    -0x20(%ebp),%edi
    19ce:	89 75 08             	mov    %esi,0x8(%ebp)
    19d1:	89 d6                	mov    %edx,%esi
    19d3:	8d 74 26 00          	lea    0x0(%esi,%eiz,1),%esi
    19d7:	90                   	nop
    19d8:	89 da                	mov    %ebx,%edx
    19da:	ff 75 dc             	pushl  -0x24(%ebp)
    19dd:	83 c3 01             	add    $0x1,%ebx
    19e0:	8b 45 e4             	mov    -0x1c(%ebp),%eax
    19e3:	52                   	push   %edx
    19e4:	57                   	push   %edi
    19e5:	6a 20                	push   $0x20
    19e7:	ff d0                	call   *%eax
    19e9:	83 c4 10             	add    $0x10,%esp
    19ec:	39 de                	cmp    %ebx,%esi
    19ee:	75 e8                	jne    19d8 <_vsnprintf+0x6f8>
    19f0:	8b 45 d4             	mov    -0x2c(%ebp),%eax
    19f3:	8b 7d d0             	mov    -0x30(%ebp),%edi
    19f6:	89 f2                	mov    %esi,%edx
    19f8:	8b 75 08             	mov    0x8(%ebp),%esi
    19fb:	ff 75 dc             	pushl  -0x24(%ebp)
    19fe:	01 c7                	add    %eax,%edi
    1a00:	52                   	push   %edx
    1a01:	ff 75 e0             	pushl  -0x20(%ebp)
    1a04:	8b 45 0c             	mov    0xc(%ebp),%eax
    1a07:	0f be 00             	movsbl (%eax),%eax
    1a0a:	50                   	push   %eax
    1a0b:	8b 45 e4             	mov    -0x1c(%ebp),%eax
    1a0e:	ff d0                	call   *%eax
    1a10:	83 c4 10             	add    $0x10,%esp
    1a13:	e9 95 fc ff ff       	jmp    16ad <_vsnprintf+0x3cd>
    1a18:	89 df                	mov    %ebx,%edi
    1a1a:	8b 45 d4             	mov    -0x2c(%ebp),%eax
    1a1d:	39 c2                	cmp    %eax,%edx
    1a1f:	0f 83 8e 00 00 00    	jae    1ab3 <_vsnprintf+0x7d3>
    1a25:	01 f8                	add    %edi,%eax
    1a27:	89 75 08             	mov    %esi,0x8(%ebp)
    1a2a:	89 fe                	mov    %edi,%esi
    1a2c:	8b 7d dc             	mov    -0x24(%ebp),%edi
    1a2f:	29 d0                	sub    %edx,%eax
    1a31:	89 c3                	mov    %eax,%ebx
    1a33:	8d 74 26 00          	lea    0x0(%esi,%eiz,1),%esi
    1a37:	90                   	nop
    1a38:	89 f2                	mov    %esi,%edx
    1a3a:	57                   	push   %edi
    1a3b:	83 c6 01             	add    $0x1,%esi
    1a3e:	8b 45 e4             	mov    -0x1c(%ebp),%eax
    1a41:	52                   	push   %edx
    1a42:	ff 75 e0             	pushl  -0x20(%ebp)
    1a45:	6a 20                	push   $0x20
    1a47:	ff d0                	call   *%eax
    1a49:	83 c4 10             	add    $0x10,%esp
    1a4c:	39 f3                	cmp    %esi,%ebx
    1a4e:	75 e8                	jne    1a38 <_vsnprintf+0x758>
    1a50:	8b 75 08             	mov    0x8(%ebp),%esi
    1a53:	e9 5e fd ff ff       	jmp    17b6 <_vsnprintf+0x4d6>
    1a58:	8b 45 d4             	mov    -0x2c(%ebp),%eax
    1a5b:	39 c2                	cmp    %eax,%edx
    1a5d:	0f 83 3b 01 00 00    	jae    1b9e <_vsnprintf+0x8be>
    1a63:	01 f8                	add    %edi,%eax
    1a65:	89 75 08             	mov    %esi,0x8(%ebp)
    1a68:	89 fe                	mov    %edi,%esi
    1a6a:	8b 7d dc             	mov    -0x24(%ebp),%edi
    1a6d:	29 d0                	sub    %edx,%eax
    1a6f:	89 c3                	mov    %eax,%ebx
    1a71:	8d b4 26 00 00 00 00 	lea    0x0(%esi,%eiz,1),%esi
    1a78:	89 f2                	mov    %esi,%edx
    1a7a:	57                   	push   %edi
    1a7b:	83 c6 01             	add    $0x1,%esi
    1a7e:	8b 45 e4             	mov    -0x1c(%ebp),%eax
    1a81:	52                   	push   %edx
    1a82:	ff 75 e0             	pushl  -0x20(%ebp)
    1a85:	6a 20                	push   $0x20
    1a87:	ff d0                	call   *%eax
    1a89:	83 c4 10             	add    $0x10,%esp
    1a8c:	39 f3                	cmp    %esi,%ebx
    1a8e:	75 e8                	jne    1a78 <_vsnprintf+0x798>
    1a90:	8b 45 d4             	mov    -0x2c(%ebp),%eax
    1a93:	89 f7                	mov    %esi,%edi
    1a95:	8b 75 08             	mov    0x8(%ebp),%esi
    1a98:	8d 50 01             	lea    0x1(%eax),%edx
    1a9b:	8b 45 cc             	mov    -0x34(%ebp),%eax
    1a9e:	0f b6 00             	movzbl (%eax),%eax
    1aa1:	88 45 c4             	mov    %al,-0x3c(%ebp)
    1aa4:	0f b6 45 c4          	movzbl -0x3c(%ebp),%eax
    1aa8:	88 45 cb             	mov    %al,-0x35(%ebp)
    1aab:	84 c0                	test   %al,%al
    1aad:	0f 85 a0 fc ff ff    	jne    1753 <_vsnprintf+0x473>
    1ab3:	89 fb                	mov    %edi,%ebx
    1ab5:	e9 fc fc ff ff       	jmp    17b6 <_vsnprintf+0x4d6>
    1aba:	b9 02 00 00 00       	mov    $0x2,%ecx
    1abf:	e9 3f fe ff ff       	jmp    1903 <_vsnprintf+0x623>
    1ac4:	0f be 00             	movsbl (%eax),%eax
    1ac7:	e9 71 fe ff ff       	jmp    193d <_vsnprintf+0x65d>
    1acc:	0f b6 00             	movzbl (%eax),%eax
    1acf:	e9 e1 fd ff ff       	jmp    18b5 <_vsnprintf+0x5d5>
    1ad4:	89 55 d4             	mov    %edx,-0x2c(%ebp)
    1ad7:	ff 75 dc             	pushl  -0x24(%ebp)
    1ada:	57                   	push   %edi
    1adb:	ff 75 e0             	pushl  -0x20(%ebp)
    1ade:	8b 45 0c             	mov    0xc(%ebp),%eax
    1ae1:	0f be 00             	movsbl (%eax),%eax
    1ae4:	50                   	push   %eax
    1ae5:	8b 45 e4             	mov    -0x1c(%ebp),%eax
    1ae8:	ff d0                	call   *%eax
    1aea:	8b 55 d4             	mov    -0x2c(%ebp),%edx
    1aed:	83 c4 10             	add    $0x10,%esp
    1af0:	89 d7                	mov    %edx,%edi
    1af2:	e9 b6 fb ff ff       	jmp    16ad <_vsnprintf+0x3cd>
    1af7:	83 ec 0c             	sub    $0xc,%esp
    1afa:	83 c0 08             	add    $0x8,%eax
    1afd:	89 45 d0             	mov    %eax,-0x30(%ebp)
    1b00:	53                   	push   %ebx
    1b01:	31 db                	xor    %ebx,%ebx
    1b03:	ff 75 d4             	pushl  -0x2c(%ebp)
    1b06:	ff 75 d8             	pushl  -0x28(%ebp)
    1b09:	53                   	push   %ebx
    1b0a:	8b 5d 0c             	mov    0xc(%ebp),%ebx
    1b0d:	51                   	push   %ecx
    1b0e:	6a 00                	push   $0x0
    1b10:	ff 73 04             	pushl  0x4(%ebx)
    1b13:	ff 33                	pushl  (%ebx)
    1b15:	8b 55 e0             	mov    -0x20(%ebp),%edx
    1b18:	ff 75 dc             	pushl  -0x24(%ebp)
    1b1b:	89 f9                	mov    %edi,%ecx
    1b1d:	8b 45 e4             	mov    -0x1c(%ebp),%eax
    1b20:	e8 2b ee ff ff       	call   950 <_ntoa_long_long>
    1b25:	83 c4 30             	add    $0x30,%esp
    1b28:	89 c7                	mov    %eax,%edi
    1b2a:	8b 45 d0             	mov    -0x30(%ebp),%eax
    1b2d:	89 45 0c             	mov    %eax,0xc(%ebp)
    1b30:	e9 f0 f7 ff ff       	jmp    1325 <_vsnprintf+0x45>
    1b35:	83 c0 08             	add    $0x8,%eax
    1b38:	8b 55 0c             	mov    0xc(%ebp),%edx
    1b3b:	83 ec 0c             	sub    $0xc,%esp
    1b3e:	89 45 d0             	mov    %eax,-0x30(%ebp)
    1b41:	8b 45 0c             	mov    0xc(%ebp),%eax
    1b44:	8b 12                	mov    (%edx),%edx
    1b46:	8b 40 04             	mov    0x4(%eax),%eax
    1b49:	53                   	push   %ebx
    1b4a:	31 db                	xor    %ebx,%ebx
    1b4c:	ff 75 d4             	pushl  -0x2c(%ebp)
    1b4f:	ff 75 d8             	pushl  -0x28(%ebp)
    1b52:	53                   	push   %ebx
    1b53:	89 c3                	mov    %eax,%ebx
    1b55:	c1 e8 1f             	shr    $0x1f,%eax
    1b58:	51                   	push   %ecx
    1b59:	89 d1                	mov    %edx,%ecx
    1b5b:	f7 da                	neg    %edx
    1b5d:	50                   	push   %eax
    1b5e:	89 d8                	mov    %ebx,%eax
    1b60:	83 d0 00             	adc    $0x0,%eax
    1b63:	f7 d8                	neg    %eax
    1b65:	0f 48 d1             	cmovs  %ecx,%edx
    1b68:	0f 48 c3             	cmovs  %ebx,%eax
    1b6b:	89 55 b0             	mov    %edx,-0x50(%ebp)
    1b6e:	89 45 b4             	mov    %eax,-0x4c(%ebp)
    1b71:	ff 75 b4             	pushl  -0x4c(%ebp)
    1b74:	ff 75 b0             	pushl  -0x50(%ebp)
    1b77:	eb 9c                	jmp    1b15 <_vsnprintf+0x835>
    1b79:	8b 00                	mov    (%eax),%eax
    1b7b:	e9 bd fd ff ff       	jmp    193d <_vsnprintf+0x65d>
    1b80:	8b 45 0c             	mov    0xc(%ebp),%eax
    1b83:	83 ec 04             	sub    $0x4,%esp
    1b86:	53                   	push   %ebx
    1b87:	ff 75 d4             	pushl  -0x2c(%ebp)
    1b8a:	ff 75 d8             	pushl  -0x28(%ebp)
    1b8d:	51                   	push   %ecx
    1b8e:	6a 00                	push   $0x0
    1b90:	ff 30                	pushl  (%eax)
    1b92:	e9 2c fd ff ff       	jmp    18c3 <_vsnprintf+0x5e3>
    1b97:	8b 00                	mov    (%eax),%eax
    1b99:	e9 17 fd ff ff       	jmp    18b5 <_vsnprintf+0x5d5>
    1b9e:	83 c2 01             	add    $0x1,%edx
    1ba1:	e9 fe fe ff ff       	jmp    1aa4 <_vsnprintf+0x7c4>
    1ba6:	8d b4 26 00 00 00 00 	lea    0x0(%esi,%eiz,1),%esi
    1bad:	8d 76 00             	lea    0x0(%esi),%esi

00001bb0 <printf_>:
    1bb0:	55                   	push   %ebp
    1bb1:	b9 ff ff ff ff       	mov    $0xffffffff,%ecx
    1bb6:	89 e5                	mov    %esp,%ebp
    1bb8:	83 ec 20             	sub    $0x20,%esp
    1bbb:	8d 45 0c             	lea    0xc(%ebp),%eax
    1bbe:	8d 55 f7             	lea    -0x9(%ebp),%edx
    1bc1:	50                   	push   %eax
    1bc2:	b8 90 12 00 00       	mov    $0x1290,%eax
			1bc3: R_386_32	.text
    1bc7:	ff 75 08             	pushl  0x8(%ebp)
    1bca:	e8 11 f7 ff ff       	call   12e0 <_vsnprintf>
    1bcf:	c9                   	leave  
    1bd0:	c3                   	ret    
    1bd1:	8d b4 26 00 00 00 00 	lea    0x0(%esi,%eiz,1),%esi
    1bd8:	8d b4 26 00 00 00 00 	lea    0x0(%esi,%eiz,1),%esi
    1bdf:	90                   	nop

00001be0 <sprintf_>:
    1be0:	55                   	push   %ebp
    1be1:	b9 ff ff ff ff       	mov    $0xffffffff,%ecx
    1be6:	89 e5                	mov    %esp,%ebp
    1be8:	83 ec 10             	sub    $0x10,%esp
    1beb:	8d 45 10             	lea    0x10(%ebp),%eax
    1bee:	50                   	push   %eax
    1bef:	b8 b0 04 00 00       	mov    $0x4b0,%eax
			1bf0: R_386_32	.text
    1bf4:	ff 75 0c             	pushl  0xc(%ebp)
    1bf7:	8b 55 08             	mov    0x8(%ebp),%edx
    1bfa:	e8 e1 f6 ff ff       	call   12e0 <_vsnprintf>
    1bff:	c9                   	leave  
    1c00:	c3                   	ret    
    1c01:	8d b4 26 00 00 00 00 	lea    0x0(%esi,%eiz,1),%esi
    1c08:	8d b4 26 00 00 00 00 	lea    0x0(%esi,%eiz,1),%esi
    1c0f:	90                   	nop

00001c10 <snprintf_>:
    1c10:	55                   	push   %ebp
    1c11:	89 e5                	mov    %esp,%ebp
    1c13:	83 ec 10             	sub    $0x10,%esp
    1c16:	8d 45 14             	lea    0x14(%ebp),%eax
    1c19:	8b 4d 0c             	mov    0xc(%ebp),%ecx
    1c1c:	50                   	push   %eax
    1c1d:	b8 b0 04 00 00       	mov    $0x4b0,%eax
			1c1e: R_386_32	.text
    1c22:	ff 75 10             	pushl  0x10(%ebp)
    1c25:	8b 55 08             	mov    0x8(%ebp),%edx
    1c28:	e8 b3 f6 ff ff       	call   12e0 <_vsnprintf>
    1c2d:	c9                   	leave  
    1c2e:	c3                   	ret    
    1c2f:	90                   	nop

00001c30 <vprintf_>:
    1c30:	55                   	push   %ebp
    1c31:	b9 ff ff ff ff       	mov    $0xffffffff,%ecx
    1c36:	b8 90 12 00 00       	mov    $0x1290,%eax
			1c37: R_386_32	.text
    1c3b:	89 e5                	mov    %esp,%ebp
    1c3d:	83 ec 20             	sub    $0x20,%esp
    1c40:	ff 75 0c             	pushl  0xc(%ebp)
    1c43:	8d 55 f7             	lea    -0x9(%ebp),%edx
    1c46:	ff 75 08             	pushl  0x8(%ebp)
    1c49:	e8 92 f6 ff ff       	call   12e0 <_vsnprintf>
    1c4e:	c9                   	leave  
    1c4f:	c3                   	ret    

00001c50 <vsnprintf_>:
    1c50:	55                   	push   %ebp
    1c51:	89 e5                	mov    %esp,%ebp
    1c53:	8b 45 14             	mov    0x14(%ebp),%eax
    1c56:	8b 4d 0c             	mov    0xc(%ebp),%ecx
    1c59:	8b 55 08             	mov    0x8(%ebp),%edx
    1c5c:	89 45 0c             	mov    %eax,0xc(%ebp)
    1c5f:	8b 45 10             	mov    0x10(%ebp),%eax
    1c62:	89 45 08             	mov    %eax,0x8(%ebp)
    1c65:	b8 b0 04 00 00       	mov    $0x4b0,%eax
			1c66: R_386_32	.text
    1c6a:	5d                   	pop    %ebp
    1c6b:	e9 70 f6 ff ff       	jmp    12e0 <_vsnprintf>

00001c70 <fctprintf>:
    1c70:	55                   	push   %ebp
    1c71:	b9 ff ff ff ff       	mov    $0xffffffff,%ecx
    1c76:	89 e5                	mov    %esp,%ebp
    1c78:	83 ec 20             	sub    $0x20,%esp
    1c7b:	8b 55 08             	mov    0x8(%ebp),%edx
    1c7e:	8d 45 14             	lea    0x14(%ebp),%eax
    1c81:	89 55 f0             	mov    %edx,-0x10(%ebp)
    1c84:	8b 55 0c             	mov    0xc(%ebp),%edx
    1c87:	89 55 f4             	mov    %edx,-0xc(%ebp)
    1c8a:	8d 55 f0             	lea    -0x10(%ebp),%edx
    1c8d:	50                   	push   %eax
    1c8e:	b8 b0 12 00 00       	mov    $0x12b0,%eax
			1c8f: R_386_32	.text
    1c93:	ff 75 10             	pushl  0x10(%ebp)
    1c96:	e8 45 f6 ff ff       	call   12e0 <_vsnprintf>
    1c9b:	c9                   	leave  
    1c9c:	c3                   	ret    
    1c9d:	8d 76 00             	lea    0x0(%esi),%esi

00001ca0 <_putchar>:
    1ca0:	55                   	push   %ebp
    1ca1:	89 e5                	mov    %esp,%ebp
    1ca3:	0f be 45 08          	movsbl 0x8(%ebp),%eax
    1ca7:	89 45 08             	mov    %eax,0x8(%ebp)
    1caa:	5d                   	pop    %ebp
    1cab:	e9 fc ff ff ff       	jmp    1cac <_putchar+0xc>
			1cac: R_386_PC32	term_put_char

00001cb0 <malloc>:
    1cb0:	e9 fc ff ff ff       	jmp    1cb1 <malloc+0x1>
			1cb1: R_386_PC32	kmalloc
    1cb5:	8d b4 26 00 00 00 00 	lea    0x0(%esi,%eiz,1),%esi
    1cbc:	8d 74 26 00          	lea    0x0(%esi,%eiz,1),%esi

00001cc0 <free>:
    1cc0:	e9 fc ff ff ff       	jmp    1cc1 <free+0x1>
			1cc1: R_386_PC32	kfree
    1cc5:	66 90                	xchg   %ax,%ax
    1cc7:	66 90                	xchg   %ax,%ax
    1cc9:	66 90                	xchg   %ax,%ax
    1ccb:	66 90                	xchg   %ax,%ax
    1ccd:	66 90                	xchg   %ax,%ax
    1ccf:	90                   	nop

00001cd0 <asprintf>:
    1cd0:	55                   	push   %ebp
    1cd1:	89 e5                	mov    %esp,%ebp
    1cd3:	83 ec 0c             	sub    $0xc,%esp
    1cd6:	8d 45 10             	lea    0x10(%ebp),%eax
    1cd9:	50                   	push   %eax
    1cda:	ff 75 0c             	pushl  0xc(%ebp)
    1cdd:	ff 75 08             	pushl  0x8(%ebp)
    1ce0:	e8 fc ff ff ff       	call   1ce1 <asprintf+0x11>
			1ce1: R_386_PC32	vasprintf
    1ce5:	c9                   	leave  
    1ce6:	c3                   	ret    
    1ce7:	66 90                	xchg   %ax,%ax
    1ce9:	66 90                	xchg   %ax,%ax
    1ceb:	66 90                	xchg   %ax,%ax
    1ced:	66 90                	xchg   %ax,%ax
    1cef:	90                   	nop

00001cf0 <putchar>:
    1cf0:	55                   	push   %ebp
    1cf1:	89 e5                	mov    %esp,%ebp
    1cf3:	53                   	push   %ebx
    1cf4:	83 ec 10             	sub    $0x10,%esp
    1cf7:	8b 5d 08             	mov    0x8(%ebp),%ebx
    1cfa:	0f be c3             	movsbl %bl,%eax
    1cfd:	50                   	push   %eax
    1cfe:	e8 fc ff ff ff       	call   1cff <putchar+0xf>
			1cff: R_386_PC32	_putchar
    1d03:	89 d8                	mov    %ebx,%eax
    1d05:	8b 5d fc             	mov    -0x4(%ebp),%ebx
    1d08:	c9                   	leave  
    1d09:	c3                   	ret    
    1d0a:	66 90                	xchg   %ax,%ax
    1d0c:	66 90                	xchg   %ax,%ax
    1d0e:	66 90                	xchg   %ax,%ax

00001d10 <puts>:
    1d10:	55                   	push   %ebp
    1d11:	89 e5                	mov    %esp,%ebp
    1d13:	57                   	push   %edi
    1d14:	56                   	push   %esi
    1d15:	53                   	push   %ebx
    1d16:	83 ec 0c             	sub    $0xc,%esp
    1d19:	8b 5d 08             	mov    0x8(%ebp),%ebx
    1d1c:	0f be 03             	movsbl (%ebx),%eax
    1d1f:	84 c0                	test   %al,%al
    1d21:	74 3d                	je     1d60 <puts+0x50>
    1d23:	31 f6                	xor    %esi,%esi
    1d25:	8d 76 00             	lea    0x0(%esi),%esi
    1d28:	83 ec 0c             	sub    $0xc,%esp
    1d2b:	89 f7                	mov    %esi,%edi
    1d2d:	83 c6 01             	add    $0x1,%esi
    1d30:	50                   	push   %eax
    1d31:	e8 fc ff ff ff       	call   1d32 <puts+0x22>
			1d32: R_386_PC32	putchar
    1d36:	0f be 04 33          	movsbl (%ebx,%esi,1),%eax
    1d3a:	83 c4 10             	add    $0x10,%esp
    1d3d:	84 c0                	test   %al,%al
    1d3f:	75 e7                	jne    1d28 <puts+0x18>
    1d41:	83 ec 0c             	sub    $0xc,%esp
    1d44:	6a 0a                	push   $0xa
    1d46:	e8 fc ff ff ff       	call   1d47 <puts+0x37>
			1d47: R_386_PC32	putchar
    1d4b:	83 c4 10             	add    $0x10,%esp
    1d4e:	8d 65 f4             	lea    -0xc(%ebp),%esp
    1d51:	8d 47 02             	lea    0x2(%edi),%eax
    1d54:	5b                   	pop    %ebx
    1d55:	5e                   	pop    %esi
    1d56:	5f                   	pop    %edi
    1d57:	5d                   	pop    %ebp
    1d58:	c3                   	ret    
    1d59:	8d b4 26 00 00 00 00 	lea    0x0(%esi,%eiz,1),%esi
    1d60:	8d 65 f4             	lea    -0xc(%ebp),%esp
    1d63:	b8 ff ff ff ff       	mov    $0xffffffff,%eax
    1d68:	5b                   	pop    %ebx
    1d69:	5e                   	pop    %esi
    1d6a:	5f                   	pop    %edi
    1d6b:	5d                   	pop    %ebp
    1d6c:	c3                   	ret    
    1d6d:	66 90                	xchg   %ax,%ax
    1d6f:	90                   	nop

00001d70 <vasprintf>:
    1d70:	55                   	push   %ebp
    1d71:	89 e5                	mov    %esp,%ebp
    1d73:	57                   	push   %edi
    1d74:	56                   	push   %esi
    1d75:	53                   	push   %ebx
    1d76:	83 ec 0c             	sub    $0xc,%esp
    1d79:	8b 5d 0c             	mov    0xc(%ebp),%ebx
    1d7c:	8b 75 10             	mov    0x10(%ebp),%esi
    1d7f:	56                   	push   %esi
    1d80:	53                   	push   %ebx
    1d81:	6a 00                	push   $0x0
    1d83:	6a 00                	push   $0x0
    1d85:	e8 fc ff ff ff       	call   1d86 <vasprintf+0x16>
			1d86: R_386_PC32	vsnprintf_
    1d8a:	83 c4 10             	add    $0x10,%esp
    1d8d:	85 c0                	test   %eax,%eax
    1d8f:	78 2f                	js     1dc0 <vasprintf+0x50>
    1d91:	83 ec 0c             	sub    $0xc,%esp
    1d94:	8d 78 01             	lea    0x1(%eax),%edi
    1d97:	57                   	push   %edi
    1d98:	e8 fc ff ff ff       	call   1d99 <vasprintf+0x29>
			1d99: R_386_PC32	malloc
    1d9d:	8b 55 08             	mov    0x8(%ebp),%edx
    1da0:	83 c4 10             	add    $0x10,%esp
    1da3:	89 02                	mov    %eax,(%edx)
    1da5:	85 c0                	test   %eax,%eax
    1da7:	74 17                	je     1dc0 <vasprintf+0x50>
    1da9:	56                   	push   %esi
    1daa:	53                   	push   %ebx
    1dab:	57                   	push   %edi
    1dac:	50                   	push   %eax
    1dad:	e8 fc ff ff ff       	call   1dae <vasprintf+0x3e>
			1dae: R_386_PC32	vsnprintf_
    1db2:	83 c4 10             	add    $0x10,%esp
    1db5:	8d 65 f4             	lea    -0xc(%ebp),%esp
    1db8:	5b                   	pop    %ebx
    1db9:	5e                   	pop    %esi
    1dba:	5f                   	pop    %edi
    1dbb:	5d                   	pop    %ebp
    1dbc:	c3                   	ret    
    1dbd:	8d 76 00             	lea    0x0(%esi),%esi
    1dc0:	b8 ff ff ff ff       	mov    $0xffffffff,%eax
    1dc5:	eb ee                	jmp    1db5 <vasprintf+0x45>
    1dc7:	66 90                	xchg   %ax,%ax
    1dc9:	66 90                	xchg   %ax,%ax
    1dcb:	66 90                	xchg   %ax,%ax
    1dcd:	66 90                	xchg   %ax,%ax
    1dcf:	90                   	nop

00001dd0 <abs>:
    1dd0:	55                   	push   %ebp
    1dd1:	89 e5                	mov    %esp,%ebp
    1dd3:	8b 55 08             	mov    0x8(%ebp),%edx
    1dd6:	5d                   	pop    %ebp
    1dd7:	89 d0                	mov    %edx,%eax
    1dd9:	f7 d8                	neg    %eax
    1ddb:	0f 48 c2             	cmovs  %edx,%eax
    1dde:	c3                   	ret    
    1ddf:	90                   	nop

00001de0 <atoi>:
    1de0:	55                   	push   %ebp
    1de1:	89 e5                	mov    %esp,%ebp
    1de3:	57                   	push   %edi
    1de4:	31 ff                	xor    %edi,%edi
    1de6:	56                   	push   %esi
    1de7:	53                   	push   %ebx
    1de8:	83 ec 0c             	sub    $0xc,%esp
    1deb:	8b 5d 08             	mov    0x8(%ebp),%ebx
    1dee:	0f b6 03             	movzbl (%ebx),%eax
    1df1:	3c 2b                	cmp    $0x2b,%al
    1df3:	74 09                	je     1dfe <atoi+0x1e>
    1df5:	3c 2d                	cmp    $0x2d,%al
    1df7:	75 08                	jne    1e01 <atoi+0x21>
    1df9:	bf 01 00 00 00       	mov    $0x1,%edi
    1dfe:	83 c3 01             	add    $0x1,%ebx
    1e01:	31 f6                	xor    %esi,%esi
    1e03:	eb 10                	jmp    1e15 <atoi+0x35>
    1e05:	8d 76 00             	lea    0x0(%esi),%esi
    1e08:	0f be 03             	movsbl (%ebx),%eax
    1e0b:	8d 14 b6             	lea    (%esi,%esi,4),%edx
    1e0e:	83 c3 01             	add    $0x1,%ebx
    1e11:	8d 74 50 d0          	lea    -0x30(%eax,%edx,2),%esi
    1e15:	0f be 03             	movsbl (%ebx),%eax
    1e18:	83 ec 0c             	sub    $0xc,%esp
    1e1b:	50                   	push   %eax
    1e1c:	e8 fc ff ff ff       	call   1e1d <atoi+0x3d>
			1e1d: R_386_PC32	isdigit
    1e21:	83 c4 10             	add    $0x10,%esp
    1e24:	85 c0                	test   %eax,%eax
    1e26:	75 e0                	jne    1e08 <atoi+0x28>
    1e28:	89 f0                	mov    %esi,%eax
    1e2a:	89 f9                	mov    %edi,%ecx
    1e2c:	f7 d8                	neg    %eax
    1e2e:	84 c9                	test   %cl,%cl
    1e30:	0f 45 f0             	cmovne %eax,%esi
    1e33:	8d 65 f4             	lea    -0xc(%ebp),%esp
    1e36:	5b                   	pop    %ebx
    1e37:	89 f0                	mov    %esi,%eax
    1e39:	5e                   	pop    %esi
    1e3a:	5f                   	pop    %edi
    1e3b:	5d                   	pop    %ebp
    1e3c:	c3                   	ret    
    1e3d:	66 90                	xchg   %ax,%ax
    1e3f:	90                   	nop

00001e40 <atol>:
    1e40:	55                   	push   %ebp
    1e41:	89 e5                	mov    %esp,%ebp
    1e43:	57                   	push   %edi
    1e44:	56                   	push   %esi
    1e45:	53                   	push   %ebx
    1e46:	83 ec 0c             	sub    $0xc,%esp
    1e49:	8b 75 08             	mov    0x8(%ebp),%esi
    1e4c:	eb 05                	jmp    1e53 <atol+0x13>
    1e4e:	66 90                	xchg   %ax,%ax
    1e50:	83 c6 01             	add    $0x1,%esi
    1e53:	0f be 06             	movsbl (%esi),%eax
    1e56:	83 ec 0c             	sub    $0xc,%esp
    1e59:	50                   	push   %eax
    1e5a:	e8 fc ff ff ff       	call   1e5b <atol+0x1b>
			1e5b: R_386_PC32	isspace
    1e5f:	83 c4 10             	add    $0x10,%esp
    1e62:	89 c3                	mov    %eax,%ebx
    1e64:	85 c0                	test   %eax,%eax
    1e66:	75 e8                	jne    1e50 <atol+0x10>
    1e68:	0f b6 06             	movzbl (%esi),%eax
    1e6b:	31 ff                	xor    %edi,%edi
    1e6d:	3c 2b                	cmp    $0x2b,%al
    1e6f:	74 09                	je     1e7a <atol+0x3a>
    1e71:	3c 2d                	cmp    $0x2d,%al
    1e73:	75 18                	jne    1e8d <atol+0x4d>
    1e75:	bf 01 00 00 00       	mov    $0x1,%edi
    1e7a:	83 c6 01             	add    $0x1,%esi
    1e7d:	eb 0e                	jmp    1e8d <atol+0x4d>
    1e7f:	90                   	nop
    1e80:	0f be 06             	movsbl (%esi),%eax
    1e83:	8d 14 9b             	lea    (%ebx,%ebx,4),%edx
    1e86:	83 c6 01             	add    $0x1,%esi
    1e89:	8d 5c 50 d0          	lea    -0x30(%eax,%edx,2),%ebx
    1e8d:	0f be 06             	movsbl (%esi),%eax
    1e90:	83 ec 0c             	sub    $0xc,%esp
    1e93:	50                   	push   %eax
    1e94:	e8 fc ff ff ff       	call   1e95 <atol+0x55>
			1e95: R_386_PC32	isdigit
    1e99:	83 c4 10             	add    $0x10,%esp
    1e9c:	85 c0                	test   %eax,%eax
    1e9e:	75 e0                	jne    1e80 <atol+0x40>
    1ea0:	89 d8                	mov    %ebx,%eax
    1ea2:	89 f9                	mov    %edi,%ecx
    1ea4:	f7 d8                	neg    %eax
    1ea6:	84 c9                	test   %cl,%cl
    1ea8:	0f 45 d8             	cmovne %eax,%ebx
    1eab:	8d 65 f4             	lea    -0xc(%ebp),%esp
    1eae:	89 d8                	mov    %ebx,%eax
    1eb0:	5b                   	pop    %ebx
    1eb1:	5e                   	pop    %esi
    1eb2:	5f                   	pop    %edi
    1eb3:	5d                   	pop    %ebp
    1eb4:	c3                   	ret    
    1eb5:	66 90                	xchg   %ax,%ax
    1eb7:	66 90                	xchg   %ax,%ax
    1eb9:	66 90                	xchg   %ax,%ax
    1ebb:	66 90                	xchg   %ax,%ax
    1ebd:	66 90                	xchg   %ax,%ax
    1ebf:	90                   	nop

00001ec0 <atoll>:
    1ec0:	55                   	push   %ebp
    1ec1:	89 e5                	mov    %esp,%ebp
    1ec3:	57                   	push   %edi
    1ec4:	56                   	push   %esi
    1ec5:	53                   	push   %ebx
    1ec6:	83 ec 1c             	sub    $0x1c,%esp
    1ec9:	8b 5d 08             	mov    0x8(%ebp),%ebx
    1ecc:	eb 05                	jmp    1ed3 <atoll+0x13>
    1ece:	66 90                	xchg   %ax,%ax
    1ed0:	83 c3 01             	add    $0x1,%ebx
    1ed3:	0f be 03             	movsbl (%ebx),%eax
    1ed6:	83 ec 0c             	sub    $0xc,%esp
    1ed9:	50                   	push   %eax
    1eda:	e8 fc ff ff ff       	call   1edb <atoll+0x1b>
			1edb: R_386_PC32	isspace
    1edf:	83 c4 10             	add    $0x10,%esp
    1ee2:	85 c0                	test   %eax,%eax
    1ee4:	75 ea                	jne    1ed0 <atoll+0x10>
    1ee6:	0f b6 13             	movzbl (%ebx),%edx
    1ee9:	80 fa 2b             	cmp    $0x2b,%dl
    1eec:	74 6a                	je     1f58 <atoll+0x98>
    1eee:	80 fa 2d             	cmp    $0x2d,%dl
    1ef1:	75 08                	jne    1efb <atoll+0x3b>
    1ef3:	b8 01 00 00 00       	mov    $0x1,%eax
    1ef8:	83 c3 01             	add    $0x1,%ebx
    1efb:	88 45 e7             	mov    %al,-0x19(%ebp)
    1efe:	31 f6                	xor    %esi,%esi
    1f00:	31 ff                	xor    %edi,%edi
    1f02:	eb 23                	jmp    1f27 <atoll+0x67>
    1f04:	8d 74 26 00          	lea    0x0(%esi,%eiz,1),%esi
    1f08:	83 c3 01             	add    $0x1,%ebx
    1f0b:	6b cf 0a             	imul   $0xa,%edi,%ecx
    1f0e:	b8 0a 00 00 00       	mov    $0xa,%eax
    1f13:	f7 e6                	mul    %esi
    1f15:	0f be 73 ff          	movsbl -0x1(%ebx),%esi
    1f19:	83 ee 30             	sub    $0x30,%esi
    1f1c:	89 f7                	mov    %esi,%edi
    1f1e:	01 ca                	add    %ecx,%edx
    1f20:	c1 ff 1f             	sar    $0x1f,%edi
    1f23:	01 c6                	add    %eax,%esi
    1f25:	11 d7                	adc    %edx,%edi
    1f27:	0f be 03             	movsbl (%ebx),%eax
    1f2a:	83 ec 0c             	sub    $0xc,%esp
    1f2d:	50                   	push   %eax
    1f2e:	e8 fc ff ff ff       	call   1f2f <atoll+0x6f>
			1f2f: R_386_PC32	isdigit
    1f33:	83 c4 10             	add    $0x10,%esp
    1f36:	85 c0                	test   %eax,%eax
    1f38:	75 ce                	jne    1f08 <atoll+0x48>
    1f3a:	0f b6 45 e7          	movzbl -0x19(%ebp),%eax
    1f3e:	84 c0                	test   %al,%al
    1f40:	74 07                	je     1f49 <atoll+0x89>
    1f42:	f7 de                	neg    %esi
    1f44:	83 d7 00             	adc    $0x0,%edi
    1f47:	f7 df                	neg    %edi
    1f49:	8d 65 f4             	lea    -0xc(%ebp),%esp
    1f4c:	89 f0                	mov    %esi,%eax
    1f4e:	89 fa                	mov    %edi,%edx
    1f50:	5b                   	pop    %ebx
    1f51:	5e                   	pop    %esi
    1f52:	5f                   	pop    %edi
    1f53:	5d                   	pop    %ebp
    1f54:	c3                   	ret    
    1f55:	8d 76 00             	lea    0x0(%esi),%esi
    1f58:	31 c0                	xor    %eax,%eax
    1f5a:	eb 9c                	jmp    1ef8 <atoll+0x38>
    1f5c:	66 90                	xchg   %ax,%ax
    1f5e:	66 90                	xchg   %ax,%ax

00001f60 <bsearch>:
    1f60:	55                   	push   %ebp
    1f61:	89 e5                	mov    %esp,%ebp
    1f63:	57                   	push   %edi
    1f64:	56                   	push   %esi
    1f65:	53                   	push   %ebx
    1f66:	83 ec 0c             	sub    $0xc,%esp
    1f69:	8b 5d 10             	mov    0x10(%ebp),%ebx
    1f6c:	85 db                	test   %ebx,%ebx
    1f6e:	74 31                	je     1fa1 <bsearch+0x41>
    1f70:	8b 55 14             	mov    0x14(%ebp),%edx
    1f73:	89 df                	mov    %ebx,%edi
    1f75:	8b 75 0c             	mov    0xc(%ebp),%esi
    1f78:	83 ec 08             	sub    $0x8,%esp
    1f7b:	d1 ef                	shr    %edi
    1f7d:	0f af d7             	imul   %edi,%edx
    1f80:	01 d6                	add    %edx,%esi
    1f82:	56                   	push   %esi
    1f83:	ff 75 08             	pushl  0x8(%ebp)
    1f86:	ff 55 18             	call   *0x18(%ebp)
    1f89:	83 c4 10             	add    $0x10,%esp
    1f8c:	85 c0                	test   %eax,%eax
    1f8e:	74 28                	je     1fb8 <bsearch+0x58>
    1f90:	7e 1e                	jle    1fb0 <bsearch+0x50>
    1f92:	83 eb 01             	sub    $0x1,%ebx
    1f95:	03 75 14             	add    0x14(%ebp),%esi
    1f98:	d1 eb                	shr    %ebx
    1f9a:	89 75 0c             	mov    %esi,0xc(%ebp)
    1f9d:	85 db                	test   %ebx,%ebx
    1f9f:	75 cf                	jne    1f70 <bsearch+0x10>
    1fa1:	8d 65 f4             	lea    -0xc(%ebp),%esp
    1fa4:	31 ff                	xor    %edi,%edi
    1fa6:	5b                   	pop    %ebx
    1fa7:	89 f8                	mov    %edi,%eax
    1fa9:	5e                   	pop    %esi
    1faa:	5f                   	pop    %edi
    1fab:	5d                   	pop    %ebp
    1fac:	c3                   	ret    
    1fad:	8d 76 00             	lea    0x0(%esi),%esi
    1fb0:	89 fb                	mov    %edi,%ebx
    1fb2:	eb b8                	jmp    1f6c <bsearch+0xc>
    1fb4:	8d 74 26 00          	lea    0x0(%esi,%eiz,1),%esi
    1fb8:	8d 65 f4             	lea    -0xc(%ebp),%esp
    1fbb:	89 f7                	mov    %esi,%edi
    1fbd:	5b                   	pop    %ebx
    1fbe:	89 f8                	mov    %edi,%eax
    1fc0:	5e                   	pop    %esi
    1fc1:	5f                   	pop    %edi
    1fc2:	5d                   	pop    %ebp
    1fc3:	c3                   	ret    
    1fc4:	66 90                	xchg   %ax,%ax
    1fc6:	66 90                	xchg   %ax,%ax
    1fc8:	66 90                	xchg   %ax,%ax
    1fca:	66 90                	xchg   %ax,%ax
    1fcc:	66 90                	xchg   %ax,%ax
    1fce:	66 90                	xchg   %ax,%ax

00001fd0 <calloc>:
    1fd0:	55                   	push   %ebp
    1fd1:	89 e5                	mov    %esp,%ebp
    1fd3:	56                   	push   %esi
    1fd4:	53                   	push   %ebx
    1fd5:	8b 4d 08             	mov    0x8(%ebp),%ecx
    1fd8:	8b 5d 0c             	mov    0xc(%ebp),%ebx
    1fdb:	89 c8                	mov    %ecx,%eax
    1fdd:	09 d8                	or     %ebx,%eax
    1fdf:	3d ff ff 00 00       	cmp    $0xffff,%eax
    1fe4:	76 0a                	jbe    1ff0 <calloc+0x20>
    1fe6:	85 c9                	test   %ecx,%ecx
    1fe8:	74 06                	je     1ff0 <calloc+0x20>
    1fea:	89 c8                	mov    %ecx,%eax
    1fec:	f7 e3                	mul    %ebx
    1fee:	70 30                	jo     2020 <calloc+0x50>
    1ff0:	0f af d9             	imul   %ecx,%ebx
    1ff3:	83 ec 0c             	sub    $0xc,%esp
    1ff6:	53                   	push   %ebx
    1ff7:	e8 fc ff ff ff       	call   1ff8 <calloc+0x28>
			1ff8: R_386_PC32	malloc
    1ffc:	83 c4 10             	add    $0x10,%esp
    1fff:	89 c6                	mov    %eax,%esi
    2001:	85 c0                	test   %eax,%eax
    2003:	74 1b                	je     2020 <calloc+0x50>
    2005:	83 ec 04             	sub    $0x4,%esp
    2008:	53                   	push   %ebx
    2009:	6a 00                	push   $0x0
    200b:	50                   	push   %eax
    200c:	e8 fc ff ff ff       	call   200d <calloc+0x3d>
			200d: R_386_PC32	memset
    2011:	83 c4 10             	add    $0x10,%esp
    2014:	8d 65 f8             	lea    -0x8(%ebp),%esp
    2017:	89 f0                	mov    %esi,%eax
    2019:	5b                   	pop    %ebx
    201a:	5e                   	pop    %esi
    201b:	5d                   	pop    %ebp
    201c:	c3                   	ret    
    201d:	8d 76 00             	lea    0x0(%esi),%esi
    2020:	31 f6                	xor    %esi,%esi
    2022:	eb f0                	jmp    2014 <calloc+0x44>
    2024:	66 90                	xchg   %ax,%ax
    2026:	66 90                	xchg   %ax,%ax
    2028:	66 90                	xchg   %ax,%ax
    202a:	66 90                	xchg   %ax,%ax
    202c:	66 90                	xchg   %ax,%ax
    202e:	66 90                	xchg   %ax,%ax

00002030 <div>:
    2030:	55                   	push   %ebp
    2031:	89 e5                	mov    %esp,%ebp
    2033:	8b 45 0c             	mov    0xc(%ebp),%eax
    2036:	8b 4d 08             	mov    0x8(%ebp),%ecx
    2039:	99                   	cltd   
    203a:	f7 7d 10             	idivl  0x10(%ebp)
    203d:	89 01                	mov    %eax,(%ecx)
    203f:	89 c8                	mov    %ecx,%eax
    2041:	89 51 04             	mov    %edx,0x4(%ecx)
    2044:	5d                   	pop    %ebp
    2045:	c2 04 00             	ret    $0x4
    2048:	66 90                	xchg   %ax,%ax
    204a:	66 90                	xchg   %ax,%ax
    204c:	66 90                	xchg   %ax,%ax
    204e:	66 90                	xchg   %ax,%ax

00002050 <heapsort>:
    2050:	55                   	push   %ebp
    2051:	89 e5                	mov    %esp,%ebp
    2053:	57                   	push   %edi
    2054:	56                   	push   %esi
    2055:	53                   	push   %ebx
    2056:	83 ec 2c             	sub    $0x2c,%esp
    2059:	83 7d 0c 01          	cmpl   $0x1,0xc(%ebp)
    205d:	0f 86 7a 02 00 00    	jbe    22dd <heapsort+0x28d>
    2063:	8b 45 10             	mov    0x10(%ebp),%eax
    2066:	85 c0                	test   %eax,%eax
    2068:	0f 84 7e 02 00 00    	je     22ec <heapsort+0x29c>
    206e:	83 ec 0c             	sub    $0xc,%esp
    2071:	ff 75 10             	pushl  0x10(%ebp)
    2074:	e8 fc ff ff ff       	call   2075 <heapsort+0x25>
			2075: R_386_PC32	malloc
    2079:	83 c4 10             	add    $0x10,%esp
    207c:	89 45 dc             	mov    %eax,-0x24(%ebp)
    207f:	85 c0                	test   %eax,%eax
    2081:	0f 84 65 02 00 00    	je     22ec <heapsort+0x29c>
    2087:	8b 45 08             	mov    0x8(%ebp),%eax
    208a:	2b 45 10             	sub    0x10(%ebp),%eax
    208d:	8b 5d 0c             	mov    0xc(%ebp),%ebx
    2090:	8b 55 10             	mov    0x10(%ebp),%edx
    2093:	89 45 e4             	mov    %eax,-0x1c(%ebp)
    2096:	d1 eb                	shr    %ebx
    2098:	8d b4 26 00 00 00 00 	lea    0x0(%esi,%eiz,1),%esi
    209f:	90                   	nop
    20a0:	8d 3c 1b             	lea    (%ebx,%ebx,1),%edi
    20a3:	89 de                	mov    %ebx,%esi
    20a5:	39 7d 0c             	cmp    %edi,0xc(%ebp)
    20a8:	0f 82 a5 00 00 00    	jb     2153 <heapsort+0x103>
    20ae:	89 5d d8             	mov    %ebx,-0x28(%ebp)
    20b1:	89 d3                	mov    %edx,%ebx
    20b3:	8b 45 e4             	mov    -0x1c(%ebp),%eax
    20b6:	0f af df             	imul   %edi,%ebx
    20b9:	01 c3                	add    %eax,%ebx
    20bb:	3b 7d 0c             	cmp    0xc(%ebp),%edi
    20be:	72 5d                	jb     211d <heapsort+0xcd>
    20c0:	89 7d e0             	mov    %edi,-0x20(%ebp)
    20c3:	0f af f2             	imul   %edx,%esi
    20c6:	8b 45 e4             	mov    -0x1c(%ebp),%eax
    20c9:	83 ec 08             	sub    $0x8,%esp
    20cc:	89 55 10             	mov    %edx,0x10(%ebp)
    20cf:	01 c6                	add    %eax,%esi
    20d1:	56                   	push   %esi
    20d2:	53                   	push   %ebx
    20d3:	ff 55 14             	call   *0x14(%ebp)
    20d6:	8b 55 10             	mov    0x10(%ebp),%edx
    20d9:	83 c4 10             	add    $0x10,%esp
    20dc:	85 c0                	test   %eax,%eax
    20de:	7e 70                	jle    2150 <heapsort+0x100>
    20e0:	8d 0c 13             	lea    (%ebx,%edx,1),%ecx
    20e3:	89 d7                	mov    %edx,%edi
    20e5:	8d 76 00             	lea    0x0(%esi),%esi
    20e8:	0f b6 06             	movzbl (%esi),%eax
    20eb:	0f b6 13             	movzbl (%ebx),%edx
    20ee:	83 c3 01             	add    $0x1,%ebx
    20f1:	83 c6 01             	add    $0x1,%esi
    20f4:	88 56 ff             	mov    %dl,-0x1(%esi)
    20f7:	88 43 ff             	mov    %al,-0x1(%ebx)
    20fa:	39 d9                	cmp    %ebx,%ecx
    20fc:	75 ea                	jne    20e8 <heapsort+0x98>
    20fe:	8b 45 e0             	mov    -0x20(%ebp),%eax
    2101:	89 fa                	mov    %edi,%edx
    2103:	8d 3c 00             	lea    (%eax,%eax,1),%edi
    2106:	39 7d 0c             	cmp    %edi,0xc(%ebp)
    2109:	72 45                	jb     2150 <heapsort+0x100>
    210b:	89 d3                	mov    %edx,%ebx
    210d:	8b 45 e4             	mov    -0x1c(%ebp),%eax
    2110:	8b 75 e0             	mov    -0x20(%ebp),%esi
    2113:	0f af df             	imul   %edi,%ebx
    2116:	01 c3                	add    %eax,%ebx
    2118:	3b 7d 0c             	cmp    0xc(%ebp),%edi
    211b:	73 a3                	jae    20c0 <heapsort+0x70>
    211d:	8d 0c 13             	lea    (%ebx,%edx,1),%ecx
    2120:	83 ec 08             	sub    $0x8,%esp
    2123:	89 55 10             	mov    %edx,0x10(%ebp)
    2126:	51                   	push   %ecx
    2127:	89 4d e0             	mov    %ecx,-0x20(%ebp)
    212a:	53                   	push   %ebx
    212b:	ff 55 14             	call   *0x14(%ebp)
    212e:	8b 4d e0             	mov    -0x20(%ebp),%ecx
    2131:	8b 55 10             	mov    0x10(%ebp),%edx
    2134:	83 c4 10             	add    $0x10,%esp
    2137:	85 c0                	test   %eax,%eax
    2139:	79 85                	jns    20c0 <heapsort+0x70>
    213b:	8d 47 01             	lea    0x1(%edi),%eax
    213e:	89 cb                	mov    %ecx,%ebx
    2140:	89 45 e0             	mov    %eax,-0x20(%ebp)
    2143:	e9 7b ff ff ff       	jmp    20c3 <heapsort+0x73>
    2148:	8d b4 26 00 00 00 00 	lea    0x0(%esi,%eiz,1),%esi
    214f:	90                   	nop
    2150:	8b 5d d8             	mov    -0x28(%ebp),%ebx
    2153:	83 eb 01             	sub    $0x1,%ebx
    2156:	0f 85 44 ff ff ff    	jne    20a0 <heapsort+0x50>
    215c:	8b 45 0c             	mov    0xc(%ebp),%eax
    215f:	8b 4d e4             	mov    -0x1c(%ebp),%ecx
    2162:	83 c0 01             	add    $0x1,%eax
    2165:	0f af 45 10          	imul   0x10(%ebp),%eax
    2169:	01 c8                	add    %ecx,%eax
    216b:	8b 4d 10             	mov    0x10(%ebp),%ecx
    216e:	89 45 d4             	mov    %eax,-0x2c(%ebp)
    2171:	8b 45 dc             	mov    -0x24(%ebp),%eax
    2174:	01 c8                	add    %ecx,%eax
    2176:	89 45 d0             	mov    %eax,-0x30(%ebp)
    2179:	8d b4 26 00 00 00 00 	lea    0x0(%esi,%eiz,1),%esi
    2180:	8b 45 d4             	mov    -0x2c(%ebp),%eax
    2183:	8b 4d 10             	mov    0x10(%ebp),%ecx
    2186:	8b 7d dc             	mov    -0x24(%ebp),%edi
    2189:	89 c2                	mov    %eax,%edx
    218b:	29 c8                	sub    %ecx,%eax
    218d:	8b 4d d0             	mov    -0x30(%ebp),%ecx
    2190:	89 45 d4             	mov    %eax,-0x2c(%ebp)
    2193:	89 c6                	mov    %eax,%esi
    2195:	8d 76 00             	lea    0x0(%esi),%esi
    2198:	a4                   	movsb  %ds:(%esi),%es:(%edi)
    2199:	39 f9                	cmp    %edi,%ecx
    219b:	75 fb                	jne    2198 <heapsort+0x148>
    219d:	8b 75 08             	mov    0x8(%ebp),%esi
    21a0:	89 c7                	mov    %eax,%edi
    21a2:	8d b6 00 00 00 00    	lea    0x0(%esi),%esi
    21a8:	a4                   	movsb  %ds:(%esi),%es:(%edi)
    21a9:	39 d7                	cmp    %edx,%edi
    21ab:	75 fb                	jne    21a8 <heapsort+0x158>
    21ad:	83 6d 0c 01          	subl   $0x1,0xc(%ebp)
    21b1:	83 7d 0c 01          	cmpl   $0x1,0xc(%ebp)
    21b5:	0f 84 2c 01 00 00    	je     22e7 <heapsort+0x297>
    21bb:	8b 55 10             	mov    0x10(%ebp),%edx
    21be:	b9 02 00 00 00       	mov    $0x2,%ecx
    21c3:	bf 01 00 00 00       	mov    $0x1,%edi
    21c8:	8b 45 e4             	mov    -0x1c(%ebp),%eax
    21cb:	89 cb                	mov    %ecx,%ebx
    21cd:	89 f9                	mov    %edi,%ecx
    21cf:	89 d7                	mov    %edx,%edi
    21d1:	0f af fb             	imul   %ebx,%edi
    21d4:	8d 34 38             	lea    (%eax,%edi,1),%esi
    21d7:	3b 5d 0c             	cmp    0xc(%ebp),%ebx
    21da:	72 3b                	jb     2217 <heapsort+0x1c7>
    21dc:	8d 74 26 00          	lea    0x0(%esi,%eiz,1),%esi
    21e0:	89 75 e0             	mov    %esi,-0x20(%ebp)
    21e3:	89 d8                	mov    %ebx,%eax
    21e5:	0f af ca             	imul   %edx,%ecx
    21e8:	89 cf                	mov    %ecx,%edi
    21ea:	8b 4d e4             	mov    -0x1c(%ebp),%ecx
    21ed:	01 cf                	add    %ecx,%edi
    21ef:	8d 0c 17             	lea    (%edi,%edx,1),%ecx
    21f2:	8d b6 00 00 00 00    	lea    0x0(%esi),%esi
    21f8:	a4                   	movsb  %ds:(%esi),%es:(%edi)
    21f9:	39 cf                	cmp    %ecx,%edi
    21fb:	75 fb                	jne    21f8 <heapsort+0x1a8>
    21fd:	8d 1c 00             	lea    (%eax,%eax,1),%ebx
    2200:	39 5d 0c             	cmp    %ebx,0xc(%ebp)
    2203:	72 4b                	jb     2250 <heapsort+0x200>
    2205:	89 d7                	mov    %edx,%edi
    2207:	89 c1                	mov    %eax,%ecx
    2209:	8b 45 e4             	mov    -0x1c(%ebp),%eax
    220c:	0f af fb             	imul   %ebx,%edi
    220f:	8d 34 38             	lea    (%eax,%edi,1),%esi
    2212:	3b 5d 0c             	cmp    0xc(%ebp),%ebx
    2215:	73 c9                	jae    21e0 <heapsort+0x190>
    2217:	83 ec 08             	sub    $0x8,%esp
    221a:	8d 04 16             	lea    (%esi,%edx,1),%eax
    221d:	89 4d e0             	mov    %ecx,-0x20(%ebp)
    2220:	89 55 10             	mov    %edx,0x10(%ebp)
    2223:	89 45 d8             	mov    %eax,-0x28(%ebp)
    2226:	50                   	push   %eax
    2227:	56                   	push   %esi
    2228:	ff 55 14             	call   *0x14(%ebp)
    222b:	8b 55 10             	mov    0x10(%ebp),%edx
    222e:	8b 4d e0             	mov    -0x20(%ebp),%ecx
    2231:	83 c4 10             	add    $0x10,%esp
    2234:	85 c0                	test   %eax,%eax
    2236:	79 a8                	jns    21e0 <heapsort+0x190>
    2238:	03 7d 08             	add    0x8(%ebp),%edi
    223b:	8b 75 d8             	mov    -0x28(%ebp),%esi
    223e:	8d 43 01             	lea    0x1(%ebx),%eax
    2241:	89 7d e0             	mov    %edi,-0x20(%ebp)
    2244:	eb 9f                	jmp    21e5 <heapsort+0x195>
    2246:	8d b4 26 00 00 00 00 	lea    0x0(%esi,%eiz,1),%esi
    224d:	8d 76 00             	lea    0x0(%esi),%esi
    2250:	8b 75 10             	mov    0x10(%ebp),%esi
    2253:	89 c7                	mov    %eax,%edi
    2255:	8b 55 e4             	mov    -0x1c(%ebp),%edx
    2258:	d1 ef                	shr    %edi
    225a:	8b 5d e0             	mov    -0x20(%ebp),%ebx
    225d:	0f af f7             	imul   %edi,%esi
    2260:	01 d6                	add    %edx,%esi
    2262:	83 f8 01             	cmp    $0x1,%eax
    2265:	74 4a                	je     22b1 <heapsort+0x261>
    2267:	8b 4d 10             	mov    0x10(%ebp),%ecx
    226a:	89 f8                	mov    %edi,%eax
    226c:	89 df                	mov    %ebx,%edi
    226e:	66 90                	xchg   %ax,%ax
    2270:	83 ec 08             	sub    $0x8,%esp
    2273:	89 4d 10             	mov    %ecx,0x10(%ebp)
    2276:	89 c3                	mov    %eax,%ebx
    2278:	56                   	push   %esi
    2279:	ff 75 dc             	pushl  -0x24(%ebp)
    227c:	ff 55 14             	call   *0x14(%ebp)
    227f:	8b 4d 10             	mov    0x10(%ebp),%ecx
    2282:	83 c4 10             	add    $0x10,%esp
    2285:	85 c0                	test   %eax,%eax
    2287:	78 26                	js     22af <heapsort+0x25f>
    2289:	8d 04 0f             	lea    (%edi,%ecx,1),%eax
    228c:	8d 74 26 00          	lea    0x0(%esi,%eiz,1),%esi
    2290:	a4                   	movsb  %ds:(%esi),%es:(%edi)
    2291:	39 c7                	cmp    %eax,%edi
    2293:	75 fb                	jne    2290 <heapsort+0x240>
    2295:	89 d8                	mov    %ebx,%eax
    2297:	89 cf                	mov    %ecx,%edi
    2299:	89 ce                	mov    %ecx,%esi
    229b:	8b 55 e4             	mov    -0x1c(%ebp),%edx
    229e:	d1 e8                	shr    %eax
    22a0:	0f af fb             	imul   %ebx,%edi
    22a3:	0f af f0             	imul   %eax,%esi
    22a6:	01 d7                	add    %edx,%edi
    22a8:	01 d6                	add    %edx,%esi
    22aa:	83 fb 01             	cmp    $0x1,%ebx
    22ad:	75 c1                	jne    2270 <heapsort+0x220>
    22af:	89 fb                	mov    %edi,%ebx
    22b1:	8b 45 10             	mov    0x10(%ebp),%eax
    22b4:	8b 75 dc             	mov    -0x24(%ebp),%esi
    22b7:	89 df                	mov    %ebx,%edi
    22b9:	01 d8                	add    %ebx,%eax
    22bb:	8d 74 26 00          	lea    0x0(%esi,%eiz,1),%esi
    22bf:	90                   	nop
    22c0:	a4                   	movsb  %ds:(%esi),%es:(%edi)
    22c1:	39 c7                	cmp    %eax,%edi
    22c3:	75 fb                	jne    22c0 <heapsort+0x270>
    22c5:	83 7d 0c 01          	cmpl   $0x1,0xc(%ebp)
    22c9:	0f 85 b1 fe ff ff    	jne    2180 <heapsort+0x130>
    22cf:	83 ec 0c             	sub    $0xc,%esp
    22d2:	ff 75 dc             	pushl  -0x24(%ebp)
    22d5:	e8 fc ff ff ff       	call   22d6 <heapsort+0x286>
			22d6: R_386_PC32	free
    22da:	83 c4 10             	add    $0x10,%esp
    22dd:	31 c0                	xor    %eax,%eax
    22df:	8d 65 f4             	lea    -0xc(%ebp),%esp
    22e2:	5b                   	pop    %ebx
    22e3:	5e                   	pop    %esi
    22e4:	5f                   	pop    %edi
    22e5:	5d                   	pop    %ebp
    22e6:	c3                   	ret    
    22e7:	8b 5d 08             	mov    0x8(%ebp),%ebx
    22ea:	eb c5                	jmp    22b1 <heapsort+0x261>
    22ec:	b8 ff ff ff ff       	mov    $0xffffffff,%eax
    22f1:	eb ec                	jmp    22df <heapsort+0x28f>
    22f3:	66 90                	xchg   %ax,%ax
    22f5:	66 90                	xchg   %ax,%ax
    22f7:	66 90                	xchg   %ax,%ax
    22f9:	66 90                	xchg   %ax,%ax
    22fb:	66 90                	xchg   %ax,%ax
    22fd:	66 90                	xchg   %ax,%ax
    22ff:	90                   	nop

00002300 <heapsort_r>:
    2300:	55                   	push   %ebp
    2301:	89 e5                	mov    %esp,%ebp
    2303:	57                   	push   %edi
    2304:	56                   	push   %esi
    2305:	53                   	push   %ebx
    2306:	83 ec 2c             	sub    $0x2c,%esp
    2309:	83 7d 0c 01          	cmpl   $0x1,0xc(%ebp)
    230d:	0f 86 7a 02 00 00    	jbe    258d <heapsort_r+0x28d>
    2313:	8b 45 10             	mov    0x10(%ebp),%eax
    2316:	85 c0                	test   %eax,%eax
    2318:	0f 84 7e 02 00 00    	je     259c <heapsort_r+0x29c>
    231e:	83 ec 0c             	sub    $0xc,%esp
    2321:	ff 75 10             	pushl  0x10(%ebp)
    2324:	e8 fc ff ff ff       	call   2325 <heapsort_r+0x25>
			2325: R_386_PC32	malloc
    2329:	83 c4 10             	add    $0x10,%esp
    232c:	89 45 dc             	mov    %eax,-0x24(%ebp)
    232f:	85 c0                	test   %eax,%eax
    2331:	0f 84 65 02 00 00    	je     259c <heapsort_r+0x29c>
    2337:	8b 45 08             	mov    0x8(%ebp),%eax
    233a:	2b 45 10             	sub    0x10(%ebp),%eax
    233d:	8b 5d 0c             	mov    0xc(%ebp),%ebx
    2340:	8b 55 10             	mov    0x10(%ebp),%edx
    2343:	89 45 e4             	mov    %eax,-0x1c(%ebp)
    2346:	d1 eb                	shr    %ebx
    2348:	8d b4 26 00 00 00 00 	lea    0x0(%esi,%eiz,1),%esi
    234f:	90                   	nop
    2350:	8d 3c 1b             	lea    (%ebx,%ebx,1),%edi
    2353:	89 de                	mov    %ebx,%esi
    2355:	39 7d 0c             	cmp    %edi,0xc(%ebp)
    2358:	0f 82 b5 00 00 00    	jb     2413 <heapsort_r+0x113>
    235e:	89 5d d8             	mov    %ebx,-0x28(%ebp)
    2361:	89 d3                	mov    %edx,%ebx
    2363:	8b 45 e4             	mov    -0x1c(%ebp),%eax
    2366:	0f af df             	imul   %edi,%ebx
    2369:	01 c3                	add    %eax,%ebx
    236b:	3b 7d 0c             	cmp    0xc(%ebp),%edi
    236e:	72 65                	jb     23d5 <heapsort_r+0xd5>
    2370:	89 7d e0             	mov    %edi,-0x20(%ebp)
    2373:	0f af f2             	imul   %edx,%esi
    2376:	8b 45 e4             	mov    -0x1c(%ebp),%eax
    2379:	83 ec 04             	sub    $0x4,%esp
    237c:	89 55 10             	mov    %edx,0x10(%ebp)
    237f:	01 c6                	add    %eax,%esi
    2381:	56                   	push   %esi
    2382:	53                   	push   %ebx
    2383:	ff 75 14             	pushl  0x14(%ebp)
    2386:	ff 55 18             	call   *0x18(%ebp)
    2389:	8b 55 10             	mov    0x10(%ebp),%edx
    238c:	83 c4 10             	add    $0x10,%esp
    238f:	85 c0                	test   %eax,%eax
    2391:	7e 7d                	jle    2410 <heapsort_r+0x110>
    2393:	8d 0c 13             	lea    (%ebx,%edx,1),%ecx
    2396:	89 d7                	mov    %edx,%edi
    2398:	8d b4 26 00 00 00 00 	lea    0x0(%esi,%eiz,1),%esi
    239f:	90                   	nop
    23a0:	0f b6 06             	movzbl (%esi),%eax
    23a3:	0f b6 13             	movzbl (%ebx),%edx
    23a6:	83 c3 01             	add    $0x1,%ebx
    23a9:	83 c6 01             	add    $0x1,%esi
    23ac:	88 56 ff             	mov    %dl,-0x1(%esi)
    23af:	88 43 ff             	mov    %al,-0x1(%ebx)
    23b2:	39 d9                	cmp    %ebx,%ecx
    23b4:	75 ea                	jne    23a0 <heapsort_r+0xa0>
    23b6:	8b 45 e0             	mov    -0x20(%ebp),%eax
    23b9:	89 fa                	mov    %edi,%edx
    23bb:	8d 3c 00             	lea    (%eax,%eax,1),%edi
    23be:	39 7d 0c             	cmp    %edi,0xc(%ebp)
    23c1:	72 4d                	jb     2410 <heapsort_r+0x110>
    23c3:	89 d3                	mov    %edx,%ebx
    23c5:	8b 45 e4             	mov    -0x1c(%ebp),%eax
    23c8:	8b 75 e0             	mov    -0x20(%ebp),%esi
    23cb:	0f af df             	imul   %edi,%ebx
    23ce:	01 c3                	add    %eax,%ebx
    23d0:	3b 7d 0c             	cmp    0xc(%ebp),%edi
    23d3:	73 9b                	jae    2370 <heapsort_r+0x70>
    23d5:	83 ec 04             	sub    $0x4,%esp
    23d8:	8d 0c 13             	lea    (%ebx,%edx,1),%ecx
    23db:	89 55 10             	mov    %edx,0x10(%ebp)
    23de:	51                   	push   %ecx
    23df:	89 4d e0             	mov    %ecx,-0x20(%ebp)
    23e2:	53                   	push   %ebx
    23e3:	ff 75 14             	pushl  0x14(%ebp)
    23e6:	ff 55 18             	call   *0x18(%ebp)
    23e9:	8b 4d e0             	mov    -0x20(%ebp),%ecx
    23ec:	8b 55 10             	mov    0x10(%ebp),%edx
    23ef:	83 c4 10             	add    $0x10,%esp
    23f2:	85 c0                	test   %eax,%eax
    23f4:	0f 89 76 ff ff ff    	jns    2370 <heapsort_r+0x70>
    23fa:	8d 47 01             	lea    0x1(%edi),%eax
    23fd:	89 cb                	mov    %ecx,%ebx
    23ff:	89 45 e0             	mov    %eax,-0x20(%ebp)
    2402:	e9 6c ff ff ff       	jmp    2373 <heapsort_r+0x73>
    2407:	8d b4 26 00 00 00 00 	lea    0x0(%esi,%eiz,1),%esi
    240e:	66 90                	xchg   %ax,%ax
    2410:	8b 5d d8             	mov    -0x28(%ebp),%ebx
    2413:	83 eb 01             	sub    $0x1,%ebx
    2416:	0f 85 34 ff ff ff    	jne    2350 <heapsort_r+0x50>
    241c:	8b 45 0c             	mov    0xc(%ebp),%eax
    241f:	8b 55 e4             	mov    -0x1c(%ebp),%edx
    2422:	83 c0 01             	add    $0x1,%eax
    2425:	0f af 45 10          	imul   0x10(%ebp),%eax
    2429:	01 d0                	add    %edx,%eax
    242b:	8b 55 10             	mov    0x10(%ebp),%edx
    242e:	89 45 d4             	mov    %eax,-0x2c(%ebp)
    2431:	8b 45 dc             	mov    -0x24(%ebp),%eax
    2434:	01 d0                	add    %edx,%eax
    2436:	89 45 d0             	mov    %eax,-0x30(%ebp)
    2439:	8d b4 26 00 00 00 00 	lea    0x0(%esi,%eiz,1),%esi
    2440:	8b 45 d4             	mov    -0x2c(%ebp),%eax
    2443:	8b 4d 10             	mov    0x10(%ebp),%ecx
    2446:	8b 7d dc             	mov    -0x24(%ebp),%edi
    2449:	89 c2                	mov    %eax,%edx
    244b:	29 c8                	sub    %ecx,%eax
    244d:	8b 4d d0             	mov    -0x30(%ebp),%ecx
    2450:	89 45 d4             	mov    %eax,-0x2c(%ebp)
    2453:	89 c6                	mov    %eax,%esi
    2455:	8d 76 00             	lea    0x0(%esi),%esi
    2458:	a4                   	movsb  %ds:(%esi),%es:(%edi)
    2459:	39 f9                	cmp    %edi,%ecx
    245b:	75 fb                	jne    2458 <heapsort_r+0x158>
    245d:	8b 75 08             	mov    0x8(%ebp),%esi
    2460:	89 c7                	mov    %eax,%edi
    2462:	8d b6 00 00 00 00    	lea    0x0(%esi),%esi
    2468:	a4                   	movsb  %ds:(%esi),%es:(%edi)
    2469:	39 d7                	cmp    %edx,%edi
    246b:	75 fb                	jne    2468 <heapsort_r+0x168>
    246d:	83 6d 0c 01          	subl   $0x1,0xc(%ebp)
    2471:	83 7d 0c 01          	cmpl   $0x1,0xc(%ebp)
    2475:	0f 84 1c 01 00 00    	je     2597 <heapsort_r+0x297>
    247b:	b9 02 00 00 00       	mov    $0x2,%ecx
    2480:	8b 55 10             	mov    0x10(%ebp),%edx
    2483:	bf 01 00 00 00       	mov    $0x1,%edi
    2488:	89 cb                	mov    %ecx,%ebx
    248a:	8d b6 00 00 00 00    	lea    0x0(%esi),%esi
    2490:	89 d1                	mov    %edx,%ecx
    2492:	8b 45 e4             	mov    -0x1c(%ebp),%eax
    2495:	0f af cb             	imul   %ebx,%ecx
    2498:	89 4d e0             	mov    %ecx,-0x20(%ebp)
    249b:	8d 34 08             	lea    (%eax,%ecx,1),%esi
    249e:	3b 5d 0c             	cmp    0xc(%ebp),%ebx
    24a1:	72 2d                	jb     24d0 <heapsort_r+0x1d0>
    24a3:	89 75 e0             	mov    %esi,-0x20(%ebp)
    24a6:	89 d8                	mov    %ebx,%eax
    24a8:	0f af fa             	imul   %edx,%edi
    24ab:	8b 4d e4             	mov    -0x1c(%ebp),%ecx
    24ae:	01 cf                	add    %ecx,%edi
    24b0:	8d 0c 17             	lea    (%edi,%edx,1),%ecx
    24b3:	8d 74 26 00          	lea    0x0(%esi,%eiz,1),%esi
    24b7:	90                   	nop
    24b8:	a4                   	movsb  %ds:(%esi),%es:(%edi)
    24b9:	39 cf                	cmp    %ecx,%edi
    24bb:	75 fb                	jne    24b8 <heapsort_r+0x1b8>
    24bd:	8d 1c 00             	lea    (%eax,%eax,1),%ebx
    24c0:	39 5d 0c             	cmp    %ebx,0xc(%ebp)
    24c3:	72 3b                	jb     2500 <heapsort_r+0x200>
    24c5:	89 c7                	mov    %eax,%edi
    24c7:	eb c7                	jmp    2490 <heapsort_r+0x190>
    24c9:	8d b4 26 00 00 00 00 	lea    0x0(%esi,%eiz,1),%esi
    24d0:	83 ec 04             	sub    $0x4,%esp
    24d3:	8d 04 16             	lea    (%esi,%edx,1),%eax
    24d6:	89 55 10             	mov    %edx,0x10(%ebp)
    24d9:	89 45 d8             	mov    %eax,-0x28(%ebp)
    24dc:	50                   	push   %eax
    24dd:	56                   	push   %esi
    24de:	ff 75 14             	pushl  0x14(%ebp)
    24e1:	ff 55 18             	call   *0x18(%ebp)
    24e4:	8b 55 10             	mov    0x10(%ebp),%edx
    24e7:	8b 4d e0             	mov    -0x20(%ebp),%ecx
    24ea:	83 c4 10             	add    $0x10,%esp
    24ed:	85 c0                	test   %eax,%eax
    24ef:	79 b2                	jns    24a3 <heapsort_r+0x1a3>
    24f1:	03 4d 08             	add    0x8(%ebp),%ecx
    24f4:	8b 75 d8             	mov    -0x28(%ebp),%esi
    24f7:	8d 43 01             	lea    0x1(%ebx),%eax
    24fa:	89 4d e0             	mov    %ecx,-0x20(%ebp)
    24fd:	eb a9                	jmp    24a8 <heapsort_r+0x1a8>
    24ff:	90                   	nop
    2500:	8b 75 10             	mov    0x10(%ebp),%esi
    2503:	89 c7                	mov    %eax,%edi
    2505:	8b 55 e4             	mov    -0x1c(%ebp),%edx
    2508:	d1 ef                	shr    %edi
    250a:	8b 5d e0             	mov    -0x20(%ebp),%ebx
    250d:	0f af f7             	imul   %edi,%esi
    2510:	01 d6                	add    %edx,%esi
    2512:	83 f8 01             	cmp    $0x1,%eax
    2515:	74 4a                	je     2561 <heapsort_r+0x261>
    2517:	8b 4d 10             	mov    0x10(%ebp),%ecx
    251a:	89 f8                	mov    %edi,%eax
    251c:	89 df                	mov    %ebx,%edi
    251e:	66 90                	xchg   %ax,%ax
    2520:	83 ec 04             	sub    $0x4,%esp
    2523:	89 4d 10             	mov    %ecx,0x10(%ebp)
    2526:	89 c3                	mov    %eax,%ebx
    2528:	56                   	push   %esi
    2529:	ff 75 dc             	pushl  -0x24(%ebp)
    252c:	ff 75 14             	pushl  0x14(%ebp)
    252f:	ff 55 18             	call   *0x18(%ebp)
    2532:	8b 4d 10             	mov    0x10(%ebp),%ecx
    2535:	83 c4 10             	add    $0x10,%esp
    2538:	85 c0                	test   %eax,%eax
    253a:	78 23                	js     255f <heapsort_r+0x25f>
    253c:	8d 04 0f             	lea    (%edi,%ecx,1),%eax
    253f:	90                   	nop
    2540:	a4                   	movsb  %ds:(%esi),%es:(%edi)
    2541:	39 c7                	cmp    %eax,%edi
    2543:	75 fb                	jne    2540 <heapsort_r+0x240>
    2545:	89 d8                	mov    %ebx,%eax
    2547:	89 cf                	mov    %ecx,%edi
    2549:	89 ce                	mov    %ecx,%esi
    254b:	8b 55 e4             	mov    -0x1c(%ebp),%edx
    254e:	d1 e8                	shr    %eax
    2550:	0f af fb             	imul   %ebx,%edi
    2553:	0f af f0             	imul   %eax,%esi
    2556:	01 d7                	add    %edx,%edi
    2558:	01 d6                	add    %edx,%esi
    255a:	83 fb 01             	cmp    $0x1,%ebx
    255d:	75 c1                	jne    2520 <heapsort_r+0x220>
    255f:	89 fb                	mov    %edi,%ebx
    2561:	8b 45 10             	mov    0x10(%ebp),%eax
    2564:	8b 75 dc             	mov    -0x24(%ebp),%esi
    2567:	89 df                	mov    %ebx,%edi
    2569:	01 d8                	add    %ebx,%eax
    256b:	8d 74 26 00          	lea    0x0(%esi,%eiz,1),%esi
    256f:	90                   	nop
    2570:	a4                   	movsb  %ds:(%esi),%es:(%edi)
    2571:	39 c7                	cmp    %eax,%edi
    2573:	75 fb                	jne    2570 <heapsort_r+0x270>
    2575:	83 7d 0c 01          	cmpl   $0x1,0xc(%ebp)
    2579:	0f 85 c1 fe ff ff    	jne    2440 <heapsort_r+0x140>
    257f:	83 ec 0c             	sub    $0xc,%esp
    2582:	ff 75 dc             	pushl  -0x24(%ebp)
    2585:	e8 fc ff ff ff       	call   2586 <heapsort_r+0x286>
			2586: R_386_PC32	free
    258a:	83 c4 10             	add    $0x10,%esp
    258d:	31 c0                	xor    %eax,%eax
    258f:	8d 65 f4             	lea    -0xc(%ebp),%esp
    2592:	5b                   	pop    %ebx
    2593:	5e                   	pop    %esi
    2594:	5f                   	pop    %edi
    2595:	5d                   	pop    %ebp
    2596:	c3                   	ret    
    2597:	8b 5d 08             	mov    0x8(%ebp),%ebx
    259a:	eb c5                	jmp    2561 <heapsort_r+0x261>
    259c:	b8 ff ff ff ff       	mov    $0xffffffff,%eax
    25a1:	eb ec                	jmp    258f <heapsort_r+0x28f>
    25a3:	66 90                	xchg   %ax,%ax
    25a5:	66 90                	xchg   %ax,%ax
    25a7:	66 90                	xchg   %ax,%ax
    25a9:	66 90                	xchg   %ax,%ax
    25ab:	66 90                	xchg   %ax,%ax
    25ad:	66 90                	xchg   %ax,%ax
    25af:	90                   	nop

000025b0 <imaxabs>:
    25b0:	55                   	push   %ebp
    25b1:	89 e5                	mov    %esp,%ebp
    25b3:	53                   	push   %ebx
    25b4:	8b 4d 08             	mov    0x8(%ebp),%ecx
    25b7:	8b 5d 0c             	mov    0xc(%ebp),%ebx
    25ba:	89 c8                	mov    %ecx,%eax
    25bc:	89 da                	mov    %ebx,%edx
    25be:	f7 d8                	neg    %eax
    25c0:	83 d2 00             	adc    $0x0,%edx
    25c3:	f7 da                	neg    %edx
    25c5:	0f 48 d3             	cmovs  %ebx,%edx
    25c8:	0f 48 c1             	cmovs  %ecx,%eax
    25cb:	8b 5d fc             	mov    -0x4(%ebp),%ebx
    25ce:	c9                   	leave  
    25cf:	c3                   	ret    

000025d0 <imaxdiv>:
    25d0:	55                   	push   %ebp
    25d1:	89 e5                	mov    %esp,%ebp
    25d3:	53                   	push   %ebx
    25d4:	8d 45 f0             	lea    -0x10(%ebp),%eax
    25d7:	83 ec 20             	sub    $0x20,%esp
    25da:	8b 5d 08             	mov    0x8(%ebp),%ebx
    25dd:	50                   	push   %eax
    25de:	ff 75 18             	pushl  0x18(%ebp)
    25e1:	ff 75 14             	pushl  0x14(%ebp)
    25e4:	ff 75 10             	pushl  0x10(%ebp)
    25e7:	ff 75 0c             	pushl  0xc(%ebp)
    25ea:	e8 fc ff ff ff       	call   25eb <imaxdiv+0x1b>
			25eb: R_386_PC32	__divmoddi4
    25ef:	83 c4 20             	add    $0x20,%esp
    25f2:	89 03                	mov    %eax,(%ebx)
    25f4:	89 53 04             	mov    %edx,0x4(%ebx)
    25f7:	8b 45 f0             	mov    -0x10(%ebp),%eax
    25fa:	8b 55 f4             	mov    -0xc(%ebp),%edx
    25fd:	89 43 08             	mov    %eax,0x8(%ebx)
    2600:	89 d8                	mov    %ebx,%eax
    2602:	89 53 0c             	mov    %edx,0xc(%ebx)
    2605:	8b 5d fc             	mov    -0x4(%ebp),%ebx
    2608:	c9                   	leave  
    2609:	c2 04 00             	ret    $0x4
    260c:	66 90                	xchg   %ax,%ax
    260e:	66 90                	xchg   %ax,%ax

00002610 <labs>:
    2610:	55                   	push   %ebp
    2611:	89 e5                	mov    %esp,%ebp
    2613:	8b 55 08             	mov    0x8(%ebp),%edx
    2616:	5d                   	pop    %ebp
    2617:	89 d0                	mov    %edx,%eax
    2619:	f7 d8                	neg    %eax
    261b:	0f 48 c2             	cmovs  %edx,%eax
    261e:	c3                   	ret    
    261f:	90                   	nop

00002620 <ldiv>:
    2620:	55                   	push   %ebp
    2621:	89 e5                	mov    %esp,%ebp
    2623:	8b 45 0c             	mov    0xc(%ebp),%eax
    2626:	8b 4d 08             	mov    0x8(%ebp),%ecx
    2629:	99                   	cltd   
    262a:	f7 7d 10             	idivl  0x10(%ebp)
    262d:	89 01                	mov    %eax,(%ecx)
    262f:	89 c8                	mov    %ecx,%eax
    2631:	89 51 04             	mov    %edx,0x4(%ecx)
    2634:	5d                   	pop    %ebp
    2635:	c2 04 00             	ret    $0x4
    2638:	66 90                	xchg   %ax,%ax
    263a:	66 90                	xchg   %ax,%ax
    263c:	66 90                	xchg   %ax,%ax
    263e:	66 90                	xchg   %ax,%ax

00002640 <llabs>:
    2640:	55                   	push   %ebp
    2641:	89 e5                	mov    %esp,%ebp
    2643:	53                   	push   %ebx
    2644:	8b 4d 08             	mov    0x8(%ebp),%ecx
    2647:	8b 5d 0c             	mov    0xc(%ebp),%ebx
    264a:	89 c8                	mov    %ecx,%eax
    264c:	89 da                	mov    %ebx,%edx
    264e:	f7 d8                	neg    %eax
    2650:	83 d2 00             	adc    $0x0,%edx
    2653:	f7 da                	neg    %edx
    2655:	0f 48 d3             	cmovs  %ebx,%edx
    2658:	0f 48 c1             	cmovs  %ecx,%eax
    265b:	8b 5d fc             	mov    -0x4(%ebp),%ebx
    265e:	c9                   	leave  
    265f:	c3                   	ret    

00002660 <lldiv>:
    2660:	55                   	push   %ebp
    2661:	89 e5                	mov    %esp,%ebp
    2663:	53                   	push   %ebx
    2664:	8d 45 f0             	lea    -0x10(%ebp),%eax
    2667:	83 ec 20             	sub    $0x20,%esp
    266a:	8b 5d 08             	mov    0x8(%ebp),%ebx
    266d:	50                   	push   %eax
    266e:	ff 75 18             	pushl  0x18(%ebp)
    2671:	ff 75 14             	pushl  0x14(%ebp)
    2674:	ff 75 10             	pushl  0x10(%ebp)
    2677:	ff 75 0c             	pushl  0xc(%ebp)
    267a:	e8 fc ff ff ff       	call   267b <lldiv+0x1b>
			267b: R_386_PC32	__divmoddi4
    267f:	83 c4 20             	add    $0x20,%esp
    2682:	89 03                	mov    %eax,(%ebx)
    2684:	89 53 04             	mov    %edx,0x4(%ebx)
    2687:	8b 45 f0             	mov    -0x10(%ebp),%eax
    268a:	8b 55 f4             	mov    -0xc(%ebp),%edx
    268d:	89 43 08             	mov    %eax,0x8(%ebx)
    2690:	89 d8                	mov    %ebx,%eax
    2692:	89 53 0c             	mov    %edx,0xc(%ebx)
    2695:	8b 5d fc             	mov    -0x4(%ebp),%ebx
    2698:	c9                   	leave  
    2699:	c2 04 00             	ret    $0x4
    269c:	66 90                	xchg   %ax,%ax
    269e:	66 90                	xchg   %ax,%ax

000026a0 <_qsort>:
    26a0:	55                   	push   %ebp
    26a1:	89 e5                	mov    %esp,%ebp
    26a3:	57                   	push   %edi
    26a4:	89 cf                	mov    %ecx,%edi
    26a6:	56                   	push   %esi
    26a7:	f7 df                	neg    %edi
    26a9:	53                   	push   %ebx
    26aa:	83 ec 4c             	sub    $0x4c,%esp
    26ad:	89 45 dc             	mov    %eax,-0x24(%ebp)
    26b0:	8b 45 0c             	mov    0xc(%ebp),%eax
    26b3:	89 55 bc             	mov    %edx,-0x44(%ebp)
    26b6:	8d 70 ff             	lea    -0x1(%eax),%esi
    26b9:	89 4d d4             	mov    %ecx,-0x2c(%ebp)
    26bc:	89 75 b4             	mov    %esi,-0x4c(%ebp)
    26bf:	89 ce                	mov    %ecx,%esi
    26c1:	c1 ee 02             	shr    $0x2,%esi
    26c4:	89 7d e4             	mov    %edi,-0x1c(%ebp)
    26c7:	89 75 c4             	mov    %esi,-0x3c(%ebp)
    26ca:	85 c0                	test   %eax,%eax
    26cc:	0f 8e 1a 03 00 00    	jle    29ec <_qsort+0x34c>
    26d2:	8b 45 dc             	mov    -0x24(%ebp),%eax
    26d5:	8b 75 d4             	mov    -0x2c(%ebp),%esi
    26d8:	c7 45 d8 02 00 00 00 	movl   $0x2,-0x28(%ebp)
    26df:	09 f0                	or     %esi,%eax
    26e1:	a8 03                	test   $0x3,%al
    26e3:	0f 84 45 06 00 00    	je     2d2e <_qsort+0x68e>
    26e9:	83 7d bc 06          	cmpl   $0x6,-0x44(%ebp)
    26ed:	0f 86 50 06 00 00    	jbe    2d43 <_qsort+0x6a3>
    26f3:	8b 7d bc             	mov    -0x44(%ebp),%edi
    26f6:	8b 4d d4             	mov    -0x2c(%ebp),%ecx
    26f9:	8b 75 dc             	mov    -0x24(%ebp),%esi
    26fc:	89 f8                	mov    %edi,%eax
    26fe:	d1 e8                	shr    %eax
    2700:	0f af c1             	imul   %ecx,%eax
    2703:	8d 1c 06             	lea    (%esi,%eax,1),%ebx
    2706:	8d 47 ff             	lea    -0x1(%edi),%eax
    2709:	0f af c1             	imul   %ecx,%eax
    270c:	89 45 b8             	mov    %eax,-0x48(%ebp)
    270f:	01 f0                	add    %esi,%eax
    2711:	89 45 cc             	mov    %eax,-0x34(%ebp)
    2714:	83 ff 07             	cmp    $0x7,%edi
    2717:	0f 84 f3 00 00 00    	je     2810 <_qsort+0x170>
    271d:	83 ff 28             	cmp    $0x28,%edi
    2720:	0f 86 a5 04 00 00    	jbe    2bcb <_qsort+0x52b>
    2726:	c1 ef 03             	shr    $0x3,%edi
    2729:	83 ec 08             	sub    $0x8,%esp
    272c:	89 f8                	mov    %edi,%eax
    272e:	89 cf                	mov    %ecx,%edi
    2730:	0f af f8             	imul   %eax,%edi
    2733:	8d 04 7e             	lea    (%esi,%edi,2),%eax
    2736:	89 45 d0             	mov    %eax,-0x30(%ebp)
    2739:	8d 04 3e             	lea    (%esi,%edi,1),%eax
    273c:	89 45 e0             	mov    %eax,-0x20(%ebp)
    273f:	50                   	push   %eax
    2740:	56                   	push   %esi
    2741:	ff 55 08             	call   *0x8(%ebp)
    2744:	83 c4 10             	add    $0x10,%esp
    2747:	85 c0                	test   %eax,%eax
    2749:	0f 88 a2 07 00 00    	js     2ef1 <_qsort+0x851>
    274f:	8b 75 d0             	mov    -0x30(%ebp),%esi
    2752:	83 ec 08             	sub    $0x8,%esp
    2755:	56                   	push   %esi
    2756:	ff 75 e0             	pushl  -0x20(%ebp)
    2759:	ff 55 08             	call   *0x8(%ebp)
    275c:	83 c4 10             	add    $0x10,%esp
    275f:	85 c0                	test   %eax,%eax
    2761:	0f 8e 33 08 00 00    	jle    2f9a <_qsort+0x8fa>
    2767:	89 fe                	mov    %edi,%esi
    2769:	83 ec 08             	sub    $0x8,%esp
    276c:	8d 04 3b             	lea    (%ebx,%edi,1),%eax
    276f:	f7 de                	neg    %esi
    2771:	89 45 d0             	mov    %eax,-0x30(%ebp)
    2774:	89 75 c8             	mov    %esi,-0x38(%ebp)
    2777:	89 de                	mov    %ebx,%esi
    2779:	29 fe                	sub    %edi,%esi
    277b:	53                   	push   %ebx
    277c:	56                   	push   %esi
    277d:	ff 55 08             	call   *0x8(%ebp)
    2780:	83 c4 10             	add    $0x10,%esp
    2783:	85 c0                	test   %eax,%eax
    2785:	0f 88 cc 07 00 00    	js     2f57 <_qsort+0x8b7>
    278b:	8b 7d d0             	mov    -0x30(%ebp),%edi
    278e:	83 ec 08             	sub    $0x8,%esp
    2791:	57                   	push   %edi
    2792:	53                   	push   %ebx
    2793:	ff 55 08             	call   *0x8(%ebp)
    2796:	83 c4 10             	add    $0x10,%esp
    2799:	85 c0                	test   %eax,%eax
    279b:	0f 8e e2 07 00 00    	jle    2f83 <_qsort+0x8e3>
    27a1:	8b 7d c8             	mov    -0x38(%ebp),%edi
    27a4:	8b 45 cc             	mov    -0x34(%ebp),%eax
    27a7:	83 ec 08             	sub    $0x8,%esp
    27aa:	8d 34 38             	lea    (%eax,%edi,1),%esi
    27ad:	01 f7                	add    %esi,%edi
    27af:	89 7d d0             	mov    %edi,-0x30(%ebp)
    27b2:	56                   	push   %esi
    27b3:	57                   	push   %edi
    27b4:	ff 55 08             	call   *0x8(%ebp)
    27b7:	83 c4 10             	add    $0x10,%esp
    27ba:	85 c0                	test   %eax,%eax
    27bc:	0f 88 66 07 00 00    	js     2f28 <_qsort+0x888>
    27c2:	8b 7d cc             	mov    -0x34(%ebp),%edi
    27c5:	83 ec 08             	sub    $0x8,%esp
    27c8:	57                   	push   %edi
    27c9:	56                   	push   %esi
    27ca:	ff 55 08             	call   *0x8(%ebp)
    27cd:	83 c4 10             	add    $0x10,%esp
    27d0:	85 c0                	test   %eax,%eax
    27d2:	7f 13                	jg     27e7 <_qsort+0x147>
    27d4:	83 ec 08             	sub    $0x8,%esp
    27d7:	57                   	push   %edi
    27d8:	8b 75 d0             	mov    -0x30(%ebp),%esi
    27db:	56                   	push   %esi
    27dc:	ff 55 08             	call   *0x8(%ebp)
    27df:	83 c4 10             	add    $0x10,%esp
    27e2:	85 c0                	test   %eax,%eax
    27e4:	0f 49 f7             	cmovns %edi,%esi
    27e7:	83 ec 08             	sub    $0x8,%esp
    27ea:	53                   	push   %ebx
    27eb:	8b 7d e0             	mov    -0x20(%ebp),%edi
    27ee:	57                   	push   %edi
    27ef:	ff 55 08             	call   *0x8(%ebp)
    27f2:	83 c4 10             	add    $0x10,%esp
    27f5:	85 c0                	test   %eax,%eax
    27f7:	0f 88 03 05 00 00    	js     2d00 <_qsort+0x660>
    27fd:	83 ec 08             	sub    $0x8,%esp
    2800:	56                   	push   %esi
    2801:	53                   	push   %ebx
    2802:	ff 55 08             	call   *0x8(%ebp)
    2805:	83 c4 10             	add    $0x10,%esp
    2808:	85 c0                	test   %eax,%eax
    280a:	0f 8e c5 06 00 00    	jle    2ed5 <_qsort+0x835>
    2810:	8b 45 d8             	mov    -0x28(%ebp),%eax
    2813:	85 c0                	test   %eax,%eax
    2815:	0f 85 79 03 00 00    	jne    2b94 <_qsort+0x4f4>
    281b:	8b 75 dc             	mov    -0x24(%ebp),%esi
    281e:	8b 13                	mov    (%ebx),%edx
    2820:	8b 06                	mov    (%esi),%eax
    2822:	89 16                	mov    %edx,(%esi)
    2824:	89 03                	mov    %eax,(%ebx)
    2826:	8b 45 d4             	mov    -0x2c(%ebp),%eax
    2829:	01 f0                	add    %esi,%eax
    282b:	89 45 b0             	mov    %eax,-0x50(%ebp)
    282e:	8b 45 b0             	mov    -0x50(%ebp),%eax
    2831:	8b 75 cc             	mov    -0x34(%ebp),%esi
    2834:	31 ff                	xor    %edi,%edi
    2836:	89 45 a8             	mov    %eax,-0x58(%ebp)
    2839:	89 45 e0             	mov    %eax,-0x20(%ebp)
    283c:	89 75 d0             	mov    %esi,-0x30(%ebp)
    283f:	89 45 c0             	mov    %eax,-0x40(%ebp)
    2842:	8d b6 00 00 00 00    	lea    0x0(%esi),%esi
    2848:	8b 45 e0             	mov    -0x20(%ebp),%eax
    284b:	89 c3                	mov    %eax,%ebx
    284d:	39 c6                	cmp    %eax,%esi
    284f:	0f 82 cb 00 00 00    	jb     2920 <_qsort+0x280>
    2855:	83 ec 08             	sub    $0x8,%esp
    2858:	ff 75 dc             	pushl  -0x24(%ebp)
    285b:	50                   	push   %eax
    285c:	ff 55 08             	call   *0x8(%ebp)
    285f:	83 c4 10             	add    $0x10,%esp
    2862:	85 c0                	test   %eax,%eax
    2864:	0f 8e 2e 02 00 00    	jle    2a98 <_qsort+0x3f8>
    286a:	89 5d c8             	mov    %ebx,-0x38(%ebp)
    286d:	8b 5d d0             	mov    -0x30(%ebp),%ebx
    2870:	eb 28                	jmp    289a <_qsort+0x1fa>
    2872:	8d b6 00 00 00 00    	lea    0x0(%esi),%esi
    2878:	8b 06                	mov    (%esi),%eax
    287a:	8b 13                	mov    (%ebx),%edx
    287c:	89 16                	mov    %edx,(%esi)
    287e:	89 03                	mov    %eax,(%ebx)
    2880:	8b 45 e4             	mov    -0x1c(%ebp),%eax
    2883:	bf 01 00 00 00       	mov    $0x1,%edi
    2888:	01 c3                	add    %eax,%ebx
    288a:	8b 45 e4             	mov    -0x1c(%ebp),%eax
    288d:	01 c6                	add    %eax,%esi
    288f:	8b 45 e0             	mov    -0x20(%ebp),%eax
    2892:	39 c6                	cmp    %eax,%esi
    2894:	0f 82 b6 01 00 00    	jb     2a50 <_qsort+0x3b0>
    289a:	83 ec 08             	sub    $0x8,%esp
    289d:	ff 75 dc             	pushl  -0x24(%ebp)
    28a0:	56                   	push   %esi
    28a1:	ff 55 08             	call   *0x8(%ebp)
    28a4:	83 c4 10             	add    $0x10,%esp
    28a7:	85 c0                	test   %eax,%eax
    28a9:	0f 88 61 01 00 00    	js     2a10 <_qsort+0x370>
    28af:	75 d9                	jne    288a <_qsort+0x1ea>
    28b1:	8b 4d d8             	mov    -0x28(%ebp),%ecx
    28b4:	85 c9                	test   %ecx,%ecx
    28b6:	74 c0                	je     2878 <_qsort+0x1d8>
    28b8:	83 7d d8 01          	cmpl   $0x1,-0x28(%ebp)
    28bc:	89 da                	mov    %ebx,%edx
    28be:	89 f0                	mov    %esi,%eax
    28c0:	74 2e                	je     28f0 <_qsort+0x250>
    28c2:	8b 7d d4             	mov    -0x2c(%ebp),%edi
    28c5:	89 5d d0             	mov    %ebx,-0x30(%ebp)
    28c8:	01 f7                	add    %esi,%edi
    28ca:	8d b6 00 00 00 00    	lea    0x0(%esi),%esi
    28d0:	0f b6 08             	movzbl (%eax),%ecx
    28d3:	0f b6 1a             	movzbl (%edx),%ebx
    28d6:	83 c0 01             	add    $0x1,%eax
    28d9:	83 c2 01             	add    $0x1,%edx
    28dc:	88 58 ff             	mov    %bl,-0x1(%eax)
    28df:	88 4a ff             	mov    %cl,-0x1(%edx)
    28e2:	39 f8                	cmp    %edi,%eax
    28e4:	75 ea                	jne    28d0 <_qsort+0x230>
    28e6:	8b 5d d0             	mov    -0x30(%ebp),%ebx
    28e9:	eb 95                	jmp    2880 <_qsort+0x1e0>
    28eb:	8d 74 26 00          	lea    0x0(%esi,%eiz,1),%esi
    28ef:	90                   	nop
    28f0:	89 5d d0             	mov    %ebx,-0x30(%ebp)
    28f3:	8b 4d c4             	mov    -0x3c(%ebp),%ecx
    28f6:	8d b4 26 00 00 00 00 	lea    0x0(%esi,%eiz,1),%esi
    28fd:	8d 76 00             	lea    0x0(%esi),%esi
    2900:	8b 38                	mov    (%eax),%edi
    2902:	8b 1a                	mov    (%edx),%ebx
    2904:	83 c2 04             	add    $0x4,%edx
    2907:	83 c0 04             	add    $0x4,%eax
    290a:	89 58 fc             	mov    %ebx,-0x4(%eax)
    290d:	89 7a fc             	mov    %edi,-0x4(%edx)
    2910:	83 e9 01             	sub    $0x1,%ecx
    2913:	75 eb                	jne    2900 <_qsort+0x260>
    2915:	8b 5d d0             	mov    -0x30(%ebp),%ebx
    2918:	e9 63 ff ff ff       	jmp    2880 <_qsort+0x1e0>
    291d:	8d 76 00             	lea    0x0(%esi),%esi
    2920:	89 75 cc             	mov    %esi,-0x34(%ebp)
    2923:	8b 45 b8             	mov    -0x48(%ebp),%eax
    2926:	8b 75 d4             	mov    -0x2c(%ebp),%esi
    2929:	8b 55 c0             	mov    -0x40(%ebp),%edx
    292c:	01 f0                	add    %esi,%eax
    292e:	8b 75 dc             	mov    -0x24(%ebp),%esi
    2931:	8d 0c 06             	lea    (%esi,%eax,1),%ecx
    2934:	8b 45 e0             	mov    -0x20(%ebp),%eax
    2937:	89 4d b8             	mov    %ecx,-0x48(%ebp)
    293a:	29 d0                	sub    %edx,%eax
    293c:	29 f2                	sub    %esi,%edx
    293e:	39 c2                	cmp    %eax,%edx
    2940:	89 45 ac             	mov    %eax,-0x54(%ebp)
    2943:	0f 47 d0             	cmova  %eax,%edx
    2946:	85 d2                	test   %edx,%edx
    2948:	0f 85 dc 01 00 00    	jne    2b2a <_qsort+0x48a>
    294e:	8b 55 e4             	mov    -0x1c(%ebp),%edx
    2951:	8b 45 cc             	mov    -0x34(%ebp),%eax
    2954:	89 55 c8             	mov    %edx,-0x38(%ebp)
    2957:	8b 55 d0             	mov    -0x30(%ebp),%edx
    295a:	29 c2                	sub    %eax,%edx
    295c:	8b 45 d4             	mov    -0x2c(%ebp),%eax
    295f:	89 d6                	mov    %edx,%esi
    2961:	29 c1                	sub    %eax,%ecx
    2963:	8b 45 d0             	mov    -0x30(%ebp),%eax
    2966:	89 ca                	mov    %ecx,%edx
    2968:	29 c2                	sub    %eax,%edx
    296a:	39 f2                	cmp    %esi,%edx
    296c:	0f 47 d6             	cmova  %esi,%edx
    296f:	85 d2                	test   %edx,%edx
    2971:	74 35                	je     29a8 <_qsort+0x308>
    2973:	8b 45 b8             	mov    -0x48(%ebp),%eax
    2976:	29 d0                	sub    %edx,%eax
    2978:	83 7d d8 01          	cmpl   $0x1,-0x28(%ebp)
    297c:	0f 87 cb 04 00 00    	ja     2e4d <_qsort+0x7ad>
    2982:	89 75 e0             	mov    %esi,-0x20(%ebp)
    2985:	89 d1                	mov    %edx,%ecx
    2987:	c1 e9 02             	shr    $0x2,%ecx
    298a:	8d b6 00 00 00 00    	lea    0x0(%esi),%esi
    2990:	8b 13                	mov    (%ebx),%edx
    2992:	8b 30                	mov    (%eax),%esi
    2994:	83 c0 04             	add    $0x4,%eax
    2997:	83 c3 04             	add    $0x4,%ebx
    299a:	89 73 fc             	mov    %esi,-0x4(%ebx)
    299d:	89 50 fc             	mov    %edx,-0x4(%eax)
    29a0:	83 e9 01             	sub    $0x1,%ecx
    29a3:	75 eb                	jne    2990 <_qsort+0x2f0>
    29a5:	8b 75 e0             	mov    -0x20(%ebp),%esi
    29a8:	85 ff                	test   %edi,%edi
    29aa:	0f 84 29 02 00 00    	je     2bd9 <_qsort+0x539>
    29b0:	8b 7d ac             	mov    -0x54(%ebp),%edi
    29b3:	39 7d d4             	cmp    %edi,-0x2c(%ebp)
    29b6:	0f 82 d9 02 00 00    	jb     2c95 <_qsort+0x5f5>
    29bc:	8b 4d d4             	mov    -0x2c(%ebp),%ecx
    29bf:	39 f1                	cmp    %esi,%ecx
    29c1:	73 3d                	jae    2a00 <_qsort+0x360>
    29c3:	8b 7d d0             	mov    -0x30(%ebp),%edi
    29c6:	8b 45 cc             	mov    -0x34(%ebp),%eax
    29c9:	31 d2                	xor    %edx,%edx
    29cb:	83 6d b4 01          	subl   $0x1,-0x4c(%ebp)
    29cf:	29 f8                	sub    %edi,%eax
    29d1:	8b 7d b8             	mov    -0x48(%ebp),%edi
    29d4:	01 c7                	add    %eax,%edi
    29d6:	89 f0                	mov    %esi,%eax
    29d8:	f7 f1                	div    %ecx
    29da:	89 7d dc             	mov    %edi,-0x24(%ebp)
    29dd:	89 45 bc             	mov    %eax,-0x44(%ebp)
    29e0:	8b 45 b4             	mov    -0x4c(%ebp),%eax
    29e3:	83 f8 ff             	cmp    $0xffffffff,%eax
    29e6:	0f 85 e6 fc ff ff    	jne    26d2 <_qsort+0x32>
    29ec:	ff 75 08             	pushl  0x8(%ebp)
    29ef:	ff 75 d4             	pushl  -0x2c(%ebp)
    29f2:	ff 75 bc             	pushl  -0x44(%ebp)
    29f5:	ff 75 dc             	pushl  -0x24(%ebp)
    29f8:	e8 fc ff ff ff       	call   29f9 <_qsort+0x359>
			29f9: R_386_PC32	heapsort
    29fd:	83 c4 10             	add    $0x10,%esp
    2a00:	8d 65 f4             	lea    -0xc(%ebp),%esp
    2a03:	5b                   	pop    %ebx
    2a04:	5e                   	pop    %esi
    2a05:	5f                   	pop    %edi
    2a06:	5d                   	pop    %ebp
    2a07:	c3                   	ret    
    2a08:	8d b4 26 00 00 00 00 	lea    0x0(%esi,%eiz,1),%esi
    2a0f:	90                   	nop
    2a10:	8b 45 e0             	mov    -0x20(%ebp),%eax
    2a13:	89 5d d0             	mov    %ebx,-0x30(%ebp)
    2a16:	8b 5d c8             	mov    -0x38(%ebp),%ebx
    2a19:	39 c6                	cmp    %eax,%esi
    2a1b:	0f 82 ff fe ff ff    	jb     2920 <_qsort+0x280>
    2a21:	8b 55 d8             	mov    -0x28(%ebp),%edx
    2a24:	85 d2                	test   %edx,%edx
    2a26:	75 38                	jne    2a60 <_qsort+0x3c0>
    2a28:	89 c7                	mov    %eax,%edi
    2a2a:	8b 16                	mov    (%esi),%edx
    2a2c:	8b 00                	mov    (%eax),%eax
    2a2e:	89 17                	mov    %edx,(%edi)
    2a30:	89 06                	mov    %eax,(%esi)
    2a32:	8b 45 d4             	mov    -0x2c(%ebp),%eax
    2a35:	01 f8                	add    %edi,%eax
    2a37:	8b 4d d4             	mov    -0x2c(%ebp),%ecx
    2a3a:	bf 01 00 00 00       	mov    $0x1,%edi
    2a3f:	29 ce                	sub    %ecx,%esi
    2a41:	89 45 e0             	mov    %eax,-0x20(%ebp)
    2a44:	e9 ff fd ff ff       	jmp    2848 <_qsort+0x1a8>
    2a49:	8d b4 26 00 00 00 00 	lea    0x0(%esi,%eiz,1),%esi
    2a50:	89 5d d0             	mov    %ebx,-0x30(%ebp)
    2a53:	8b 5d c8             	mov    -0x38(%ebp),%ebx
    2a56:	89 75 cc             	mov    %esi,-0x34(%ebp)
    2a59:	e9 c5 fe ff ff       	jmp    2923 <_qsort+0x283>
    2a5e:	66 90                	xchg   %ax,%ax
    2a60:	8b 7d d4             	mov    -0x2c(%ebp),%edi
    2a63:	8b 45 e0             	mov    -0x20(%ebp),%eax
    2a66:	89 f2                	mov    %esi,%edx
    2a68:	01 f8                	add    %edi,%eax
    2a6a:	83 7d d8 01          	cmpl   $0x1,-0x28(%ebp)
    2a6e:	89 c7                	mov    %eax,%edi
    2a70:	74 5e                	je     2ad0 <_qsort+0x430>
    2a72:	8d b6 00 00 00 00    	lea    0x0(%esi),%esi
    2a78:	0f b6 0b             	movzbl (%ebx),%ecx
    2a7b:	0f b6 02             	movzbl (%edx),%eax
    2a7e:	83 c3 01             	add    $0x1,%ebx
    2a81:	83 c2 01             	add    $0x1,%edx
    2a84:	88 43 ff             	mov    %al,-0x1(%ebx)
    2a87:	88 4a ff             	mov    %cl,-0x1(%edx)
    2a8a:	39 fb                	cmp    %edi,%ebx
    2a8c:	75 ea                	jne    2a78 <_qsort+0x3d8>
    2a8e:	89 f8                	mov    %edi,%eax
    2a90:	eb a5                	jmp    2a37 <_qsort+0x397>
    2a92:	8d b6 00 00 00 00    	lea    0x0(%esi),%esi
    2a98:	8b 4d e0             	mov    -0x20(%ebp),%ecx
    2a9b:	8b 45 d4             	mov    -0x2c(%ebp),%eax
    2a9e:	8d 04 01             	lea    (%ecx,%eax,1),%eax
    2aa1:	75 9e                	jne    2a41 <_qsort+0x3a1>
    2aa3:	8b 7d d8             	mov    -0x28(%ebp),%edi
    2aa6:	85 ff                	test   %edi,%edi
    2aa8:	75 50                	jne    2afa <_qsort+0x45a>
    2aaa:	8b 7d c0             	mov    -0x40(%ebp),%edi
    2aad:	8b 11                	mov    (%ecx),%edx
    2aaf:	8b 07                	mov    (%edi),%eax
    2ab1:	89 17                	mov    %edx,(%edi)
    2ab3:	89 01                	mov    %eax,(%ecx)
    2ab5:	8b 45 d4             	mov    -0x2c(%ebp),%eax
    2ab8:	8d 0c 07             	lea    (%edi,%eax,1),%ecx
    2abb:	89 4d c0             	mov    %ecx,-0x40(%ebp)
    2abe:	8b 45 e0             	mov    -0x20(%ebp),%eax
    2ac1:	bf 01 00 00 00       	mov    $0x1,%edi
    2ac6:	8b 4d d4             	mov    -0x2c(%ebp),%ecx
    2ac9:	01 c8                	add    %ecx,%eax
    2acb:	e9 71 ff ff ff       	jmp    2a41 <_qsort+0x3a1>
    2ad0:	8b 55 c4             	mov    -0x3c(%ebp),%edx
    2ad3:	89 f0                	mov    %esi,%eax
    2ad5:	8d 76 00             	lea    0x0(%esi),%esi
    2ad8:	8b 0b                	mov    (%ebx),%ecx
    2ada:	8b 38                	mov    (%eax),%edi
    2adc:	83 c0 04             	add    $0x4,%eax
    2adf:	83 c3 04             	add    $0x4,%ebx
    2ae2:	89 7b fc             	mov    %edi,-0x4(%ebx)
    2ae5:	89 48 fc             	mov    %ecx,-0x4(%eax)
    2ae8:	83 ea 01             	sub    $0x1,%edx
    2aeb:	75 eb                	jne    2ad8 <_qsort+0x438>
    2aed:	8b 45 e0             	mov    -0x20(%ebp),%eax
    2af0:	8b 7d d4             	mov    -0x2c(%ebp),%edi
    2af3:	01 f8                	add    %edi,%eax
    2af5:	e9 3d ff ff ff       	jmp    2a37 <_qsort+0x397>
    2afa:	8b 7d d4             	mov    -0x2c(%ebp),%edi
    2afd:	8b 45 c0             	mov    -0x40(%ebp),%eax
    2b00:	83 7d d8 01          	cmpl   $0x1,-0x28(%ebp)
    2b04:	8d 0c 38             	lea    (%eax,%edi,1),%ecx
    2b07:	89 cf                	mov    %ecx,%edi
    2b09:	0f 84 65 03 00 00    	je     2e74 <_qsort+0x7d4>
    2b0f:	90                   	nop
    2b10:	0f b6 10             	movzbl (%eax),%edx
    2b13:	0f b6 0b             	movzbl (%ebx),%ecx
    2b16:	83 c0 01             	add    $0x1,%eax
    2b19:	83 c3 01             	add    $0x1,%ebx
    2b1c:	88 48 ff             	mov    %cl,-0x1(%eax)
    2b1f:	88 53 ff             	mov    %dl,-0x1(%ebx)
    2b22:	39 f8                	cmp    %edi,%eax
    2b24:	75 ea                	jne    2b10 <_qsort+0x470>
    2b26:	89 f9                	mov    %edi,%ecx
    2b28:	eb 91                	jmp    2abb <_qsort+0x41b>
    2b2a:	8b 45 e0             	mov    -0x20(%ebp),%eax
    2b2d:	29 d0                	sub    %edx,%eax
    2b2f:	83 7d d8 01          	cmpl   $0x1,-0x28(%ebp)
    2b33:	0f 87 bd 02 00 00    	ja     2df6 <_qsort+0x756>
    2b39:	89 5d e0             	mov    %ebx,-0x20(%ebp)
    2b3c:	89 d1                	mov    %edx,%ecx
    2b3e:	8b 55 dc             	mov    -0x24(%ebp),%edx
    2b41:	c1 e9 02             	shr    $0x2,%ecx
    2b44:	8d 74 26 00          	lea    0x0(%esi,%eiz,1),%esi
    2b48:	8b 32                	mov    (%edx),%esi
    2b4a:	8b 18                	mov    (%eax),%ebx
    2b4c:	83 c0 04             	add    $0x4,%eax
    2b4f:	83 c2 04             	add    $0x4,%edx
    2b52:	89 5a fc             	mov    %ebx,-0x4(%edx)
    2b55:	89 70 fc             	mov    %esi,-0x4(%eax)
    2b58:	83 e9 01             	sub    $0x1,%ecx
    2b5b:	75 eb                	jne    2b48 <_qsort+0x4a8>
    2b5d:	8b 4d d4             	mov    -0x2c(%ebp),%ecx
    2b60:	8b 55 d0             	mov    -0x30(%ebp),%edx
    2b63:	8b 5d e0             	mov    -0x20(%ebp),%ebx
    2b66:	89 c8                	mov    %ecx,%eax
    2b68:	89 d6                	mov    %edx,%esi
    2b6a:	f7 d8                	neg    %eax
    2b6c:	89 45 c8             	mov    %eax,-0x38(%ebp)
    2b6f:	8b 45 cc             	mov    -0x34(%ebp),%eax
    2b72:	29 c6                	sub    %eax,%esi
    2b74:	8b 45 b8             	mov    -0x48(%ebp),%eax
    2b77:	29 c8                	sub    %ecx,%eax
    2b79:	29 d0                	sub    %edx,%eax
    2b7b:	89 c2                	mov    %eax,%edx
    2b7d:	39 f0                	cmp    %esi,%eax
    2b7f:	0f 47 d6             	cmova  %esi,%edx
    2b82:	85 d2                	test   %edx,%edx
    2b84:	0f 84 1e fe ff ff    	je     29a8 <_qsort+0x308>
    2b8a:	8b 45 b8             	mov    -0x48(%ebp),%eax
    2b8d:	29 d0                	sub    %edx,%eax
    2b8f:	e9 ee fd ff ff       	jmp    2982 <_qsort+0x2e2>
    2b94:	8b 45 dc             	mov    -0x24(%ebp),%eax
    2b97:	8b 75 d4             	mov    -0x2c(%ebp),%esi
    2b9a:	01 c6                	add    %eax,%esi
    2b9c:	83 7d d8 01          	cmpl   $0x1,-0x28(%ebp)
    2ba0:	89 75 b0             	mov    %esi,-0x50(%ebp)
    2ba3:	8b 75 b0             	mov    -0x50(%ebp),%esi
    2ba6:	0f 84 f7 02 00 00    	je     2ea3 <_qsort+0x803>
    2bac:	8d 74 26 00          	lea    0x0(%esi,%eiz,1),%esi
    2bb0:	0f b6 10             	movzbl (%eax),%edx
    2bb3:	0f b6 0b             	movzbl (%ebx),%ecx
    2bb6:	83 c0 01             	add    $0x1,%eax
    2bb9:	83 c3 01             	add    $0x1,%ebx
    2bbc:	88 48 ff             	mov    %cl,-0x1(%eax)
    2bbf:	88 53 ff             	mov    %dl,-0x1(%ebx)
    2bc2:	39 c6                	cmp    %eax,%esi
    2bc4:	75 ea                	jne    2bb0 <_qsort+0x510>
    2bc6:	e9 63 fc ff ff       	jmp    282e <_qsort+0x18e>
    2bcb:	8b 45 dc             	mov    -0x24(%ebp),%eax
    2bce:	8b 75 cc             	mov    -0x34(%ebp),%esi
    2bd1:	89 45 e0             	mov    %eax,-0x20(%ebp)
    2bd4:	e9 0e fc ff ff       	jmp    27e7 <_qsort+0x147>
    2bd9:	8b 45 bc             	mov    -0x44(%ebp),%eax
    2bdc:	8b 4d b8             	mov    -0x48(%ebp),%ecx
    2bdf:	c1 e8 02             	shr    $0x2,%eax
    2be2:	83 c0 01             	add    $0x1,%eax
    2be5:	89 45 c0             	mov    %eax,-0x40(%ebp)
    2be8:	39 4d b0             	cmp    %ecx,-0x50(%ebp)
    2beb:	0f 83 0f fe ff ff    	jae    2a00 <_qsort+0x360>
    2bf1:	8b 5d a8             	mov    -0x58(%ebp),%ebx
    2bf4:	89 75 a8             	mov    %esi,-0x58(%ebp)
    2bf7:	89 f9                	mov    %edi,%ecx
    2bf9:	8b 45 d4             	mov    -0x2c(%ebp),%eax
    2bfc:	01 d8                	add    %ebx,%eax
    2bfe:	89 45 b0             	mov    %eax,-0x50(%ebp)
    2c01:	89 c7                	mov    %eax,%edi
    2c03:	eb 1f                	jmp    2c24 <_qsort+0x584>
    2c05:	8d 76 00             	lea    0x0(%esi),%esi
    2c08:	8b 5d d4             	mov    -0x2c(%ebp),%ebx
    2c0b:	8b 16                	mov    (%esi),%edx
    2c0d:	8b 04 1e             	mov    (%esi,%ebx,1),%eax
    2c10:	89 14 1e             	mov    %edx,(%esi,%ebx,1)
    2c13:	89 06                	mov    %eax,(%esi)
    2c15:	8b 45 d4             	mov    -0x2c(%ebp),%eax
    2c18:	83 c1 01             	add    $0x1,%ecx
    2c1b:	29 c7                	sub    %eax,%edi
    2c1d:	39 4d c0             	cmp    %ecx,-0x40(%ebp)
    2c20:	72 64                	jb     2c86 <_qsort+0x5e6>
    2c22:	89 f3                	mov    %esi,%ebx
    2c24:	39 5d dc             	cmp    %ebx,-0x24(%ebp)
    2c27:	0f 83 bb 00 00 00    	jae    2ce8 <_qsort+0x648>
    2c2d:	8b 45 c8             	mov    -0x38(%ebp),%eax
    2c30:	83 ec 08             	sub    $0x8,%esp
    2c33:	89 4d e0             	mov    %ecx,-0x20(%ebp)
    2c36:	53                   	push   %ebx
    2c37:	8d 34 03             	lea    (%ebx,%eax,1),%esi
    2c3a:	56                   	push   %esi
    2c3b:	ff 55 08             	call   *0x8(%ebp)
    2c3e:	8b 4d e0             	mov    -0x20(%ebp),%ecx
    2c41:	83 c4 10             	add    $0x10,%esp
    2c44:	85 c0                	test   %eax,%eax
    2c46:	0f 8e 9c 00 00 00    	jle    2ce8 <_qsort+0x648>
    2c4c:	8b 45 d8             	mov    -0x28(%ebp),%eax
    2c4f:	85 c0                	test   %eax,%eax
    2c51:	74 b5                	je     2c08 <_qsort+0x568>
    2c53:	83 7d d8 01          	cmpl   $0x1,-0x28(%ebp)
    2c57:	89 f0                	mov    %esi,%eax
    2c59:	74 5e                	je     2cb9 <_qsort+0x619>
    2c5b:	89 4d e0             	mov    %ecx,-0x20(%ebp)
    2c5e:	66 90                	xchg   %ax,%ax
    2c60:	0f b6 13             	movzbl (%ebx),%edx
    2c63:	0f b6 08             	movzbl (%eax),%ecx
    2c66:	83 c3 01             	add    $0x1,%ebx
    2c69:	83 c0 01             	add    $0x1,%eax
    2c6c:	88 4b ff             	mov    %cl,-0x1(%ebx)
    2c6f:	88 50 ff             	mov    %dl,-0x1(%eax)
    2c72:	39 fb                	cmp    %edi,%ebx
    2c74:	75 ea                	jne    2c60 <_qsort+0x5c0>
    2c76:	8b 4d e0             	mov    -0x20(%ebp),%ecx
    2c79:	8b 45 d4             	mov    -0x2c(%ebp),%eax
    2c7c:	83 c1 01             	add    $0x1,%ecx
    2c7f:	29 c7                	sub    %eax,%edi
    2c81:	39 4d c0             	cmp    %ecx,-0x40(%ebp)
    2c84:	73 9c                	jae    2c22 <_qsort+0x582>
    2c86:	8b 75 a8             	mov    -0x58(%ebp),%esi
    2c89:	8b 7d ac             	mov    -0x54(%ebp),%edi
    2c8c:	39 7d d4             	cmp    %edi,-0x2c(%ebp)
    2c8f:	0f 83 27 fd ff ff    	jae    29bc <_qsort+0x31c>
    2c95:	8b 4d d4             	mov    -0x2c(%ebp),%ecx
    2c98:	89 f8                	mov    %edi,%eax
    2c9a:	31 d2                	xor    %edx,%edx
    2c9c:	83 ec 08             	sub    $0x8,%esp
    2c9f:	ff 75 b4             	pushl  -0x4c(%ebp)
    2ca2:	f7 f1                	div    %ecx
    2ca4:	ff 75 08             	pushl  0x8(%ebp)
    2ca7:	89 c2                	mov    %eax,%edx
    2ca9:	8b 45 dc             	mov    -0x24(%ebp),%eax
    2cac:	e8 ef f9 ff ff       	call   26a0 <_qsort>
    2cb1:	83 c4 10             	add    $0x10,%esp
    2cb4:	e9 03 fd ff ff       	jmp    29bc <_qsort+0x31c>
    2cb9:	89 7d e0             	mov    %edi,-0x20(%ebp)
    2cbc:	8b 55 c4             	mov    -0x3c(%ebp),%edx
    2cbf:	89 4d bc             	mov    %ecx,-0x44(%ebp)
    2cc2:	8d b6 00 00 00 00    	lea    0x0(%esi),%esi
    2cc8:	8b 3b                	mov    (%ebx),%edi
    2cca:	8b 08                	mov    (%eax),%ecx
    2ccc:	83 c0 04             	add    $0x4,%eax
    2ccf:	83 c3 04             	add    $0x4,%ebx
    2cd2:	89 4b fc             	mov    %ecx,-0x4(%ebx)
    2cd5:	89 78 fc             	mov    %edi,-0x4(%eax)
    2cd8:	83 ea 01             	sub    $0x1,%edx
    2cdb:	75 eb                	jne    2cc8 <_qsort+0x628>
    2cdd:	8b 7d e0             	mov    -0x20(%ebp),%edi
    2ce0:	8b 4d bc             	mov    -0x44(%ebp),%ecx
    2ce3:	e9 2d ff ff ff       	jmp    2c15 <_qsort+0x575>
    2ce8:	8b 5d b0             	mov    -0x50(%ebp),%ebx
    2ceb:	8b 45 b8             	mov    -0x48(%ebp),%eax
    2cee:	39 c3                	cmp    %eax,%ebx
    2cf0:	0f 82 03 ff ff ff    	jb     2bf9 <_qsort+0x559>
    2cf6:	8d 65 f4             	lea    -0xc(%ebp),%esp
    2cf9:	5b                   	pop    %ebx
    2cfa:	5e                   	pop    %esi
    2cfb:	5f                   	pop    %edi
    2cfc:	5d                   	pop    %ebp
    2cfd:	c3                   	ret    
    2cfe:	66 90                	xchg   %ax,%ax
    2d00:	83 ec 08             	sub    $0x8,%esp
    2d03:	56                   	push   %esi
    2d04:	53                   	push   %ebx
    2d05:	ff 55 08             	call   *0x8(%ebp)
    2d08:	83 c4 10             	add    $0x10,%esp
    2d0b:	85 c0                	test   %eax,%eax
    2d0d:	0f 88 fd fa ff ff    	js     2810 <_qsort+0x170>
    2d13:	83 ec 08             	sub    $0x8,%esp
    2d16:	56                   	push   %esi
    2d17:	57                   	push   %edi
    2d18:	ff 55 08             	call   *0x8(%ebp)
    2d1b:	83 c4 10             	add    $0x10,%esp
    2d1e:	85 c0                	test   %eax,%eax
    2d20:	0f 88 c4 01 00 00    	js     2eea <_qsort+0x84a>
    2d26:	8b 5d e0             	mov    -0x20(%ebp),%ebx
    2d29:	e9 e2 fa ff ff       	jmp    2810 <_qsort+0x170>
    2d2e:	31 c0                	xor    %eax,%eax
    2d30:	83 fe 04             	cmp    $0x4,%esi
    2d33:	0f 95 c0             	setne  %al
    2d36:	83 7d bc 06          	cmpl   $0x6,-0x44(%ebp)
    2d3a:	89 45 d8             	mov    %eax,-0x28(%ebp)
    2d3d:	0f 87 b0 f9 ff ff    	ja     26f3 <_qsort+0x53>
    2d43:	8b 7d d4             	mov    -0x2c(%ebp),%edi
    2d46:	8b 55 bc             	mov    -0x44(%ebp),%edx
    2d49:	8b 75 dc             	mov    -0x24(%ebp),%esi
    2d4c:	0f af d7             	imul   %edi,%edx
    2d4f:	8d 04 3e             	lea    (%esi,%edi,1),%eax
    2d52:	f7 df                	neg    %edi
    2d54:	01 d6                	add    %edx,%esi
    2d56:	89 75 d0             	mov    %esi,-0x30(%ebp)
    2d59:	39 f0                	cmp    %esi,%eax
    2d5b:	0f 83 9f fc ff ff    	jae    2a00 <_qsort+0x360>
    2d61:	89 7d e0             	mov    %edi,-0x20(%ebp)
    2d64:	8b 7d d4             	mov    -0x2c(%ebp),%edi
    2d67:	39 45 dc             	cmp    %eax,-0x24(%ebp)
    2d6a:	73 75                	jae    2de1 <_qsort+0x741>
    2d6c:	89 45 d4             	mov    %eax,-0x2c(%ebp)
    2d6f:	89 c6                	mov    %eax,%esi
    2d71:	eb 17                	jmp    2d8a <_qsort+0x6ea>
    2d73:	8d 74 26 00          	lea    0x0(%esi,%eiz,1),%esi
    2d77:	90                   	nop
    2d78:	8b 4d e0             	mov    -0x20(%ebp),%ecx
    2d7b:	8b 03                	mov    (%ebx),%eax
    2d7d:	8b 14 0b             	mov    (%ebx,%ecx,1),%edx
    2d80:	89 13                	mov    %edx,(%ebx)
    2d82:	89 04 0b             	mov    %eax,(%ebx,%ecx,1)
    2d85:	39 75 dc             	cmp    %esi,-0x24(%ebp)
    2d88:	73 54                	jae    2dde <_qsort+0x73e>
    2d8a:	83 ec 08             	sub    $0x8,%esp
    2d8d:	89 f3                	mov    %esi,%ebx
    2d8f:	29 fe                	sub    %edi,%esi
    2d91:	53                   	push   %ebx
    2d92:	56                   	push   %esi
    2d93:	ff 55 08             	call   *0x8(%ebp)
    2d96:	83 c4 10             	add    $0x10,%esp
    2d99:	85 c0                	test   %eax,%eax
    2d9b:	7e 41                	jle    2dde <_qsort+0x73e>
    2d9d:	8b 45 d8             	mov    -0x28(%ebp),%eax
    2da0:	85 c0                	test   %eax,%eax
    2da2:	74 d4                	je     2d78 <_qsort+0x6d8>
    2da4:	83 7d d8 01          	cmpl   $0x1,-0x28(%ebp)
    2da8:	89 f0                	mov    %esi,%eax
    2daa:	8d 0c 3b             	lea    (%ebx,%edi,1),%ecx
    2dad:	0f 84 0d 02 00 00    	je     2fc0 <_qsort+0x920>
    2db3:	89 4d e4             	mov    %ecx,-0x1c(%ebp)
    2db6:	8d b4 26 00 00 00 00 	lea    0x0(%esi,%eiz,1),%esi
    2dbd:	8d 76 00             	lea    0x0(%esi),%esi
    2dc0:	0f b6 08             	movzbl (%eax),%ecx
    2dc3:	0f b6 13             	movzbl (%ebx),%edx
    2dc6:	83 c0 01             	add    $0x1,%eax
    2dc9:	83 c3 01             	add    $0x1,%ebx
    2dcc:	88 4b ff             	mov    %cl,-0x1(%ebx)
    2dcf:	8b 4d e4             	mov    -0x1c(%ebp),%ecx
    2dd2:	88 50 ff             	mov    %dl,-0x1(%eax)
    2dd5:	39 cb                	cmp    %ecx,%ebx
    2dd7:	75 e7                	jne    2dc0 <_qsort+0x720>
    2dd9:	39 75 dc             	cmp    %esi,-0x24(%ebp)
    2ddc:	72 ac                	jb     2d8a <_qsort+0x6ea>
    2dde:	8b 45 d4             	mov    -0x2c(%ebp),%eax
    2de1:	8b 75 d0             	mov    -0x30(%ebp),%esi
    2de4:	01 f8                	add    %edi,%eax
    2de6:	39 f0                	cmp    %esi,%eax
    2de8:	0f 82 79 ff ff ff    	jb     2d67 <_qsort+0x6c7>
    2dee:	8d 65 f4             	lea    -0xc(%ebp),%esp
    2df1:	5b                   	pop    %ebx
    2df2:	5e                   	pop    %esi
    2df3:	5f                   	pop    %edi
    2df4:	5d                   	pop    %ebp
    2df5:	c3                   	ret    
    2df6:	8b 4d dc             	mov    -0x24(%ebp),%ecx
    2df9:	89 5d c8             	mov    %ebx,-0x38(%ebp)
    2dfc:	8d 34 11             	lea    (%ecx,%edx,1),%esi
    2dff:	89 ca                	mov    %ecx,%edx
    2e01:	8d b4 26 00 00 00 00 	lea    0x0(%esi,%eiz,1),%esi
    2e08:	0f b6 0a             	movzbl (%edx),%ecx
    2e0b:	0f b6 18             	movzbl (%eax),%ebx
    2e0e:	83 c2 01             	add    $0x1,%edx
    2e11:	83 c0 01             	add    $0x1,%eax
    2e14:	88 5a ff             	mov    %bl,-0x1(%edx)
    2e17:	88 48 ff             	mov    %cl,-0x1(%eax)
    2e1a:	39 f2                	cmp    %esi,%edx
    2e1c:	75 ea                	jne    2e08 <_qsort+0x768>
    2e1e:	8b 45 e4             	mov    -0x1c(%ebp),%eax
    2e21:	8b 5d c8             	mov    -0x38(%ebp),%ebx
    2e24:	8b 4d cc             	mov    -0x34(%ebp),%ecx
    2e27:	8b 55 b8             	mov    -0x48(%ebp),%edx
    2e2a:	89 45 c8             	mov    %eax,-0x38(%ebp)
    2e2d:	8b 45 d0             	mov    -0x30(%ebp),%eax
    2e30:	89 c6                	mov    %eax,%esi
    2e32:	29 ce                	sub    %ecx,%esi
    2e34:	8b 4d d4             	mov    -0x2c(%ebp),%ecx
    2e37:	29 ca                	sub    %ecx,%edx
    2e39:	29 c2                	sub    %eax,%edx
    2e3b:	39 f2                	cmp    %esi,%edx
    2e3d:	0f 47 d6             	cmova  %esi,%edx
    2e40:	85 d2                	test   %edx,%edx
    2e42:	0f 84 60 fb ff ff    	je     29a8 <_qsort+0x308>
    2e48:	8b 45 b8             	mov    -0x48(%ebp),%eax
    2e4b:	29 d0                	sub    %edx,%eax
    2e4d:	8b 4d e0             	mov    -0x20(%ebp),%ecx
    2e50:	01 d1                	add    %edx,%ecx
    2e52:	89 4d e0             	mov    %ecx,-0x20(%ebp)
    2e55:	8d 76 00             	lea    0x0(%esi),%esi
    2e58:	0f b6 13             	movzbl (%ebx),%edx
    2e5b:	0f b6 08             	movzbl (%eax),%ecx
    2e5e:	83 c0 01             	add    $0x1,%eax
    2e61:	83 c3 01             	add    $0x1,%ebx
    2e64:	88 4b ff             	mov    %cl,-0x1(%ebx)
    2e67:	88 50 ff             	mov    %dl,-0x1(%eax)
    2e6a:	39 5d e0             	cmp    %ebx,-0x20(%ebp)
    2e6d:	75 e9                	jne    2e58 <_qsort+0x7b8>
    2e6f:	e9 34 fb ff ff       	jmp    29a8 <_qsort+0x308>
    2e74:	8b 4d c4             	mov    -0x3c(%ebp),%ecx
    2e77:	89 c2                	mov    %eax,%edx
    2e79:	8d b4 26 00 00 00 00 	lea    0x0(%esi,%eiz,1),%esi
    2e80:	8b 02                	mov    (%edx),%eax
    2e82:	8b 3b                	mov    (%ebx),%edi
    2e84:	83 c3 04             	add    $0x4,%ebx
    2e87:	83 c2 04             	add    $0x4,%edx
    2e8a:	89 7a fc             	mov    %edi,-0x4(%edx)
    2e8d:	89 43 fc             	mov    %eax,-0x4(%ebx)
    2e90:	83 e9 01             	sub    $0x1,%ecx
    2e93:	75 eb                	jne    2e80 <_qsort+0x7e0>
    2e95:	8b 45 c0             	mov    -0x40(%ebp),%eax
    2e98:	8b 7d d4             	mov    -0x2c(%ebp),%edi
    2e9b:	8d 0c 38             	lea    (%eax,%edi,1),%ecx
    2e9e:	e9 18 fc ff ff       	jmp    2abb <_qsort+0x41b>
    2ea3:	8b 55 c4             	mov    -0x3c(%ebp),%edx
    2ea6:	8d b4 26 00 00 00 00 	lea    0x0(%esi,%eiz,1),%esi
    2ead:	8d 76 00             	lea    0x0(%esi),%esi
    2eb0:	8b 08                	mov    (%eax),%ecx
    2eb2:	8b 33                	mov    (%ebx),%esi
    2eb4:	83 c3 04             	add    $0x4,%ebx
    2eb7:	83 c0 04             	add    $0x4,%eax
    2eba:	89 70 fc             	mov    %esi,-0x4(%eax)
    2ebd:	89 4b fc             	mov    %ecx,-0x4(%ebx)
    2ec0:	83 ea 01             	sub    $0x1,%edx
    2ec3:	75 eb                	jne    2eb0 <_qsort+0x810>
    2ec5:	8b 45 dc             	mov    -0x24(%ebp),%eax
    2ec8:	8b 7d d4             	mov    -0x2c(%ebp),%edi
    2ecb:	01 f8                	add    %edi,%eax
    2ecd:	89 45 b0             	mov    %eax,-0x50(%ebp)
    2ed0:	e9 59 f9 ff ff       	jmp    282e <_qsort+0x18e>
    2ed5:	83 ec 08             	sub    $0x8,%esp
    2ed8:	56                   	push   %esi
    2ed9:	ff 75 e0             	pushl  -0x20(%ebp)
    2edc:	ff 55 08             	call   *0x8(%ebp)
    2edf:	83 c4 10             	add    $0x10,%esp
    2ee2:	85 c0                	test   %eax,%eax
    2ee4:	0f 88 3c fe ff ff    	js     2d26 <_qsort+0x686>
    2eea:	89 f3                	mov    %esi,%ebx
    2eec:	e9 1f f9 ff ff       	jmp    2810 <_qsort+0x170>
    2ef1:	83 ec 08             	sub    $0x8,%esp
    2ef4:	ff 75 d0             	pushl  -0x30(%ebp)
    2ef7:	ff 75 e0             	pushl  -0x20(%ebp)
    2efa:	ff 55 08             	call   *0x8(%ebp)
    2efd:	83 c4 10             	add    $0x10,%esp
    2f00:	85 c0                	test   %eax,%eax
    2f02:	0f 88 5f f8 ff ff    	js     2767 <_qsort+0xc7>
    2f08:	83 ec 08             	sub    $0x8,%esp
    2f0b:	ff 75 d0             	pushl  -0x30(%ebp)
    2f0e:	56                   	push   %esi
    2f0f:	ff 55 08             	call   *0x8(%ebp)
    2f12:	83 c4 10             	add    $0x10,%esp
    2f15:	85 c0                	test   %eax,%eax
    2f17:	0f 88 92 00 00 00    	js     2faf <_qsort+0x90f>
    2f1d:	8b 45 dc             	mov    -0x24(%ebp),%eax
    2f20:	89 45 e0             	mov    %eax,-0x20(%ebp)
    2f23:	e9 3f f8 ff ff       	jmp    2767 <_qsort+0xc7>
    2f28:	83 ec 08             	sub    $0x8,%esp
    2f2b:	ff 75 cc             	pushl  -0x34(%ebp)
    2f2e:	56                   	push   %esi
    2f2f:	ff 55 08             	call   *0x8(%ebp)
    2f32:	83 c4 10             	add    $0x10,%esp
    2f35:	85 c0                	test   %eax,%eax
    2f37:	0f 88 aa f8 ff ff    	js     27e7 <_qsort+0x147>
    2f3d:	83 ec 08             	sub    $0x8,%esp
    2f40:	ff 75 cc             	pushl  -0x34(%ebp)
    2f43:	89 fe                	mov    %edi,%esi
    2f45:	57                   	push   %edi
    2f46:	ff 55 08             	call   *0x8(%ebp)
    2f49:	83 c4 10             	add    $0x10,%esp
    2f4c:	85 c0                	test   %eax,%eax
    2f4e:	0f 48 75 cc          	cmovs  -0x34(%ebp),%esi
    2f52:	e9 90 f8 ff ff       	jmp    27e7 <_qsort+0x147>
    2f57:	8b 7d d0             	mov    -0x30(%ebp),%edi
    2f5a:	83 ec 08             	sub    $0x8,%esp
    2f5d:	57                   	push   %edi
    2f5e:	53                   	push   %ebx
    2f5f:	ff 55 08             	call   *0x8(%ebp)
    2f62:	83 c4 10             	add    $0x10,%esp
    2f65:	85 c0                	test   %eax,%eax
    2f67:	0f 88 34 f8 ff ff    	js     27a1 <_qsort+0x101>
    2f6d:	83 ec 08             	sub    $0x8,%esp
    2f70:	57                   	push   %edi
    2f71:	56                   	push   %esi
    2f72:	ff 55 08             	call   *0x8(%ebp)
    2f75:	83 c4 10             	add    $0x10,%esp
    2f78:	85 c0                	test   %eax,%eax
    2f7a:	78 16                	js     2f92 <_qsort+0x8f2>
    2f7c:	89 f3                	mov    %esi,%ebx
    2f7e:	e9 1e f8 ff ff       	jmp    27a1 <_qsort+0x101>
    2f83:	83 ec 08             	sub    $0x8,%esp
    2f86:	57                   	push   %edi
    2f87:	56                   	push   %esi
    2f88:	ff 55 08             	call   *0x8(%ebp)
    2f8b:	83 c4 10             	add    $0x10,%esp
    2f8e:	85 c0                	test   %eax,%eax
    2f90:	78 ea                	js     2f7c <_qsort+0x8dc>
    2f92:	8b 5d d0             	mov    -0x30(%ebp),%ebx
    2f95:	e9 07 f8 ff ff       	jmp    27a1 <_qsort+0x101>
    2f9a:	83 ec 08             	sub    $0x8,%esp
    2f9d:	56                   	push   %esi
    2f9e:	ff 75 dc             	pushl  -0x24(%ebp)
    2fa1:	ff 55 08             	call   *0x8(%ebp)
    2fa4:	83 c4 10             	add    $0x10,%esp
    2fa7:	85 c0                	test   %eax,%eax
    2fa9:	0f 88 6e ff ff ff    	js     2f1d <_qsort+0x87d>
    2faf:	8b 45 d0             	mov    -0x30(%ebp),%eax
    2fb2:	89 45 e0             	mov    %eax,-0x20(%ebp)
    2fb5:	e9 ad f7 ff ff       	jmp    2767 <_qsort+0xc7>
    2fba:	8d b6 00 00 00 00    	lea    0x0(%esi),%esi
    2fc0:	89 75 e4             	mov    %esi,-0x1c(%ebp)
    2fc3:	8b 55 c4             	mov    -0x3c(%ebp),%edx
    2fc6:	8d b4 26 00 00 00 00 	lea    0x0(%esi,%eiz,1),%esi
    2fcd:	8d 76 00             	lea    0x0(%esi),%esi
    2fd0:	8b 0b                	mov    (%ebx),%ecx
    2fd2:	8b 30                	mov    (%eax),%esi
    2fd4:	83 c0 04             	add    $0x4,%eax
    2fd7:	83 c3 04             	add    $0x4,%ebx
    2fda:	89 73 fc             	mov    %esi,-0x4(%ebx)
    2fdd:	89 48 fc             	mov    %ecx,-0x4(%eax)
    2fe0:	83 ea 01             	sub    $0x1,%edx
    2fe3:	75 eb                	jne    2fd0 <_qsort+0x930>
    2fe5:	8b 75 e4             	mov    -0x1c(%ebp),%esi
    2fe8:	e9 98 fd ff ff       	jmp    2d85 <_qsort+0x6e5>
    2fed:	8d 76 00             	lea    0x0(%esi),%esi

00002ff0 <qsort>:
    2ff0:	55                   	push   %ebp
    2ff1:	89 e5                	mov    %esp,%ebp
    2ff3:	57                   	push   %edi
    2ff4:	56                   	push   %esi
    2ff5:	53                   	push   %ebx
    2ff6:	83 ec 28             	sub    $0x28,%esp
    2ff9:	8b 5d 0c             	mov    0xc(%ebp),%ebx
    2ffc:	8b 45 08             	mov    0x8(%ebp),%eax
    2fff:	8b 7d 10             	mov    0x10(%ebp),%edi
    3002:	8b 75 14             	mov    0x14(%ebp),%esi
    3005:	89 45 e4             	mov    %eax,-0x1c(%ebp)
    3008:	53                   	push   %ebx
    3009:	e8 fc ff ff ff       	call   300a <qsort+0x1a>
			300a: R_386_PC32	fls
    300e:	89 75 08             	mov    %esi,0x8(%ebp)
    3011:	83 c4 10             	add    $0x10,%esp
    3014:	89 f9                	mov    %edi,%ecx
    3016:	8d 44 00 fe          	lea    -0x2(%eax,%eax,1),%eax
    301a:	89 da                	mov    %ebx,%edx
    301c:	89 45 0c             	mov    %eax,0xc(%ebp)
    301f:	8b 45 e4             	mov    -0x1c(%ebp),%eax
    3022:	8d 65 f4             	lea    -0xc(%ebp),%esp
    3025:	5b                   	pop    %ebx
    3026:	5e                   	pop    %esi
    3027:	5f                   	pop    %edi
    3028:	5d                   	pop    %ebp
    3029:	e9 72 f6 ff ff       	jmp    26a0 <_qsort>
    302e:	66 90                	xchg   %ax,%ax

00003030 <_qsort>:
    3030:	55                   	push   %ebp
    3031:	89 e5                	mov    %esp,%ebp
    3033:	57                   	push   %edi
    3034:	89 cf                	mov    %ecx,%edi
    3036:	56                   	push   %esi
    3037:	f7 df                	neg    %edi
    3039:	53                   	push   %ebx
    303a:	83 ec 4c             	sub    $0x4c,%esp
    303d:	89 45 dc             	mov    %eax,-0x24(%ebp)
    3040:	8b 45 10             	mov    0x10(%ebp),%eax
    3043:	89 55 bc             	mov    %edx,-0x44(%ebp)
    3046:	8d 70 ff             	lea    -0x1(%eax),%esi
    3049:	89 4d d4             	mov    %ecx,-0x2c(%ebp)
    304c:	89 75 b4             	mov    %esi,-0x4c(%ebp)
    304f:	89 ce                	mov    %ecx,%esi
    3051:	c1 ee 02             	shr    $0x2,%esi
    3054:	89 7d e4             	mov    %edi,-0x1c(%ebp)
    3057:	89 75 c4             	mov    %esi,-0x3c(%ebp)
    305a:	85 c0                	test   %eax,%eax
    305c:	0f 8e 2a 03 00 00    	jle    338c <_qsort+0x35c>
    3062:	8b 45 dc             	mov    -0x24(%ebp),%eax
    3065:	8b 75 d4             	mov    -0x2c(%ebp),%esi
    3068:	c7 45 d8 02 00 00 00 	movl   $0x2,-0x28(%ebp)
    306f:	09 f0                	or     %esi,%eax
    3071:	a8 03                	test   $0x3,%al
    3073:	0f 84 6b 06 00 00    	je     36e4 <_qsort+0x6b4>
    3079:	83 7d bc 06          	cmpl   $0x6,-0x44(%ebp)
    307d:	0f 86 76 06 00 00    	jbe    36f9 <_qsort+0x6c9>
    3083:	8b 7d bc             	mov    -0x44(%ebp),%edi
    3086:	8b 4d d4             	mov    -0x2c(%ebp),%ecx
    3089:	8b 75 dc             	mov    -0x24(%ebp),%esi
    308c:	89 f8                	mov    %edi,%eax
    308e:	d1 e8                	shr    %eax
    3090:	0f af c1             	imul   %ecx,%eax
    3093:	8d 1c 06             	lea    (%esi,%eax,1),%ebx
    3096:	8d 47 ff             	lea    -0x1(%edi),%eax
    3099:	0f af c1             	imul   %ecx,%eax
    309c:	89 45 b8             	mov    %eax,-0x48(%ebp)
    309f:	01 f0                	add    %esi,%eax
    30a1:	89 45 cc             	mov    %eax,-0x34(%ebp)
    30a4:	83 ff 07             	cmp    $0x7,%edi
    30a7:	0f 84 0e 01 00 00    	je     31bb <_qsort+0x18b>
    30ad:	83 ff 28             	cmp    $0x28,%edi
    30b0:	0f 86 b5 04 00 00    	jbe    356b <_qsort+0x53b>
    30b6:	c1 ef 03             	shr    $0x3,%edi
    30b9:	83 ec 04             	sub    $0x4,%esp
    30bc:	89 f8                	mov    %edi,%eax
    30be:	89 cf                	mov    %ecx,%edi
    30c0:	0f af f8             	imul   %eax,%edi
    30c3:	8d 04 7e             	lea    (%esi,%edi,2),%eax
    30c6:	89 45 d0             	mov    %eax,-0x30(%ebp)
    30c9:	8d 04 3e             	lea    (%esi,%edi,1),%eax
    30cc:	89 45 e0             	mov    %eax,-0x20(%ebp)
    30cf:	50                   	push   %eax
    30d0:	56                   	push   %esi
    30d1:	ff 75 08             	pushl  0x8(%ebp)
    30d4:	ff 55 0c             	call   *0xc(%ebp)
    30d7:	83 c4 10             	add    $0x10,%esp
    30da:	85 c0                	test   %eax,%eax
    30dc:	0f 88 c2 07 00 00    	js     38a4 <_qsort+0x874>
    30e2:	8b 75 d0             	mov    -0x30(%ebp),%esi
    30e5:	83 ec 04             	sub    $0x4,%esp
    30e8:	56                   	push   %esi
    30e9:	ff 75 e0             	pushl  -0x20(%ebp)
    30ec:	ff 75 08             	pushl  0x8(%ebp)
    30ef:	ff 55 0c             	call   *0xc(%ebp)
    30f2:	83 c4 10             	add    $0x10,%esp
    30f5:	85 c0                	test   %eax,%eax
    30f7:	0f 8e 65 08 00 00    	jle    3962 <_qsort+0x932>
    30fd:	89 fe                	mov    %edi,%esi
    30ff:	83 ec 04             	sub    $0x4,%esp
    3102:	8d 04 3b             	lea    (%ebx,%edi,1),%eax
    3105:	f7 de                	neg    %esi
    3107:	89 45 d0             	mov    %eax,-0x30(%ebp)
    310a:	89 75 c8             	mov    %esi,-0x38(%ebp)
